   1               		.file	"main.c"
   2               	__SREG__ = 0x3f
   3               	__SP_H__ = 0x3e
   4               	__SP_L__ = 0x3d
   5               	__CCP__  = 0x34
   6               	__tmp_reg__ = 0
   7               	__zero_reg__ = 1
  15               	.Ltext0:
  16               	.global	wait
  18               	wait:
  19               	.LFB5:
  20               	.LM1:
  21               	/* prologue: function */
  22               	/* frame size = 0 */
  23               	/* epilogue start */
  24               	.LM2:
  25 0000 0895      		ret
  26               	.LFE5:
  28               	.global	lcd_send_data
  30               	lcd_send_data:
  31               	.LFB6:
  32               	.LM3:
  33               	.LVL0:
  34               	/* prologue: function */
  35               	/* frame size = 0 */
  36               	.LM4:
  37 0002 C298      		cbi 56-32,2
  38               	.LM5:
  39 0004 C19A      		sbi 56-32,1
  40               	.LM6:
  41 0006 8FB9      		out 47-32,r24
  42               	.L4:
  43               	.LM7:
  44 0008 779B      		sbis 46-32,7
  45 000a 00C0      		rjmp .L4
  46               	.LM8:
  47 000c C29A      		sbi 56-32,2
  48               	/* epilogue start */
  49               	.LM9:
  50 000e 0895      		ret
  51               	.LFE6:
  53               	.global	lcd_send_cmd
  55               	lcd_send_cmd:
  56               	.LFB7:
  57               	.LM10:
  58               	.LVL1:
  59               	/* prologue: function */
  60               	/* frame size = 0 */
  61               	.LM11:
  62 0010 C298      		cbi 56-32,2
  63               	.LM12:
  64 0012 C198      		cbi 56-32,1
  65               	.LM13:
  66 0014 8FB9      		out 47-32,r24
  67               	.L8:
  68               	.LM14:
  69 0016 779B      		sbis 46-32,7
  70 0018 00C0      		rjmp .L8
  71               	.LM15:
  72 001a C29A      		sbi 56-32,2
  73               	/* epilogue start */
  74               	.LM16:
  75 001c 0895      		ret
  76               	.LFE7:
  78               	.global	lcd_update
  80               	lcd_update:
  81               	.LFB9:
  82               	.LM17:
  83 001e 0F93      		push r16
  84 0020 1F93      		push r17
  85 0022 CF93      		push r28
  86 0024 DF93      		push r29
  87               	/* prologue: function */
  88               	/* frame size = 0 */
  89               	.LM18:
  90 0026 8091 0000 		lds r24,LWM
  91 002a 9091 0000 		lds r25,(LWM)+1
  92 002e 97FF      		sbrs r25,7
  93 0030 00C0      		rjmp .L12
  94 0032 1092 0000 		sts (LWM)+1,__zero_reg__
  95 0036 1092 0000 		sts LWM,__zero_reg__
  96 003a 00C0      		rjmp .L13
  97               	.L12:
  98               	.LM19:
  99 003c 885F      		subi r24,lo8(504)
 100 003e 9140      		sbci r25,hi8(504)
 101 0040 04F0      		brlt .L13
 102 0042 87EF      		ldi r24,lo8(503)
 103 0044 91E0      		ldi r25,hi8(503)
 104 0046 9093 0000 		sts (LWM)+1,r25
 105 004a 8093 0000 		sts LWM,r24
 106               	.L13:
 107               	.LM20:
 108 004e 8091 0000 		lds r24,HWM
 109 0052 9091 0000 		lds r25,(HWM)+1
 110 0056 97FF      		sbrs r25,7
 111 0058 00C0      		rjmp .L14
 112 005a 1092 0000 		sts (HWM)+1,__zero_reg__
 113 005e 1092 0000 		sts HWM,__zero_reg__
 114 0062 00C0      		rjmp .L15
 115               	.L14:
 116               	.LM21:
 117 0064 885F      		subi r24,lo8(504)
 118 0066 9140      		sbci r25,hi8(504)
 119 0068 04F0      		brlt .L15
 120 006a 87EF      		ldi r24,lo8(503)
 121 006c 91E0      		ldi r25,hi8(503)
 122 006e 9093 0000 		sts (HWM)+1,r25
 123 0072 8093 0000 		sts HWM,r24
 124               	.L15:
 125               	.LM22:
 126 0076 8091 0000 		lds r24,LWM
 127 007a 9091 0000 		lds r25,(LWM)+1
 128 007e 64E5      		ldi r22,lo8(84)
 129 0080 70E0      		ldi r23,hi8(84)
 130 0082 00D0      		rcall __divmodhi4
 131 0084 8068      		ori r24,lo8(-128)
 132 0086 00D0      		rcall lcd_send_cmd
 133               	.LM23:
 134 0088 8091 0000 		lds r24,LWM
 135 008c 9091 0000 		lds r25,(LWM)+1
 136 0090 64E5      		ldi r22,lo8(84)
 137 0092 70E0      		ldi r23,hi8(84)
 138 0094 00D0      		rcall __divmodhi4
 139 0096 862F      		mov r24,r22
 140 0098 8064      		ori r24,lo8(64)
 141 009a 00D0      		rcall lcd_send_cmd
 142               	.LM24:
 143 009c C091 0000 		lds r28,LWM
 144 00a0 D091 0000 		lds r29,(LWM)+1
 145               	.LVL2:
 146 00a4 8E01      		movw r16,r28
 147 00a6 0050      		subi r16,lo8(-(LCD_CACHE))
 148 00a8 1040      		sbci r17,hi8(-(LCD_CACHE))
 149 00aa 00C0      		rjmp .L16
 150               	.L17:
 151               	.LM25:
 152 00ac F801      		movw r30,r16
 153 00ae 8191      		ld r24,Z+
 154 00b0 8F01      		movw r16,r30
 155 00b2 00D0      		rcall lcd_send_data
 156               	.LM26:
 157 00b4 2196      		adiw r28,1
 158               	.L16:
 159 00b6 8091 0000 		lds r24,HWM
 160 00ba 9091 0000 		lds r25,(HWM)+1
 161 00be 8C17      		cp r24,r28
 162 00c0 9D07      		cpc r25,r29
 163 00c2 04F4      		brge .L17
 164               	.LM27:
 165 00c4 87EF      		ldi r24,lo8(503)
 166 00c6 91E0      		ldi r25,hi8(503)
 167 00c8 9093 0000 		sts (LWM)+1,r25
 168 00cc 8093 0000 		sts LWM,r24
 169               	.LM28:
 170 00d0 1092 0000 		sts (HWM)+1,__zero_reg__
 171 00d4 1092 0000 		sts HWM,__zero_reg__
 172               	/* epilogue start */
 173               	.LM29:
 174 00d8 DF91      		pop r29
 175 00da CF91      		pop r28
 176               	.LVL3:
 177 00dc 1F91      		pop r17
 178 00de 0F91      		pop r16
 179 00e0 0895      		ret
 180               	.LFE9:
 182               	.global	lcd_pixel
 184               	lcd_pixel:
 185               	.LFB11:
 186               	.LM30:
 187               	.LVL4:
 188               	/* prologue: function */
 189               	/* frame size = 0 */
 190 00e2 582F      		mov r21,r24
 191               	.LM31:
 192 00e4 8435      		cpi r24,lo8(84)
 193 00e6 00F0      		brlo .+2
 194 00e8 00C0      		rjmp .L25
 195 00ea 6033      		cpi r22,lo8(48)
 196 00ec 00F0      		brlo .+2
 197 00ee 00C0      		rjmp .L25
 198               	.LM32:
 199 00f0 862F      		mov r24,r22
 200               	.LVL5:
 201 00f2 8695      		lsr r24
 202 00f4 8695      		lsr r24
 203 00f6 8695      		lsr r24
 204 00f8 90E0      		ldi r25,lo8(0)
 205 00fa 24E5      		ldi r18,lo8(84)
 206 00fc 30E0      		ldi r19,hi8(84)
 207 00fe 829F      		mul r24,r18
 208 0100 D001      		movw r26,r0
 209 0102 839F      		mul r24,r19
 210 0104 B00D      		add r27,r0
 211 0106 929F      		mul r25,r18
 212 0108 B00D      		add r27,r0
 213 010a 1124      		clr r1
 214               	.LVL6:
 215 010c A50F      		add r26,r21
 216 010e B11D      		adc r27,__zero_reg__
 217               	.LM33:
 218 0110 23E0      		ldi r18,3
 219 0112 880F      	1:	lsl r24
 220 0114 991F      		rol r25
 221 0116 2A95      		dec r18
 222 0118 01F4      		brne 1b
 223 011a 681B      		sub r22,r24
 224               	.LVL7:
 225               	.LM34:
 226 011c FD01      		movw r30,r26
 227 011e E050      		subi r30,lo8(-(LCD_CACHE))
 228 0120 F040      		sbci r31,hi8(-(LCD_CACHE))
 229 0122 2081      		ld r18,Z
 230               	.LVL8:
 231               	.LM35:
 232 0124 4130      		cpi r20,lo8(1)
 233 0126 01F4      		brne .L21
 234               	.LM36:
 235 0128 81E0      		ldi r24,lo8(1)
 236 012a 90E0      		ldi r25,hi8(1)
 237 012c 00C0      		rjmp 2f
 238 012e 880F      	1:	lsl r24
 239 0130 991F      		rol r25
 240 0132 6A95      	2:	dec r22
 241 0134 02F4      		brpl 1b
 242 0136 282B      		or r18,r24
 243 0138 00C0      		rjmp .L22
 244               	.L21:
 245               	.LM37:
 246 013a 4423      		tst r20
 247 013c 01F4      		brne .L23
 248               	.LM38:
 249 013e 81E0      		ldi r24,lo8(1)
 250 0140 90E0      		ldi r25,hi8(1)
 251 0142 00C0      		rjmp 2f
 252 0144 880F      	1:	lsl r24
 253 0146 991F      		rol r25
 254 0148 6A95      	2:	dec r22
 255 014a 02F4      		brpl 1b
 256 014c 8095      		com r24
 257 014e 2823      		and r18,r24
 258 0150 00C0      		rjmp .L22
 259               	.L23:
 260               	.LM39:
 261 0152 4230      		cpi r20,lo8(2)
 262 0154 01F4      		brne .L22
 263               	.LM40:
 264 0156 81E0      		ldi r24,lo8(1)
 265 0158 90E0      		ldi r25,hi8(1)
 266 015a 00C0      		rjmp 2f
 267 015c 880F      	1:	lsl r24
 268 015e 991F      		rol r25
 269 0160 6A95      	2:	dec r22
 270 0162 02F4      		brpl 1b
 271 0164 2827      		eor r18,r24
 272               	.L22:
 273               	.LM41:
 274 0166 FD01      		movw r30,r26
 275 0168 E050      		subi r30,lo8(-(LCD_CACHE))
 276 016a F040      		sbci r31,hi8(-(LCD_CACHE))
 277 016c 2083      		st Z,r18
 278               	.LM42:
 279 016e 8091 0000 		lds r24,LWM
 280 0172 9091 0000 		lds r25,(LWM)+1
 281 0176 A817      		cp r26,r24
 282 0178 B907      		cpc r27,r25
 283 017a 04F4      		brge .L24
 284               	.LM43:
 285 017c B093 0000 		sts (LWM)+1,r27
 286 0180 A093 0000 		sts LWM,r26
 287               	.L24:
 288               	.LM44:
 289 0184 8091 0000 		lds r24,HWM
 290 0188 9091 0000 		lds r25,(HWM)+1
 291 018c 8A17      		cp r24,r26
 292 018e 9B07      		cpc r25,r27
 293 0190 04F4      		brge .L25
 294               	.LM45:
 295 0192 B093 0000 		sts (HWM)+1,r27
 296 0196 A093 0000 		sts HWM,r26
 297               	.LVL9:
 298               	.L25:
 299 019a 0895      		ret
 300               	.LFE11:
 302               	.global	min
 304               	min:
 305               	.LFB12:
 306               	.LM46:
 307               	.LVL10:
 308               	/* prologue: function */
 309               	/* frame size = 0 */
 310 019c AC01      		movw r20,r24
 311               	.LM47:
 312 019e 9B01      		movw r18,r22
 313 01a0 4617      		cp r20,r22
 314 01a2 5707      		cpc r21,r23
 315 01a4 04F4      		brge .L27
 316               	.LVL11:
 317 01a6 9A01      		movw r18,r20
 318               	.LVL12:
 319               	.L27:
 320               	.LM48:
 321 01a8 C901      		movw r24,r18
 322               	.LVL13:
 323               	/* epilogue start */
 324 01aa 0895      		ret
 325               	.LFE12:
 327               	.global	max
 329               	max:
 330               	.LFB13:
 331               	.LM49:
 332               	.LVL14:
 333               	/* prologue: function */
 334               	/* frame size = 0 */
 335 01ac AC01      		movw r20,r24
 336               	.LM50:
 337 01ae 9B01      		movw r18,r22
 338 01b0 6417      		cp r22,r20
 339 01b2 7507      		cpc r23,r21
 340 01b4 04F4      		brge .L30
 341               	.LVL15:
 342 01b6 9A01      		movw r18,r20
 343               	.LVL16:
 344               	.L30:
 345               	.LM51:
 346 01b8 C901      		movw r24,r18
 347               	.LVL17:
 348               	/* epilogue start */
 349 01ba 0895      		ret
 350               	.LFE13:
 352               	.global	lcd_h_line
 354               	lcd_h_line:
 355               	.LFB14:
 356               	.LM52:
 357               	.LVL18:
 358 01bc DF92      		push r13
 359 01be EF92      		push r14
 360 01c0 FF92      		push r15
 361 01c2 0F93      		push r16
 362 01c4 1F93      		push r17
 363 01c6 CF93      		push r28
 364 01c8 DF93      		push r29
 365               	/* prologue: function */
 366               	/* frame size = 0 */
 367 01ca D62E      		mov r13,r22
 368 01cc F42E      		mov r15,r20
 369 01ce E22E      		mov r14,r18
 370               	.LBB176:
 371               	.LM53:
 372 01d0 082F      		mov r16,r24
 373               	.LVL19:
 374 01d2 10E0      		ldi r17,lo8(0)
 375               	.LVL20:
 376 01d4 842F      		mov r24,r20
 377               	.LVL21:
 378 01d6 90E0      		ldi r25,lo8(0)
 379               	.LVL22:
 380 01d8 9C01      		movw r18,r24
 381               	.LVL23:
 382 01da E901      		movw r28,r18
 383               	.LVL24:
 384 01dc 0217      		cp r16,r18
 385 01de 1307      		cpc r17,r19
 386 01e0 04F4      		brge .L38
 387               	.LVL25:
 388 01e2 E801      		movw r28,r16
 389 01e4 00C0      		rjmp .L38
 390               	.LVL26:
 391               	.L35:
 392 01e6 8C2F      		mov r24,r28
 393 01e8 6D2D      		mov r22,r13
 394 01ea 4E2D      		mov r20,r14
 395 01ec 00D0      		rcall lcd_pixel
 396               	.LVL27:
 397 01ee 2196      		adiw r28,1
 398               	.LVL28:
 399               	.L38:
 400 01f0 8F2D      		mov r24,r15
 401               	.LVL29:
 402 01f2 90E0      		ldi r25,lo8(0)
 403               	.LVL30:
 404 01f4 9C01      		movw r18,r24
 405               	.LVL31:
 406 01f6 2017      		cp r18,r16
 407 01f8 3107      		cpc r19,r17
 408               	.LVL32:
 409 01fa 04F4      		brge .L36
 410               	.LVL33:
 411 01fc 9801      		movw r18,r16
 412               	.L36:
 413 01fe 2C17      		cp r18,r28
 414 0200 3D07      		cpc r19,r29
 415 0202 04F4      		brge .L35
 416               	.LVL34:
 417               	/* epilogue start */
 418               	.LBE176:
 419               	.LM54:
 420 0204 DF91      		pop r29
 421 0206 CF91      		pop r28
 422 0208 1F91      		pop r17
 423 020a 0F91      		pop r16
 424 020c FF90      		pop r15
 425               	.LVL35:
 426 020e EF90      		pop r14
 427               	.LVL36:
 428 0210 DF90      		pop r13
 429               	.LVL37:
 430 0212 0895      		ret
 431               	.LFE14:
 433               	.global	lcd_v_line
 435               	lcd_v_line:
 436               	.LFB15:
 437               	.LM55:
 438               	.LVL38:
 439 0214 DF92      		push r13
 440 0216 EF92      		push r14
 441 0218 FF92      		push r15
 442 021a 0F93      		push r16
 443 021c 1F93      		push r17
 444 021e CF93      		push r28
 445 0220 DF93      		push r29
 446               	/* prologue: function */
 447               	/* frame size = 0 */
 448 0222 D82E      		mov r13,r24
 449 0224 F42E      		mov r15,r20
 450 0226 E22E      		mov r14,r18
 451               	.LBB177:
 452               	.LM56:
 453 0228 062F      		mov r16,r22
 454               	.LVL39:
 455 022a 10E0      		ldi r17,lo8(0)
 456               	.LVL40:
 457 022c 242F      		mov r18,r20
 458               	.LVL41:
 459 022e 30E0      		ldi r19,lo8(0)
 460               	.LVL42:
 461 0230 C901      		movw r24,r18
 462               	.LVL43:
 463 0232 EC01      		movw r28,r24
 464               	.LVL44:
 465 0234 0817      		cp r16,r24
 466 0236 1907      		cpc r17,r25
 467 0238 04F4      		brge .L45
 468               	.LVL45:
 469 023a E801      		movw r28,r16
 470 023c 00C0      		rjmp .L45
 471               	.LVL46:
 472               	.L42:
 473 023e 8D2D      		mov r24,r13
 474 0240 6C2F      		mov r22,r28
 475               	.LVL47:
 476 0242 4E2D      		mov r20,r14
 477 0244 00D0      		rcall lcd_pixel
 478               	.LVL48:
 479 0246 2196      		adiw r28,1
 480               	.LVL49:
 481               	.L45:
 482 0248 8F2D      		mov r24,r15
 483               	.LVL50:
 484 024a 90E0      		ldi r25,lo8(0)
 485               	.LVL51:
 486 024c 9C01      		movw r18,r24
 487               	.LVL52:
 488 024e 2017      		cp r18,r16
 489 0250 3107      		cpc r19,r17
 490               	.LVL53:
 491 0252 04F4      		brge .L43
 492               	.LVL54:
 493 0254 9801      		movw r18,r16
 494               	.L43:
 495 0256 2C17      		cp r18,r28
 496 0258 3D07      		cpc r19,r29
 497 025a 04F4      		brge .L42
 498               	.LVL55:
 499               	/* epilogue start */
 500               	.LBE177:
 501               	.LM57:
 502 025c DF91      		pop r29
 503 025e CF91      		pop r28
 504 0260 1F91      		pop r17
 505 0262 0F91      		pop r16
 506 0264 FF90      		pop r15
 507               	.LVL56:
 508 0266 EF90      		pop r14
 509               	.LVL57:
 510 0268 DF90      		pop r13
 511               	.LVL58:
 512 026a 0895      		ret
 513               	.LFE15:
 515               	.global	lcd_line
 517               	lcd_line:
 518               	.LFB16:
 519               	.LM58:
 520               	.LVL59:
 521 026c 3F92      		push r3
 522 026e 4F92      		push r4
 523 0270 5F92      		push r5
 524 0272 6F92      		push r6
 525 0274 7F92      		push r7
 526 0276 8F92      		push r8
 527 0278 9F92      		push r9
 528 027a AF92      		push r10
 529 027c BF92      		push r11
 530 027e CF92      		push r12
 531 0280 DF92      		push r13
 532 0282 EF92      		push r14
 533 0284 FF92      		push r15
 534 0286 0F93      		push r16
 535               	.LVL60:
 536 0288 1F93      		push r17
 537 028a CF93      		push r28
 538 028c DF93      		push r29
 539               	/* prologue: function */
 540               	/* frame size = 0 */
 541 028e 982E      		mov r9,r24
 542 0290 862E      		mov r8,r22
 543 0292 442E      		mov r4,r20
 544 0294 522E      		mov r5,r18
 545 0296 302E      		mov r3,r16
 546               	.LVL61:
 547               	.LM59:
 548 0298 8417      		cp r24,r20
 549 029a 01F4      		brne .L47
 550               	.LVL62:
 551               	.LM60:
 552 029c 422F      		mov r20,r18
 553               	.LVL63:
 554 029e 202F      		mov r18,r16
 555 02a0 00D0      		rcall lcd_v_line
 556               	.LVL64:
 557 02a2 00C0      		rjmp .L59
 558               	.LVL65:
 559               	.L47:
 560               	.LM61:
 561 02a4 6217      		cp r22,r18
 562 02a6 01F4      		brne .L49
 563               	.LVL66:
 564               	.LM62:
 565 02a8 202F      		mov r18,r16
 566               	.LVL67:
 567 02aa 00D0      		rcall lcd_h_line
 568               	.LVL68:
 569 02ac 00C0      		rjmp .L59
 570               	.LVL69:
 571               	.L49:
 572               	.LM63:
 573 02ae 30E0      		ldi r19,lo8(0)
 574               	.LVL70:
 575 02b0 261B      		sub r18,r22
 576 02b2 3109      		sbc r19,__zero_reg__
 577               	.LVL71:
 578               	.LM64:
 579 02b4 842F      		mov r24,r20
 580               	.LVL72:
 581 02b6 90E0      		ldi r25,lo8(0)
 582               	.LVL73:
 583 02b8 8919      		sub r24,r9
 584 02ba 9109      		sbc r25,__zero_reg__
 585               	.LVL74:
 586               	.LM65:
 587 02bc 37FD      		sbrc r19,7
 588 02be 00C0      		rjmp .L50
 589 02c0 E1E0      		ldi r30,lo8(1)
 590 02c2 6E2E      		mov r6,r30
 591 02c4 712C      		mov r7,__zero_reg__
 592               	.LVL75:
 593 02c6 00C0      		rjmp .L51
 594               	.LVL76:
 595               	.L50:
 596               	.LM66:
 597 02c8 3095      		com r19
 598 02ca 2195      		neg r18
 599 02cc 3F4F      		sbci r19,lo8(-1)
 600 02ce 6624      		clr r6
 601 02d0 6A94      		dec r6
 602 02d2 762C      		mov r7,r6
 603               	.LVL77:
 604               	.L51:
 605               	.LM67:
 606 02d4 97FD      		sbrc r25,7
 607 02d6 00C0      		rjmp .L52
 608 02d8 71E0      		ldi r23,lo8(1)
 609 02da A72E      		mov r10,r23
 610 02dc B12C      		mov r11,__zero_reg__
 611               	.LVL78:
 612 02de 00C0      		rjmp .L53
 613               	.LVL79:
 614               	.L52:
 615               	.LM68:
 616 02e0 9095      		com r25
 617 02e2 8195      		neg r24
 618 02e4 9F4F      		sbci r25,lo8(-1)
 619 02e6 AA24      		clr r10
 620 02e8 AA94      		dec r10
 621 02ea BA2C      		mov r11,r10
 622               	.LVL80:
 623               	.L53:
 624               	.LM69:
 625 02ec 6C01      		movw r12,r24
 626 02ee CC0C      		lsl r12
 627 02f0 DD1C      		rol r13
 628               	.LVL81:
 629               	.LM70:
 630 02f2 7901      		movw r14,r18
 631 02f4 EE0C      		lsl r14
 632 02f6 FF1C      		rol r15
 633               	.LVL82:
 634               	.LM71:
 635 02f8 EC14      		cp r14,r12
 636 02fa FD04      		cpc r15,r13
 637 02fc 04F4      		brge .L54
 638               	.LM72:
 639 02fe C601      		movw r24,r12
 640 0300 9595      		asr r25
 641 0302 8795      		ror r24
 642               	.LVL83:
 643 0304 E701      		movw r28,r14
 644               	.LVL84:
 645 0306 C81B      		sub r28,r24
 646 0308 D90B      		sbc r29,r25
 647 030a BA2C      		mov r11,r10
 648 030c 1A2D      		mov r17,r10
 649               	.LVL85:
 650 030e 190D      		add r17,r9
 651               	.L56:
 652               	.LM73:
 653 0310 D7FD      		sbrc r29,7
 654 0312 00C0      		rjmp .L55
 655               	.LM74:
 656 0314 860C      		add r8,r6
 657               	.LM75:
 658 0316 CC19      		sub r28,r12
 659 0318 DD09      		sbc r29,r13
 660               	.L55:
 661               	.LM76:
 662 031a 812F      		mov r24,r17
 663 031c 682D      		mov r22,r8
 664 031e 432D      		mov r20,r3
 665 0320 00D0      		rcall lcd_pixel
 666               	.LVL86:
 667 0322 1B0D      		add r17,r11
 668               	.LM77:
 669 0324 812F      		mov r24,r17
 670 0326 8B19      		sub r24,r11
 671 0328 8415      		cp r24,r4
 672 032a 01F0      		breq .L59
 673               	.LM78:
 674 032c CE0D      		add r28,r14
 675 032e DF1D      		adc r29,r15
 676 0330 00C0      		rjmp .L56
 677               	.LVL87:
 678               	.L54:
 679               	.LM79:
 680 0332 C701      		movw r24,r14
 681 0334 9595      		asr r25
 682 0336 8795      		ror r24
 683               	.LVL88:
 684 0338 E601      		movw r28,r12
 685               	.LVL89:
 686 033a C81B      		sub r28,r24
 687 033c D90B      		sbc r29,r25
 688 033e 062D      		mov r16,r6
 689 0340 162D      		mov r17,r6
 690               	.LVL90:
 691 0342 180D      		add r17,r8
 692               	.LVL91:
 693               	.L58:
 694               	.LM80:
 695 0344 D7FD      		sbrc r29,7
 696 0346 00C0      		rjmp .L57
 697               	.LVL92:
 698               	.LM81:
 699 0348 9A0C      		add r9,r10
 700               	.LM82:
 701 034a CE19      		sub r28,r14
 702 034c DF09      		sbc r29,r15
 703               	.L57:
 704               	.LM83:
 705 034e 892D      		mov r24,r9
 706 0350 612F      		mov r22,r17
 707 0352 432D      		mov r20,r3
 708               	.LVL93:
 709 0354 00D0      		rcall lcd_pixel
 710               	.LVL94:
 711 0356 100F      		add r17,r16
 712               	.LM84:
 713 0358 812F      		mov r24,r17
 714 035a 801B      		sub r24,r16
 715 035c 8515      		cp r24,r5
 716 035e 01F0      		breq .L59
 717               	.LM85:
 718 0360 CC0D      		add r28,r12
 719 0362 DD1D      		adc r29,r13
 720 0364 00C0      		rjmp .L58
 721               	.LVL95:
 722               	.L59:
 723               	/* epilogue start */
 724               	.LM86:
 725 0366 DF91      		pop r29
 726 0368 CF91      		pop r28
 727               	.LVL96:
 728 036a 1F91      		pop r17
 729 036c 0F91      		pop r16
 730 036e FF90      		pop r15
 731 0370 EF90      		pop r14
 732               	.LVL97:
 733 0372 DF90      		pop r13
 734 0374 CF90      		pop r12
 735               	.LVL98:
 736 0376 BF90      		pop r11
 737 0378 AF90      		pop r10
 738               	.LVL99:
 739 037a 9F90      		pop r9
 740               	.LVL100:
 741 037c 8F90      		pop r8
 742               	.LVL101:
 743 037e 7F90      		pop r7
 744 0380 6F90      		pop r6
 745               	.LVL102:
 746 0382 5F90      		pop r5
 747               	.LVL103:
 748 0384 4F90      		pop r4
 749               	.LVL104:
 750 0386 3F90      		pop r3
 751               	.LVL105:
 752 0388 0895      		ret
 753               	.LFE16:
 755               	.global	lcd_draw_v2
 757               	lcd_draw_v2:
 758               	.LFB19:
 759               	.LM87:
 760               	.LVL106:
 761 038a 4F92      		push r4
 762 038c 5F92      		push r5
 763 038e 6F92      		push r6
 764 0390 7F92      		push r7
 765 0392 8F92      		push r8
 766 0394 9F92      		push r9
 767 0396 AF92      		push r10
 768 0398 BF92      		push r11
 769 039a CF92      		push r12
 770 039c DF92      		push r13
 771 039e EF92      		push r14
 772               	.LVL107:
 773 03a0 FF92      		push r15
 774 03a2 0F93      		push r16
 775               	.LVL108:
 776 03a4 1F93      		push r17
 777 03a6 CF93      		push r28
 778 03a8 DF93      		push r29
 779               	/* prologue: function */
 780               	/* frame size = 0 */
 781 03aa 4C01      		movw r8,r24
 782 03ac 462E      		mov r4,r22
 783 03ae 542E      		mov r5,r20
 784 03b0 722E      		mov r7,r18
 785 03b2 6E2C      		mov r6,r14
 786               	.LVL109:
 787               	.LM88:
 788 03b4 EE24      		clr r14
 789 03b6 FF24      		clr r15
 790               	.LVL110:
 791 03b8 10E0      		ldi r17,lo8(0)
 792               	.LBB178:
 793               	.LM89:
 794 03ba A02E      		mov r10,r16
 795               	.LVL111:
 796 03bc BB24      		clr r11
 797               	.LVL112:
 798               	.LBB179:
 799               	.LM90:
 800 03be C22E      		mov r12,r18
 801 03c0 DD24      		clr r13
 802 03c2 00C0      		rjmp .L61
 803               	.LVL113:
 804               	.L63:
 805               	.LBE179:
 806               	.LBE178:
 807               	.LM91:
 808 03c4 2C2F      		mov r18,r28
 809               	.LVL114:
 810 03c6 210F      		add r18,r17
 811               	.LBB184:
 812               	.LBB182:
 813               	.LBB180:
 814               	.LM92:
 815 03c8 822F      		mov r24,r18
 816 03ca 8695      		lsr r24
 817 03cc 8695      		lsr r24
 818 03ce 8695      		lsr r24
 819 03d0 F401      		movw r30,r8
 820 03d2 E80F      		add r30,r24
 821 03d4 F11D      		adc r31,__zero_reg__
 822 03d6 8081      		ld r24,Z
 823 03d8 90E0      		ldi r25,lo8(0)
 824 03da 2770      		andi r18,lo8(7)
 825 03dc 00C0      		rjmp 2f
 826 03de 9595      	1:	asr r25
 827 03e0 8795      		ror r24
 828 03e2 2A95      	2:	dec r18
 829 03e4 02F4      		brpl 1b
 830 03e6 80FF      		sbrs r24,0
 831 03e8 00C0      		rjmp .L62
 832 03ea 8C2F      		mov r24,r28
 833 03ec 840D      		add r24,r4
 834 03ee 602F      		mov r22,r16
 835 03f0 462D      		mov r20,r6
 836 03f2 00D0      		rcall lcd_pixel
 837               	.LVL115:
 838               	.L62:
 839               	.LBE180:
 840               	.LM93:
 841 03f4 2196      		adiw r28,1
 842               	.LVL116:
 843               	.L65:
 844 03f6 CC15      		cp r28,r12
 845 03f8 DD05      		cpc r29,r13
 846 03fa 04F0      		brlt .L63
 847               	.LBE182:
 848               	.LM94:
 849 03fc 0894      		sec
 850 03fe E11C      		adc r14,__zero_reg__
 851 0400 F11C      		adc r15,__zero_reg__
 852 0402 170D      		add r17,r7
 853               	.LVL117:
 854               	.L61:
 855 0404 EA14      		cp r14,r10
 856 0406 FB04      		cpc r15,r11
 857 0408 04F4      		brge .L66
 858               	.LBB183:
 859               	.LM95:
 860 040a C0E0      		ldi r28,lo8(0)
 861 040c D0E0      		ldi r29,hi8(0)
 862               	.LBB181:
 863               	.LM96:
 864 040e 052D      		mov r16,r5
 865 0410 0E0D      		add r16,r14
 866 0412 00C0      		rjmp .L65
 867               	.LVL118:
 868               	.L66:
 869               	/* epilogue start */
 870               	.LBE181:
 871               	.LBE183:
 872               	.LBE184:
 873               	.LM97:
 874 0414 DF91      		pop r29
 875 0416 CF91      		pop r28
 876               	.LVL119:
 877 0418 1F91      		pop r17
 878 041a 0F91      		pop r16
 879 041c FF90      		pop r15
 880 041e EF90      		pop r14
 881               	.LVL120:
 882 0420 DF90      		pop r13
 883 0422 CF90      		pop r12
 884 0424 BF90      		pop r11
 885               	.LVL121:
 886 0426 AF90      		pop r10
 887               	.LVL122:
 888 0428 9F90      		pop r9
 889 042a 8F90      		pop r8
 890               	.LVL123:
 891 042c 7F90      		pop r7
 892               	.LVL124:
 893 042e 6F90      		pop r6
 894               	.LVL125:
 895 0430 5F90      		pop r5
 896               	.LVL126:
 897 0432 4F90      		pop r4
 898               	.LVL127:
 899 0434 0895      		ret
 900               	.LFE19:
 902               	.global	lcd_draw
 904               	lcd_draw:
 905               	.LFB20:
 906               	.LM98:
 907               	.LVL128:
 908 0436 4F92      		push r4
 909 0438 5F92      		push r5
 910 043a 6F92      		push r6
 911 043c 7F92      		push r7
 912 043e 8F92      		push r8
 913 0440 9F92      		push r9
 914 0442 AF92      		push r10
 915 0444 BF92      		push r11
 916 0446 CF92      		push r12
 917 0448 DF92      		push r13
 918 044a EF92      		push r14
 919               	.LVL129:
 920 044c FF92      		push r15
 921 044e 0F93      		push r16
 922               	.LVL130:
 923 0450 1F93      		push r17
 924 0452 CF93      		push r28
 925 0454 DF93      		push r29
 926               	/* prologue: function */
 927               	/* frame size = 0 */
 928 0456 3C01      		movw r6,r24
 929 0458 462E      		mov r4,r22
 930 045a 542E      		mov r5,r20
 931 045c 8E2C      		mov r8,r14
 932               	.LVL131:
 933               	.LM99:
 934 045e EE24      		clr r14
 935 0460 FF24      		clr r15
 936               	.LVL132:
 937               	.LBB185:
 938               	.LM100:
 939 0462 C22E      		mov r12,r18
 940 0464 DD24      		clr r13
 941               	.LBB186:
 942               	.LM101:
 943 0466 A02E      		mov r10,r16
 944               	.LVL133:
 945 0468 BB24      		clr r11
 946               	.LVL134:
 947 046a 00C0      		rjmp .L68
 948               	.LVL135:
 949               	.L70:
 950               	.LM102:
 951 046c F801      		movw r30,r16
 952 046e 8081      		ld r24,Z
 953 0470 80FF      		sbrs r24,0
 954 0472 00C0      		rjmp .L69
 955 0474 652D      		mov r22,r5
 956 0476 6C0F      		add r22,r28
 957 0478 892D      		mov r24,r9
 958 047a 482D      		mov r20,r8
 959 047c 00D0      		rcall lcd_pixel
 960               	.LVL136:
 961               	.L69:
 962               	.LM103:
 963 047e 2196      		adiw r28,1
 964 0480 0C0D      		add r16,r12
 965 0482 1D1D      		adc r17,r13
 966               	.LVL137:
 967               	.L72:
 968 0484 CA15      		cp r28,r10
 969 0486 DB05      		cpc r29,r11
 970 0488 04F0      		brlt .L70
 971               	.LBE186:
 972               	.LM104:
 973 048a 0894      		sec
 974 048c E11C      		adc r14,__zero_reg__
 975 048e F11C      		adc r15,__zero_reg__
 976               	.LVL138:
 977               	.L68:
 978 0490 EC14      		cp r14,r12
 979 0492 FD04      		cpc r15,r13
 980 0494 04F4      		brge .L73
 981 0496 8301      		movw r16,r6
 982 0498 0E0D      		add r16,r14
 983 049a 1F1D      		adc r17,r15
 984 049c C0E0      		ldi r28,lo8(0)
 985 049e D0E0      		ldi r29,hi8(0)
 986               	.LBB187:
 987               	.LM105:
 988 04a0 942C      		mov r9,r4
 989 04a2 9E0C      		add r9,r14
 990 04a4 00C0      		rjmp .L72
 991               	.LVL139:
 992               	.L73:
 993               	/* epilogue start */
 994               	.LBE187:
 995               	.LBE185:
 996               	.LM106:
 997 04a6 DF91      		pop r29
 998 04a8 CF91      		pop r28
 999               	.LVL140:
 1000 04aa 1F91      		pop r17
 1001 04ac 0F91      		pop r16
 1002 04ae FF90      		pop r15
 1003 04b0 EF90      		pop r14
 1004               	.LVL141:
 1005 04b2 DF90      		pop r13
 1006 04b4 CF90      		pop r12
 1007 04b6 BF90      		pop r11
 1008               	.LVL142:
 1009 04b8 AF90      		pop r10
 1010               	.LVL143:
 1011 04ba 9F90      		pop r9
 1012 04bc 8F90      		pop r8
 1013               	.LVL144:
 1014 04be 7F90      		pop r7
 1015 04c0 6F90      		pop r6
 1016               	.LVL145:
 1017 04c2 5F90      		pop r5
 1018               	.LVL146:
 1019 04c4 4F90      		pop r4
 1020               	.LVL147:
 1021 04c6 0895      		ret
 1022               	.LFE20:
 1024               	.global	dt_test
 1026               	dt_test:
 1027               	.LFB25:
 1028               	.LM107:
 1029               	/* prologue: function */
 1030               	/* frame size = 0 */
 1031               	.LM108:
 1032 04c8 9FB7      		in r25,__SREG__
 1033               	.LVL148:
 1034               	.LM109:
 1035               	/* #APP */
 1036               	 ;  20 "include/dt.h" 1
 1037 04ca F894      		cli
 1038               	 ;  0 "" 2
 1039               	.LM110:
 1040               	/* #NOAPP */
 1041 04cc 899A      		sbi 49-32,1
 1042               	.LBB188:
 1043               	.LBB189:
 1044               	.LBB190:
 1045               	.LBB191:
 1046               	.LBB192:
 1047               	.LBB193:
 1048               	.LM111:
 1049 04ce E8EE      		ldi r30,lo8(1000)
 1050 04d0 F3E0      		ldi r31,hi8(1000)
 1051               	.LVL149:
 1052               	/* #APP */
 1053               	 ;  105 "c:/winavr-20100110/lib/gcc/../../avr/include/util/delay_basic.h" 1
 1054 04d2 3197      		1: sbiw r30,1
 1055 04d4 01F4      		brne 1b
 1056               	 ;  0 "" 2
 1057               	/* #NOAPP */
 1058               	.LBE193:
 1059               	.LBE192:
 1060               	.LBE191:
 1061               	.LBE190:
 1062               	.LBE189:
 1063               	.LBE188:
 1064               	.LM112:
 1065 04d6 8998      		cbi 49-32,1
 1066               	.LBB194:
 1067               	.LBB195:
 1068               	.LBB196:
 1069               	.LBB197:
 1070               	.LM113:
 1071 04d8 8AEB      		ldi r24,lo8(-70)
 1072               	.LVL150:
 1073               	/* #APP */
 1074               	 ;  83 "c:/winavr-20100110/lib/gcc/../../avr/include/util/delay_basic.h" 1
 1075 04da 8A95      		1: dec r24
 1076 04dc 01F4      		brne 1b
 1077               	 ;  0 "" 2
 1078               	/* #NOAPP */
 1079               	.LBE197:
 1080               	.LBE196:
 1081               	.LBE195:
 1082               	.LBE194:
 1083               	.LM114:
 1084 04de 80B3      		in r24,48-32
 1085               	.LVL151:
 1086               	.LM115:
 1087 04e0 9FBF      		out __SREG__,r25
 1088               	.LBB198:
 1089               	.LBB199:
 1090               	.LBB200:
 1091               	.LBB201:
 1092               	.LBB202:
 1093               	.LBB203:
 1094               	.LM116:
 1095 04e2 E8E4      		ldi r30,lo8(840)
 1096 04e4 F3E0      		ldi r31,hi8(840)
 1097               	.LVL152:
 1098               	/* #APP */
 1099               	 ;  105 "c:/winavr-20100110/lib/gcc/../../avr/include/util/delay_basic.h" 1
 1100 04e6 3197      		1: sbiw r30,1
 1101 04e8 01F4      		brne 1b
 1102               	 ;  0 "" 2
 1103               	/* #NOAPP */
 1104 04ea 8695      		lsr r24
 1105 04ec 8095      		com r24
 1106               	.LBE203:
 1107               	.LBE202:
 1108               	.LBE201:
 1109               	.LBE200:
 1110               	.LBE199:
 1111               	.LBE198:
 1112               	.LM117:
 1113 04ee 8170      		andi r24,lo8(1)
 1114               	/* epilogue start */
 1115 04f0 0895      		ret
 1116               	.LFE25:
 1118               	.global	dt_rx
 1120               	dt_rx:
 1121               	.LFB26:
 1122               	.LM118:
 1123               	/* prologue: function */
 1124               	/* frame size = 0 */
 1125               	.LM119:
 1126 04f2 2FB7      		in r18,__SREG__
 1127               	.LVL153:
 1128               	.LM120:
 1129               	/* #APP */
 1130               	 ;  38 "include/dt.h" 1
 1131 04f4 F894      		cli
 1132               	 ;  0 "" 2
 1133               	.LM121:
 1134               	/* #NOAPP */
 1135 04f6 899A      		sbi 49-32,1
 1136               	.LBB204:
 1137               	.LBB205:
 1138               	.LBB206:
 1139               	.LBB207:
 1140               	.LM122:
 1141 04f8 85E0      		ldi r24,lo8(5)
 1142               	.LVL154:
 1143               	/* #APP */
 1144               	 ;  83 "c:/winavr-20100110/lib/gcc/../../avr/include/util/delay_basic.h" 1
 1145 04fa 8A95      		1: dec r24
 1146 04fc 01F4      		brne 1b
 1147               	 ;  0 "" 2
 1148               	/* #NOAPP */
 1149               	.LBE207:
 1150               	.LBE206:
 1151               	.LBE205:
 1152               	.LBE204:
 1153               	.LM123:
 1154 04fe 8998      		cbi 49-32,1
 1155               	.LBB208:
 1156               	.LBB209:
 1157               	.LBB210:
 1158               	.LBB211:
 1159               	.LM124:
 1160 0500 85E2      		ldi r24,lo8(37)
 1161               	.LVL155:
 1162               	/* #APP */
 1163               	 ;  83 "c:/winavr-20100110/lib/gcc/../../avr/include/util/delay_basic.h" 1
 1164 0502 8A95      		1: dec r24
 1165 0504 01F4      		brne 1b
 1166               	 ;  0 "" 2
 1167               	/* #NOAPP */
 1168               	.LBE211:
 1169               	.LBE210:
 1170               	.LBE209:
 1171               	.LBE208:
 1172               	.LM125:
 1173 0506 80B3      		in r24,48-32
 1174               	.LVL156:
 1175               	.LBB212:
 1176               	.LBB213:
 1177               	.LBB214:
 1178               	.LBB215:
 1179               	.LM126:
 1180 0508 98E7      		ldi r25,lo8(120)
 1181               	.LVL157:
 1182               	/* #APP */
 1183               	 ;  83 "c:/winavr-20100110/lib/gcc/../../avr/include/util/delay_basic.h" 1
 1184 050a 9A95      		1: dec r25
 1185 050c 01F4      		brne 1b
 1186               	 ;  0 "" 2
 1187               	/* #NOAPP */
 1188               	.LBE215:
 1189               	.LBE214:
 1190               	.LBE213:
 1191               	.LBE212:
 1192               	.LM127:
 1193 050e 2FBF      		out __SREG__,r18
 1194 0510 90E0      		ldi r25,lo8(0)
 1195               	.LVL158:
 1196 0512 8270      		andi r24,lo8(2)
 1197 0514 9070      		andi r25,hi8(2)
 1198 0516 9595      		asr r25
 1199 0518 8795      		ror r24
 1200               	/* epilogue start */
 1201               	.LM128:
 1202 051a 0895      		ret
 1203               	.LFE26:
 1205               	.global	dt_rx8
 1207               	dt_rx8:
 1208               	.LFB27:
 1209               	.LM129:
 1210 051c 1F93      		push r17
 1211 051e CF93      		push r28
 1212 0520 DF93      		push r29
 1213               	/* prologue: function */
 1214               	/* frame size = 0 */
 1215               	.LM130:
 1216 0522 10E0      		ldi r17,lo8(0)
 1217               	.LVL159:
 1218 0524 C0E0      		ldi r28,lo8(0)
 1219 0526 D0E0      		ldi r29,hi8(0)
 1220               	.L79:
 1221               	.LBB216:
 1222               	.LM131:
 1223 0528 00D0      		rcall dt_rx
 1224 052a 90E0      		ldi r25,lo8(0)
 1225 052c 0C2E      		mov r0,r28
 1226 052e 00C0      		rjmp 2f
 1227 0530 880F      	1:	lsl r24
 1228 0532 991F      		rol r25
 1229 0534 0A94      	2:	dec r0
 1230 0536 02F4      		brpl 1b
 1231 0538 182B      		or r17,r24
 1232 053a 2196      		adiw r28,1
 1233 053c C830      		cpi r28,8
 1234 053e D105      		cpc r29,__zero_reg__
 1235 0540 01F4      		brne .L79
 1236               	.LBE216:
 1237               	.LM132:
 1238 0542 812F      		mov r24,r17
 1239               	/* epilogue start */
 1240 0544 DF91      		pop r29
 1241 0546 CF91      		pop r28
 1242 0548 1F91      		pop r17
 1243               	.LVL160:
 1244 054a 0895      		ret
 1245               	.LFE27:
 1247               	.global	dt_tx
 1249               	dt_tx:
 1250               	.LFB28:
 1251               	.LM133:
 1252               	.LVL161:
 1253               	/* prologue: function */
 1254               	/* frame size = 0 */
 1255               	.LM134:
 1256 054c 2FB7      		in r18,__SREG__
 1257               	.LVL162:
 1258               	.LM135:
 1259               	/* #APP */
 1260               	 ;  58 "include/dt.h" 1
 1261 054e F894      		cli
 1262               	 ;  0 "" 2
 1263               	.LM136:
 1264               	/* #NOAPP */
 1265 0550 899A      		sbi 49-32,1
 1266               	.LBB217:
 1267               	.LBB218:
 1268               	.LBB219:
 1269               	.LBB220:
 1270               	.LM137:
 1271 0552 95E0      		ldi r25,lo8(5)
 1272               	.LVL163:
 1273               	/* #APP */
 1274               	 ;  83 "c:/winavr-20100110/lib/gcc/../../avr/include/util/delay_basic.h" 1
 1275 0554 9A95      		1: dec r25
 1276 0556 01F4      		brne 1b
 1277               	 ;  0 "" 2
 1278               	/* #NOAPP */
 1279               	.LBE220:
 1280               	.LBE219:
 1281               	.LBE218:
 1282               	.LBE217:
 1283               	.LM138:
 1284 0558 8111      		cpse r24,__zero_reg__
 1285 055a 8998      		cbi 49-32,1
 1286               	.L83:
 1287               	.LBB221:
 1288               	.LBB222:
 1289               	.LBB223:
 1290               	.LBB224:
 1291               	.LM139:
 1292 055c 8DEA      		ldi r24,lo8(-83)
 1293               	.LVL164:
 1294               	/* #APP */
 1295               	 ;  83 "c:/winavr-20100110/lib/gcc/../../avr/include/util/delay_basic.h" 1
 1296 055e 8A95      		1: dec r24
 1297 0560 01F4      		brne 1b
 1298               	 ;  0 "" 2
 1299               	/* #NOAPP */
 1300               	.LBE224:
 1301               	.LBE223:
 1302               	.LBE222:
 1303               	.LBE221:
 1304               	.LM140:
 1305 0562 8998      		cbi 49-32,1
 1306               	.LM141:
 1307 0564 2FBF      		out __SREG__,r18
 1308               	/* epilogue start */
 1309               	.LM142:
 1310 0566 0895      		ret
 1311               	.LFE28:
 1313               	.global	dt_tx8
 1315               	dt_tx8:
 1316               	.LFB29:
 1317               	.LM143:
 1318               	.LVL165:
 1319 0568 EF92      		push r14
 1320 056a FF92      		push r15
 1321 056c 0F93      		push r16
 1322 056e 1F93      		push r17
 1323 0570 CF93      		push r28
 1324 0572 DF93      		push r29
 1325               	/* prologue: function */
 1326               	/* frame size = 0 */
 1327               	.LM144:
 1328 0574 C0E0      		ldi r28,lo8(0)
 1329 0576 D0E0      		ldi r29,hi8(0)
 1330               	.LBB225:
 1331               	.LM145:
 1332 0578 A1E0      		ldi r26,lo8(1)
 1333 057a EA2E      		mov r14,r26
 1334 057c F12C      		mov r15,__zero_reg__
 1335 057e 082F      		mov r16,r24
 1336 0580 10E0      		ldi r17,lo8(0)
 1337               	.LVL166:
 1338               	.L88:
 1339 0582 9701      		movw r18,r14
 1340 0584 0C2E      		mov r0,r28
 1341 0586 00C0      		rjmp 2f
 1342 0588 220F      	1:	lsl r18
 1343 058a 331F      		rol r19
 1344 058c 0A94      	2:	dec r0
 1345 058e 02F4      		brpl 1b
 1346 0590 C901      		movw r24,r18
 1347 0592 8023      		and r24,r16
 1348 0594 9123      		and r25,r17
 1349 0596 8217      		cp r24,r18
 1350 0598 9307      		cpc r25,r19
 1351 059a 01F4      		brne .L86
 1352               	.LM146:
 1353 059c 81E0      		ldi r24,lo8(1)
 1354 059e 00C0      		rjmp .L91
 1355               	.L86:
 1356               	.LM147:
 1357 05a0 80E0      		ldi r24,lo8(0)
 1358               	.L91:
 1359 05a2 00D0      		rcall dt_tx
 1360 05a4 2196      		adiw r28,1
 1361               	.LM148:
 1362 05a6 C830      		cpi r28,8
 1363 05a8 D105      		cpc r29,__zero_reg__
 1364 05aa 01F4      		brne .L88
 1365               	/* epilogue start */
 1366               	.LBE225:
 1367               	.LM149:
 1368 05ac DF91      		pop r29
 1369 05ae CF91      		pop r28
 1370 05b0 1F91      		pop r17
 1371               	.LVL167:
 1372 05b2 0F91      		pop r16
 1373               	.LVL168:
 1374 05b4 FF90      		pop r15
 1375 05b6 EF90      		pop r14
 1376 05b8 0895      		ret
 1377               	.LFE29:
 1379               	.global	dt_convert
 1381               	dt_convert:
 1382               	.LFB30:
 1383               	.LM150:
 1384               	/* prologue: function */
 1385               	/* frame size = 0 */
 1386               	.LM151:
 1387 05ba 00D0      		rcall dt_test
 1388 05bc 8823      		tst r24
 1389 05be 01F0      		breq .L94
 1390               	.LM152:
 1391 05c0 8CEC      		ldi r24,lo8(-52)
 1392 05c2 00D0      		rcall dt_tx8
 1393               	.LM153:
 1394 05c4 84E4      		ldi r24,lo8(68)
 1395 05c6 00D0      		rcall dt_tx8
 1396               	.L94:
 1397 05c8 0895      		ret
 1398               	.LFE30:
 1400               	.global	dt_read
 1402               	dt_read:
 1403               	.LFB31:
 1404               	.LM154:
 1405 05ca 1F93      		push r17
 1406               	/* prologue: function */
 1407               	/* frame size = 0 */
 1408               	.LM155:
 1409 05cc 00D0      		rcall dt_test
 1410 05ce 8823      		tst r24
 1411 05d0 01F4      		brne .L96
 1412 05d2 40E0      		ldi r20,lo8(0)
 1413 05d4 50E0      		ldi r21,hi8(0)
 1414 05d6 00C0      		rjmp .L97
 1415               	.L96:
 1416               	.LM156:
 1417 05d8 8CEC      		ldi r24,lo8(-52)
 1418 05da 00D0      		rcall dt_tx8
 1419               	.LM157:
 1420 05dc 8EEB      		ldi r24,lo8(-66)
 1421 05de 00D0      		rcall dt_tx8
 1422               	.LM158:
 1423 05e0 00D0      		rcall dt_rx8
 1424 05e2 182F      		mov r17,r24
 1425               	.LVL169:
 1426               	.LM159:
 1427 05e4 00D0      		rcall dt_rx8
 1428               	.LM160:
 1429 05e6 382F      		mov r19,r24
 1430 05e8 20E0      		ldi r18,lo8(0)
 1431               	.LM161:
 1432 05ea 412F      		mov r20,r17
 1433 05ec 50E0      		ldi r21,lo8(0)
 1434 05ee 422B      		or r20,r18
 1435 05f0 532B      		or r21,r19
 1436               	.L97:
 1437               	.LM162:
 1438 05f2 CA01      		movw r24,r20
 1439               	/* epilogue start */
 1440 05f4 1F91      		pop r17
 1441               	.LVL170:
 1442 05f6 0895      		ret
 1443               	.LFE31:
 1445               	.global	t_integer_part
 1447               	t_integer_part:
 1448               	.LFB32:
 1449               	.LM163:
 1450               	.LVL171:
 1451               	/* prologue: function */
 1452               	/* frame size = 0 */
 1453               	.LM164:
 1454 05f8 292F      		mov r18,r25
 1455 05fa 3327      		clr r19
 1456 05fc 27FD      		sbrc r18,7
 1457 05fe 3A95      		dec r19
 1458 0600 30E0      		ldi r19,lo8(0)
 1459 0602 2770      		andi r18,lo8(7)
 1460 0604 3070      		andi r19,hi8(7)
 1461 0606 B4E0      		ldi r27,4
 1462 0608 220F      	1:	lsl r18
 1463 060a 331F      		rol r19
 1464 060c BA95      		dec r27
 1465 060e 01F4      		brne 1b
 1466 0610 8295      		swap r24
 1467               	.LVL172:
 1468 0612 8F70      		andi r24,lo8(15)
 1469               	.LM165:
 1470 0614 822B      		or r24,r18
 1471               	/* epilogue start */
 1472 0616 0895      		ret
 1473               	.LFE32:
 1475               	.global	t_sign
 1477               	t_sign:
 1478               	.LFB33:
 1479               	.LM166:
 1480               	.LVL173:
 1481               	/* prologue: function */
 1482               	/* frame size = 0 */
 1483               	.LM167:
 1484 0618 892F      		mov r24,r25
 1485               	.LVL174:
 1486 061a 881F      		rol r24
 1487 061c 8827      		clr r24
 1488 061e 881F      		rol r24
 1489               	/* epilogue start */
 1490 0620 0895      		ret
 1491               	.LFE33:
 1493               	.global	n_pow2
 1495               	n_pow2:
 1496               	.LFB34:
 1497               	.LM168:
 1498               	.LVL175:
 1499 0622 CF93      		push r28
 1500 0624 DF93      		push r29
 1501               	/* prologue: function */
 1502               	/* frame size = 0 */
 1503 0626 EC01      		movw r28,r24
 1504               	.LM169:
 1505 0628 60E0      		ldi r22,lo8(0x3f800000)
 1506 062a 70E0      		ldi r23,hi8(0x3f800000)
 1507 062c 80E8      		ldi r24,hlo8(0x3f800000)
 1508 062e 9FE3      		ldi r25,hhi8(0x3f800000)
 1509               	.LVL176:
 1510 0630 00C0      		rjmp .L104
 1511               	.LVL177:
 1512               	.L105:
 1513               	.LM170:
 1514 0632 20E0      		ldi r18,lo8(0x3f000000)
 1515 0634 30E0      		ldi r19,hi8(0x3f000000)
 1516 0636 40E0      		ldi r20,hlo8(0x3f000000)
 1517 0638 5FE3      		ldi r21,hhi8(0x3f000000)
 1518 063a 00D0      		rcall __mulsf3
 1519               	.LVL178:
 1520               	.L104:
 1521 063c 2197      		sbiw r28,1
 1522 063e 2FEF      		ldi r18,hi8(-1)
 1523 0640 CF3F      		cpi r28,lo8(-1)
 1524 0642 D207      		cpc r29,r18
 1525 0644 01F4      		brne .L105
 1526               	.LVL179:
 1527               	/* epilogue start */
 1528               	.LM171:
 1529 0646 DF91      		pop r29
 1530 0648 CF91      		pop r28
 1531               	.LVL180:
 1532 064a 0895      		ret
 1533               	.LFE34:
 1535               	.global	t_float_part
 1537               	t_float_part:
 1538               	.LFB35:
 1539               	.LM172:
 1540               	.LVL181:
 1541 064c CF92      		push r12
 1542 064e DF92      		push r13
 1543 0650 EF92      		push r14
 1544 0652 FF92      		push r15
 1545 0654 0F93      		push r16
 1546 0656 1F93      		push r17
 1547 0658 CF93      		push r28
 1548 065a DF93      		push r29
 1549               	/* prologue: function */
 1550               	/* frame size = 0 */
 1551               	.LM173:
 1552 065c 3FE0      		ldi r19,lo8(15)
 1553 065e D32E      		mov r13,r19
 1554               	.LVL182:
 1555 0660 D822      		and r13,r24
 1556 0662 CC24      		clr r12
 1557 0664 C394      		inc r12
 1558               	.LVL183:
 1559 0666 0F2E      		mov __tmp_reg__,r31
 1560 0668 F0E0      		ldi r31,lo8(0x0)
 1561 066a EF2E      		mov r14,r31
 1562 066c F0E0      		ldi r31,hi8(0x0)
 1563 066e FF2E      		mov r15,r31
 1564 0670 F0E0      		ldi r31,hlo8(0x0)
 1565 0672 0F2F      		mov r16,r31
 1566 0674 F0E0      		ldi r31,hhi8(0x0)
 1567 0676 1F2F      		mov r17,r31
 1568 0678 F02D      		mov r31,__tmp_reg__
 1569               	.LVL184:
 1570 067a 00C0      		rjmp .L108
 1571               	.LVL185:
 1572               	.L112:
 1573               	.LM174:
 1574 067c D0FE      		sbrs r13,0
 1575 067e 00C0      		rjmp .L109
 1576 0680 CC2D      		mov r28,r12
 1577               	.LVL186:
 1578 0682 D0E0      		ldi r29,lo8(0)
 1579 0684 20E0      		ldi r18,lo8(0x3f800000)
 1580 0686 30E0      		ldi r19,hi8(0x3f800000)
 1581 0688 40E8      		ldi r20,hlo8(0x3f800000)
 1582 068a 5FE3      		ldi r21,hhi8(0x3f800000)
 1583               	.LVL187:
 1584 068c 00C0      		rjmp .L110
 1585               	.LVL188:
 1586               	.L111:
 1587               	.LBB226:
 1588               	.LBB227:
 1589               	.LM175:
 1590 068e CA01      		movw r24,r20
 1591 0690 B901      		movw r22,r18
 1592 0692 20E0      		ldi r18,lo8(0x3f000000)
 1593 0694 30E0      		ldi r19,hi8(0x3f000000)
 1594 0696 40E0      		ldi r20,hlo8(0x3f000000)
 1595 0698 5FE3      		ldi r21,hhi8(0x3f000000)
 1596               	.LVL189:
 1597 069a 00D0      		rcall __mulsf3
 1598 069c 9B01      		movw r18,r22
 1599 069e AC01      		movw r20,r24
 1600               	.LVL190:
 1601               	.L110:
 1602 06a0 2197      		sbiw r28,1
 1603 06a2 8FEF      		ldi r24,hi8(-1)
 1604 06a4 CF3F      		cpi r28,lo8(-1)
 1605 06a6 D807      		cpc r29,r24
 1606               	.LVL191:
 1607 06a8 01F4      		brne .L111
 1608               	.LBE227:
 1609               	.LBE226:
 1610               	.LM176:
 1611 06aa C801      		movw r24,r16
 1612 06ac B701      		movw r22,r14
 1613 06ae 00D0      		rcall __addsf3
 1614               	.LVL192:
 1615 06b0 7B01      		movw r14,r22
 1616 06b2 8C01      		movw r16,r24
 1617               	.LVL193:
 1618               	.L109:
 1619               	.LM177:
 1620 06b4 D694      		lsr r13
 1621               	.LM178:
 1622 06b6 C394      		inc r12
 1623               	.L108:
 1624               	.LM179:
 1625 06b8 DD20      		tst r13
 1626 06ba 01F4      		brne .L112
 1627               	.LM180:
 1628 06bc B701      		movw r22,r14
 1629               	.LVL194:
 1630 06be C801      		movw r24,r16
 1631               	.LVL195:
 1632               	/* epilogue start */
 1633 06c0 DF91      		pop r29
 1634               	.LVL196:
 1635 06c2 CF91      		pop r28
 1636               	.LVL197:
 1637 06c4 1F91      		pop r17
 1638 06c6 0F91      		pop r16
 1639 06c8 FF90      		pop r15
 1640 06ca EF90      		pop r14
 1641 06cc DF90      		pop r13
 1642               	.LVL198:
 1643 06ce CF90      		pop r12
 1644               	.LVL199:
 1645 06d0 0895      		ret
 1646               	.LFE35:
 1648               	.global	io_init
 1650               	io_init:
 1651               	.LFB36:
 1652               	.LM181:
 1653               	/* prologue: function */
 1654               	/* frame size = 0 */
 1655               	.LM182:
 1656 06d2 14BA      		out 52-32,__zero_reg__
 1657               	.LM183:
 1658 06d4 80EF      		ldi r24,lo8(-16)
 1659 06d6 81BB      		out 49-32,r24
 1660               	/* epilogue start */
 1661               	.LM184:
 1662 06d8 0895      		ret
 1663               	.LFE36:
 1665               	.global	io_write
 1667               	io_write:
 1668               	.LFB37:
 1669               	.LM185:
 1670               	.LVL200:
 1671               	/* prologue: function */
 1672               	/* frame size = 0 */
 1673 06da 382F      		mov r19,r24
 1674               	.LM186:
 1675 06dc 6623      		tst r22
 1676 06de 01F0      		breq .L117
 1677               	.LVL201:
 1678               	.LM187:
 1679 06e0 22B3      		in r18,50-32
 1680 06e2 81E0      		ldi r24,lo8(1)
 1681 06e4 90E0      		ldi r25,hi8(1)
 1682 06e6 00C0      		rjmp 2f
 1683 06e8 880F      	1:	lsl r24
 1684 06ea 991F      		rol r25
 1685 06ec 3A95      	2:	dec r19
 1686 06ee 02F4      		brpl 1b
 1687 06f0 282B      		or r18,r24
 1688 06f2 22BB      		out 50-32,r18
 1689 06f4 0895      		ret
 1690               	.LVL202:
 1691               	.L117:
 1692               	.LM188:
 1693 06f6 22B3      		in r18,50-32
 1694 06f8 81E0      		ldi r24,lo8(1)
 1695 06fa 90E0      		ldi r25,hi8(1)
 1696 06fc 00C0      		rjmp 2f
 1697 06fe 880F      	1:	lsl r24
 1698 0700 991F      		rol r25
 1699 0702 3A95      	2:	dec r19
 1700 0704 02F4      		brpl 1b
 1701 0706 8095      		com r24
 1702 0708 8223      		and r24,r18
 1703 070a 82BB      		out 50-32,r24
 1704 070c 0895      		ret
 1705               	.LFE37:
 1707               	.global	io_read
 1709               	io_read:
 1710               	.LFB38:
 1711               	.LM189:
 1712               	.LVL203:
 1713               	/* prologue: function */
 1714               	/* frame size = 0 */
 1715               	.LM190:
 1716 070e 23B3      		in r18,51-32
 1717 0710 30E0      		ldi r19,lo8(0)
 1718 0712 00C0      		rjmp 2f
 1719 0714 3595      	1:	asr r19
 1720 0716 2795      		ror r18
 1721 0718 8A95      	2:	dec r24
 1722 071a 02F4      		brpl 1b
 1723 071c 2170      		andi r18,lo8(1)
 1724 071e 3070      		andi r19,hi8(1)
 1725               	.LM191:
 1726 0720 C901      		movw r24,r18
 1727               	.LVL204:
 1728               	/* epilogue start */
 1729 0722 0895      		ret
 1730               	.LFE38:
 1732               	.global	__vector_9
 1734               	__vector_9:
 1735               	.LFB39:
 1736               	.LM192:
 1737 0724 1F92      		push __zero_reg__
 1738 0726 0F92      		push r0
 1739 0728 0FB6      		in r0,__SREG__
 1740 072a 0F92      		push r0
 1741 072c 1124      		clr __zero_reg__
 1742 072e 1F93      		push r17
 1743 0730 2F93      		push r18
 1744 0732 3F93      		push r19
 1745 0734 4F93      		push r20
 1746 0736 5F93      		push r21
 1747 0738 6F93      		push r22
 1748 073a 7F93      		push r23
 1749 073c 8F93      		push r24
 1750 073e 9F93      		push r25
 1751 0740 AF93      		push r26
 1752 0742 BF93      		push r27
 1753 0744 EF93      		push r30
 1754 0746 FF93      		push r31
 1755               	/* prologue: Signal */
 1756               	/* frame size = 0 */
 1757               	.LM193:
 1758 0748 8091 0000 		lds r24,__clock__
 1759 074c 2091 0000 		lds r18,__clock__+1
 1760 0750 3091 0000 		lds r19,__clock__+2
 1761 0754 4091 0000 		lds r20,__clock__+3
 1762 0758 6091 0000 		lds r22,__clock__+4
 1763 075c E091 0000 		lds r30,__clock__+5
 1764 0760 A091 0000 		lds r26,__clock__+6
 1765 0764 1091 0000 		lds r17,__clock__+7
 1766 0768 B82F      		mov r27,r24
 1767 076a B85F      		subi r27,lo8(-(8))
 1768 076c 91E0      		ldi r25,lo8(1)
 1769 076e B817      		cp r27,r24
 1770 0770 00F0      		brlo .L123
 1771 0772 90E0      		ldi r25,lo8(0)
 1772               	.L123:
 1773 0774 F92F      		mov r31,r25
 1774 0776 F20F      		add r31,r18
 1775 0778 81E0      		ldi r24,lo8(1)
 1776 077a F217      		cp r31,r18
 1777 077c 00F0      		brlo .L125
 1778 077e 80E0      		ldi r24,lo8(0)
 1779               	.L125:
 1780 0780 782F      		mov r23,r24
 1781 0782 730F      		add r23,r19
 1782 0784 81E0      		ldi r24,lo8(1)
 1783 0786 7317      		cp r23,r19
 1784 0788 00F0      		brlo .L127
 1785 078a 80E0      		ldi r24,lo8(0)
 1786               	.L127:
 1787 078c 582F      		mov r21,r24
 1788 078e 540F      		add r21,r20
 1789 0790 81E0      		ldi r24,lo8(1)
 1790 0792 5417      		cp r21,r20
 1791 0794 00F0      		brlo .L129
 1792 0796 80E0      		ldi r24,lo8(0)
 1793               	.L129:
 1794 0798 382F      		mov r19,r24
 1795 079a 360F      		add r19,r22
 1796 079c 81E0      		ldi r24,lo8(1)
 1797 079e 3617      		cp r19,r22
 1798 07a0 00F0      		brlo .L131
 1799 07a2 80E0      		ldi r24,lo8(0)
 1800               	.L131:
 1801 07a4 282F      		mov r18,r24
 1802 07a6 2E0F      		add r18,r30
 1803 07a8 81E0      		ldi r24,lo8(1)
 1804 07aa 2E17      		cp r18,r30
 1805 07ac 00F0      		brlo .L133
 1806 07ae 80E0      		ldi r24,lo8(0)
 1807               	.L133:
 1808 07b0 982F      		mov r25,r24
 1809 07b2 9A0F      		add r25,r26
 1810 07b4 81E0      		ldi r24,lo8(1)
 1811 07b6 9A17      		cp r25,r26
 1812 07b8 00F0      		brlo .L135
 1813 07ba 80E0      		ldi r24,lo8(0)
 1814               	.L135:
 1815 07bc 810F      		add r24,r17
 1816 07be B093 0000 		sts __clock__,r27
 1817 07c2 F093 0000 		sts __clock__+1,r31
 1818 07c6 7093 0000 		sts __clock__+2,r23
 1819 07ca 5093 0000 		sts __clock__+3,r21
 1820 07ce 3093 0000 		sts __clock__+4,r19
 1821 07d2 2093 0000 		sts __clock__+5,r18
 1822 07d6 9093 0000 		sts __clock__+6,r25
 1823 07da 8093 0000 		sts __clock__+7,r24
 1824               	/* epilogue start */
 1825               	.LM194:
 1826 07de FF91      		pop r31
 1827 07e0 EF91      		pop r30
 1828 07e2 BF91      		pop r27
 1829 07e4 AF91      		pop r26
 1830 07e6 9F91      		pop r25
 1831 07e8 8F91      		pop r24
 1832 07ea 7F91      		pop r23
 1833 07ec 6F91      		pop r22
 1834 07ee 5F91      		pop r21
 1835 07f0 4F91      		pop r20
 1836 07f2 3F91      		pop r19
 1837 07f4 2F91      		pop r18
 1838 07f6 1F91      		pop r17
 1839 07f8 0F90      		pop r0
 1840 07fa 0FBE      		out __SREG__,r0
 1841 07fc 0F90      		pop r0
 1842 07fe 1F90      		pop __zero_reg__
 1843 0800 1895      		reti
 1844               	.LFE39:
 1846               	.global	clock_init
 1848               	clock_init:
 1849               	.LFB40:
 1850               	.LM195:
 1851               	/* prologue: function */
 1852               	/* frame size = 0 */
 1853               	.LM196:
 1854 0802 84E0      		ldi r24,lo8(4)
 1855 0804 83BF      		out 83-32,r24
 1856               	.LM197:
 1857 0806 89B7      		in r24,89-32
 1858 0808 8160      		ori r24,lo8(1)
 1859 080a 89BF      		out 89-32,r24
 1860               	.LM198:
 1861               	/* #APP */
 1862               	 ;  26 "include/clock.h" 1
 1863 080c 7894      		sei
 1864               	 ;  0 "" 2
 1865               	/* epilogue start */
 1866               	.LM199:
 1867               	/* #NOAPP */
 1868 080e 0895      		ret
 1869               	.LFE40:
 1871               	.global	clock
 1873               	clock:
 1874               	.LFB41:
 1875               	.LM200:
 1876               	/* prologue: function */
 1877               	/* frame size = 0 */
 1878               	.LM201:
 1879 0810 2091 0000 		lds r18,__clock__
 1880 0814 3091 0000 		lds r19,__clock__+1
 1881 0818 4091 0000 		lds r20,__clock__+2
 1882 081c 5091 0000 		lds r21,__clock__+3
 1883 0820 6091 0000 		lds r22,__clock__+4
 1884 0824 7091 0000 		lds r23,__clock__+5
 1885               	.LM202:
 1886 0828 8091 0000 		lds r24,__clock__+6
 1887 082c 9091 0000 		lds r25,__clock__+7
 1888               	/* epilogue start */
 1889 0830 0895      		ret
 1890               	.LFE41:
 1892               	.global	change_upd_speed
 1894               	change_upd_speed:
 1895               	.LFB42:
 1896               	.LM203:
 1897               	/* prologue: function */
 1898               	/* frame size = 0 */
 1899               	.LM204:
 1900 0832 8091 0000 		lds r24,usp
 1901 0836 9091 0000 		lds r25,(usp)+1
 1902 083a 8130      		cpi r24,1
 1903 083c 9105      		cpc r25,__zero_reg__
 1904 083e 01F4      		brne .L142
 1905               	.LM205:
 1906 0840 80E1      		ldi r24,lo8(3600)
 1907 0842 9EE0      		ldi r25,hi8(3600)
 1908 0844 00C0      		rjmp .L146
 1909               	.L142:
 1910               	.LM206:
 1911 0846 8C33      		cpi r24,60
 1912 0848 9105      		cpc r25,__zero_reg__
 1913 084a 01F4      		brne .L144
 1914               	.LM207:
 1915 084c 81E0      		ldi r24,lo8(1)
 1916 084e 90E0      		ldi r25,hi8(1)
 1917               	.L146:
 1918 0850 9093 0000 		sts (usp)+1,r25
 1919 0854 8093 0000 		sts usp,r24
 1920 0858 0895      		ret
 1921               	.L144:
 1922               	.LM208:
 1923 085a 8051      		subi r24,lo8(3600)
 1924 085c 9E40      		sbci r25,hi8(3600)
 1925 085e 01F4      		brne .L145
 1926               	.LM209:
 1927 0860 8CE3      		ldi r24,lo8(60)
 1928 0862 90E0      		ldi r25,hi8(60)
 1929 0864 9093 0000 		sts (usp)+1,r25
 1930 0868 8093 0000 		sts usp,r24
 1931               	.L145:
 1932 086c 0895      		ret
 1933               	.LFE42:
 1935               	.global	change_line_type
 1937               	change_line_type:
 1938               	.LFB43:
 1939               	.LM210:
 1940               	/* prologue: function */
 1941               	/* frame size = 0 */
 1942               	.LM211:
 1943 086e 8091 0000 		lds r24,ltp
 1944 0872 8832      		cpi r24,lo8(40)
 1945 0874 01F4      		brne .L148
 1946               	.LM212:
 1947 0876 80E5      		ldi r24,lo8(80)
 1948 0878 00C0      		rjmp .L152
 1949               	.L148:
 1950               	.LM213:
 1951 087a 8035      		cpi r24,lo8(80)
 1952 087c 01F4      		brne .L150
 1953               	.LM214:
 1954 087e 84E1      		ldi r24,lo8(20)
 1955               	.L152:
 1956 0880 8093 0000 		sts ltp,r24
 1957 0884 0895      		ret
 1958               	.L150:
 1959               	.LM215:
 1960 0886 8431      		cpi r24,lo8(20)
 1961 0888 01F4      		brne .L151
 1962               	.LM216:
 1963 088a 88E2      		ldi r24,lo8(40)
 1964 088c 8093 0000 		sts ltp,r24
 1965               	.L151:
 1966 0890 0895      		ret
 1967               	.LFE43:
 1969               	.global	change_view_mode
 1971               	change_view_mode:
 1972               	.LFB44:
 1973               	.LM217:
 1974               	/* prologue: function */
 1975               	/* frame size = 0 */
 1976               	.LM218:
 1977 0892 8091 0000 		lds r24,vm
 1978 0896 8823      		tst r24
 1979 0898 01F4      		brne .L154
 1980               	.LM219:
 1981 089a 81E0      		ldi r24,lo8(1)
 1982 089c 8093 0000 		sts vm,r24
 1983 08a0 0895      		ret
 1984               	.L154:
 1985               	.LM220:
 1986 08a2 8130      		cpi r24,lo8(1)
 1987 08a4 01F4      		brne .L156
 1988               	.LM221:
 1989 08a6 1092 0000 		sts vm,__zero_reg__
 1990               	.L156:
 1991 08aa 0895      		ret
 1992               	.LFE44:
 1994               	.global	hooks_init
 1996               	hooks_init:
 1997               	.LFB45:
 1998               	.LM222:
 1999               	/* prologue: function */
 2000               	/* frame size = 0 */
 2001               	.LBB228:
 2002               	.LM223:
 2003 08ac 26E0      		ldi r18,lo8(6)
 2004 08ae 2093 0000 		sts hooks+3,r18
 2005               	.LM224:
 2006 08b2 94E0      		ldi r25,lo8(4)
 2007 08b4 9093 0000 		sts hooks+4,r25
 2008               	.LM225:
 2009 08b8 81E0      		ldi r24,lo8(1)
 2010 08ba 8093 0000 		sts hooks,r24
 2011               	.LM226:
 2012 08be 2093 0000 		sts hooks+8,r18
 2013               	.LM227:
 2014 08c2 9093 0000 		sts hooks+9,r25
 2015               	.LM228:
 2016 08c6 8093 0000 		sts hooks+5,r24
 2017               	.LM229:
 2018 08ca 2093 0000 		sts hooks+13,r18
 2019               	.LM230:
 2020 08ce 9093 0000 		sts hooks+14,r25
 2021               	.LM231:
 2022 08d2 8093 0000 		sts hooks+10,r24
 2023               	.LM232:
 2024 08d6 2093 0000 		sts hooks+18,r18
 2025               	.LM233:
 2026 08da 9093 0000 		sts hooks+19,r25
 2027               	.LM234:
 2028 08de 8093 0000 		sts hooks+15,r24
 2029               	/* epilogue start */
 2030               	.LBE228:
 2031               	.LM235:
 2032 08e2 0895      		ret
 2033               	.LFE45:
 2035               	.global	draw_hook_ptr
 2037               	draw_hook_ptr:
 2038               	.LFB47:
 2039               	.LM236:
 2040               	.LVL205:
 2041 08e4 0F93      		push r16
 2042 08e6 1F93      		push r17
 2043 08e8 CF93      		push r28
 2044 08ea DF93      		push r29
 2045               	/* prologue: function */
 2046               	/* frame size = 0 */
 2047               	.LBB229:
 2048               	.LM237:
 2049 08ec 99E0      		ldi r25,lo8(9)
 2050 08ee 899F      		mul r24,r25
 2051 08f0 102D      		mov r17,r0
 2052 08f2 1124      		clr r1
 2053 08f4 C2E0      		ldi r28,lo8(2)
 2054 08f6 D0E0      		ldi r29,hi8(2)
 2055               	.LVL206:
 2056               	.L160:
 2057 08f8 212F      		mov r18,r17
 2058 08fa 2C0F      		add r18,r28
 2059 08fc 80E0      		ldi r24,lo8(0)
 2060               	.LVL207:
 2061 08fe 622F      		mov r22,r18
 2062 0900 43E5      		ldi r20,lo8(83)
 2063 0902 02E0      		ldi r16,lo8(2)
 2064 0904 00D0      		rcall lcd_line
 2065               	.LM238:
 2066 0906 2196      		adiw r28,1
 2067 0908 CB30      		cpi r28,11
 2068 090a D105      		cpc r29,__zero_reg__
 2069 090c 01F4      		brne .L160
 2070               	/* epilogue start */
 2071               	.LBE229:
 2072               	.LM239:
 2073 090e DF91      		pop r29
 2074 0910 CF91      		pop r28
 2075               	.LVL208:
 2076 0912 1F91      		pop r17
 2077 0914 0F91      		pop r16
 2078 0916 0895      		ret
 2079               	.LFE47:
 2081               	.global	print_hook
 2083               	print_hook:
 2084               	.LFB48:
 2085               	.LM240:
 2086               	.LVL209:
 2087               	/* prologue: function */
 2088               	/* frame size = 0 */
 2089               	/* epilogue start */
 2090               	.LM241:
 2091 0918 0895      		ret
 2092               	.LFE48:
 2094               	.global	sc_top
 2096               	sc_top:
 2097               	.LFB49:
 2098               	.LM242:
 2099               	.LVL210:
 2100               	/* prologue: function */
 2101               	/* frame size = 0 */
 2102 091a E82F      		mov r30,r24
 2103               	.LM243:
 2104 091c 77FF      		sbrs r23,7
 2105 091e 00C0      		rjmp .L166
 2106               	.LVL211:
 2107               	.LM244:
 2108 0920 AB01      		movw r20,r22
 2109 0922 4095      		com r20
 2110 0924 5095      		com r21
 2111 0926 252F      		mov r18,r21
 2112 0928 3327      		clr r19
 2113 092a 27FD      		sbrc r18,7
 2114 092c 3A95      		dec r19
 2115 092e 30E0      		ldi r19,lo8(0)
 2116 0930 2770      		andi r18,lo8(7)
 2117 0932 3070      		andi r19,hi8(7)
 2118 0934 B4E0      		ldi r27,4
 2119 0936 220F      	1:	lsl r18
 2120 0938 331F      		rol r19
 2121 093a BA95      		dec r27
 2122 093c 01F4      		brne 1b
 2123 093e 4295      		swap r20
 2124 0940 4F70      		andi r20,lo8(15)
 2125 0942 842F      		mov r24,r20
 2126 0944 822B      		or r24,r18
 2127 0946 90E0      		ldi r25,lo8(0)
 2128 0948 A4E0      		ldi r26,4
 2129 094a 880F      	1:	lsl r24
 2130 094c 991F      		rol r25
 2131 094e AA95      		dec r26
 2132 0950 01F4      		brne 1b
 2133 0952 9095      		com r25
 2134 0954 8195      		neg r24
 2135 0956 9F4F      		sbci r25,lo8(-1)
 2136 0958 00C0      		rjmp .L171
 2137               	.LVL212:
 2138               	.L166:
 2139               	.LM245:
 2140 095a 272F      		mov r18,r23
 2141 095c 3327      		clr r19
 2142 095e 27FD      		sbrc r18,7
 2143 0960 3A95      		dec r19
 2144 0962 30E0      		ldi r19,lo8(0)
 2145 0964 2770      		andi r18,lo8(7)
 2146 0966 3070      		andi r19,hi8(7)
 2147 0968 54E0      		ldi r21,4
 2148 096a 220F      	1:	lsl r18
 2149 096c 331F      		rol r19
 2150 096e 5A95      		dec r21
 2151 0970 01F4      		brne 1b
 2152 0972 862F      		mov r24,r22
 2153               	.LVL213:
 2154 0974 8295      		swap r24
 2155 0976 8F70      		andi r24,lo8(15)
 2156 0978 822B      		or r24,r18
 2157 097a 90E0      		ldi r25,lo8(0)
 2158 097c 44E0      		ldi r20,4
 2159 097e 880F      	1:	lsl r24
 2160 0980 991F      		rol r25
 2161 0982 4A95      		dec r20
 2162 0984 01F4      		brne 1b
 2163               	.LVL214:
 2164               	.L171:
 2165 0986 6E2F      		mov r22,r30
 2166               	.LVL215:
 2167 0988 70E0      		ldi r23,lo8(0)
 2168               	.LVL216:
 2169 098a 00D0      		rcall __divmodhi4
 2170               	.LM246:
 2171 098c 2AE1      		ldi r18,lo8(26)
 2172 098e 30E0      		ldi r19,hi8(26)
 2173               	.LVL217:
 2174 0990 261B      		sub r18,r22
 2175 0992 370B      		sbc r19,r23
 2176               	.LVL218:
 2177               	.LM247:
 2178 0994 1092 0000 		sts ovf_flag,__zero_reg__
 2179               	.LM248:
 2180 0998 2230      		cpi r18,2
 2181 099a 3105      		cpc r19,__zero_reg__
 2182 099c 04F4      		brge .L168
 2183               	.LM249:
 2184 099e 81E0      		ldi r24,lo8(1)
 2185 09a0 8093 0000 		sts ovf_flag,r24
 2186 09a4 22E0      		ldi r18,lo8(2)
 2187 09a6 30E0      		ldi r19,hi8(2)
 2188 09a8 00C0      		rjmp .L169
 2189               	.L168:
 2190               	.LM250:
 2191 09aa 2632      		cpi r18,38
 2192 09ac 3105      		cpc r19,__zero_reg__
 2193 09ae 04F0      		brlt .L169
 2194               	.LM251:
 2195 09b0 81E0      		ldi r24,lo8(1)
 2196 09b2 8093 0000 		sts ovf_flag,r24
 2197 09b6 25E2      		ldi r18,lo8(37)
 2198 09b8 30E0      		ldi r19,hi8(37)
 2199               	.L169:
 2200               	.LM252:
 2201 09ba C901      		movw r24,r18
 2202               	.LVL219:
 2203               	/* epilogue start */
 2204 09bc 0895      		ret
 2205               	.LFE49:
 2207               	.global	draw_chart
 2209               	draw_chart:
 2210               	.LFB50:
 2211               	.LM253:
 2212               	.LVL220:
 2213 09be EF92      		push r14
 2214 09c0 FF92      		push r15
 2215 09c2 0F93      		push r16
 2216 09c4 1F93      		push r17
 2217 09c6 CF93      		push r28
 2218 09c8 DF93      		push r29
 2219               	/* prologue: function */
 2220               	/* frame size = 0 */
 2221 09ca E82E      		mov r14,r24
 2222               	.LM254:
 2223 09cc C0E0      		ldi r28,lo8(values_for_chart)
 2224 09ce D0E0      		ldi r29,hi8(values_for_chart)
 2225 09d0 02E0      		ldi r16,lo8(2)
 2226               	.LVL221:
 2227               	.L173:
 2228               	.LBB230:
 2229               	.LM255:
 2230 09d2 6881      		ld r22,Y
 2231 09d4 7981      		ldd r23,Y+1
 2232 09d6 8E2D      		mov r24,r14
 2233 09d8 00D0      		rcall sc_top
 2234 09da 182F      		mov r17,r24
 2235 09dc F02E      		mov r15,r16
 2236 09de F394      		inc r15
 2237 09e0 6A81      		ldd r22,Y+2
 2238 09e2 7B81      		ldd r23,Y+3
 2239 09e4 8E2D      		mov r24,r14
 2240 09e6 00D0      		rcall sc_top
 2241 09e8 282F      		mov r18,r24
 2242 09ea 802F      		mov r24,r16
 2243 09ec 612F      		mov r22,r17
 2244 09ee 4F2D      		mov r20,r15
 2245 09f0 01E0      		ldi r16,lo8(1)
 2246 09f2 00D0      		rcall lcd_line
 2247 09f4 2296      		adiw r28,2
 2248 09f6 0F2D      		mov r16,r15
 2249               	.LM256:
 2250 09f8 0A33      		cpi r16,lo8(58)
 2251 09fa 01F4      		brne .L173
 2252               	/* epilogue start */
 2253               	.LBE230:
 2254               	.LM257:
 2255 09fc DF91      		pop r29
 2256 09fe CF91      		pop r28
 2257 0a00 1F91      		pop r17
 2258 0a02 0F91      		pop r16
 2259 0a04 FF90      		pop r15
 2260 0a06 EF90      		pop r14
 2261               	.LVL222:
 2262 0a08 0895      		ret
 2263               	.LFE50:
 2265               	.global	add_new_chart_value
 2267               	add_new_chart_value:
 2268               	.LFB51:
 2269               	.LM258:
 2270               	.LVL223:
 2271               	/* prologue: function */
 2272               	/* frame size = 0 */
 2273 0a0a 9C01      		movw r18,r24
 2274               	.LM259:
 2275 0a0c E0E0      		ldi r30,lo8(values_for_chart)
 2276 0a0e F0E0      		ldi r31,hi8(values_for_chart)
 2277               	.LVL224:
 2278               	.L177:
 2279               	.LBB231:
 2280               	.LM260:
 2281 0a10 8281      		ldd r24,Z+2
 2282 0a12 9381      		ldd r25,Z+3
 2283 0a14 8193      		st Z+,r24
 2284 0a16 9193      		st Z+,r25
 2285               	.LM261:
 2286 0a18 80E0      		ldi r24,hi8(values_for_chart+112)
 2287 0a1a E030      		cpi r30,lo8(values_for_chart+112)
 2288 0a1c F807      		cpc r31,r24
 2289 0a1e 01F4      		brne .L177
 2290               	.LBE231:
 2291               	.LM262:
 2292 0a20 3183      		std Z+1,r19
 2293 0a22 2083      		st Z,r18
 2294               	/* epilogue start */
 2295               	.LM263:
 2296 0a24 0895      		ret
 2297               	.LFE51:
 2299               	.global	clear_chart
 2301               	clear_chart:
 2302               	.LFB52:
 2303               	.LM264:
 2304               	/* prologue: function */
 2305               	/* frame size = 0 */
 2306               	.LM265:
 2307 0a26 E0E0      		ldi r30,lo8(values_for_chart)
 2308 0a28 F0E0      		ldi r31,hi8(values_for_chart)
 2309               	.L181:
 2310               	.LBB232:
 2311               	.LM266:
 2312 0a2a 1192      		st Z+,__zero_reg__
 2313 0a2c 1192      		st Z+,__zero_reg__
 2314               	.LM267:
 2315 0a2e 80E0      		ldi r24,hi8(values_for_chart+114)
 2316 0a30 E030      		cpi r30,lo8(values_for_chart+114)
 2317 0a32 F807      		cpc r31,r24
 2318 0a34 01F4      		brne .L181
 2319               	/* epilogue start */
 2320               	.LBE232:
 2321               	.LM268:
 2322 0a36 0895      		ret
 2323               	.LFE52:
 2325               	.global	draw_bar
 2327               	draw_bar:
 2328               	.LFB53:
 2329               	.LM269:
 2330               	.LVL225:
 2331 0a38 0F93      		push r16
 2332 0a3a 1F93      		push r17
 2333               	/* prologue: function */
 2334               	/* frame size = 0 */
 2335               	.LM270:
 2336 0a3c 00D0      		rcall sc_top
 2337               	.LVL226:
 2338 0a3e 182F      		mov r17,r24
 2339               	.LM271:
 2340 0a40 8EE4      		ldi r24,lo8(78)
 2341 0a42 612F      		mov r22,r17
 2342 0a44 4EE4      		ldi r20,lo8(78)
 2343 0a46 25E2      		ldi r18,lo8(37)
 2344 0a48 01E0      		ldi r16,lo8(1)
 2345 0a4a 00D0      		rcall lcd_line
 2346               	.LM272:
 2347 0a4c 8FE4      		ldi r24,lo8(79)
 2348 0a4e 612F      		mov r22,r17
 2349 0a50 4FE4      		ldi r20,lo8(79)
 2350 0a52 25E2      		ldi r18,lo8(37)
 2351 0a54 00D0      		rcall lcd_line
 2352               	/* epilogue start */
 2353               	.LM273:
 2354 0a56 1F91      		pop r17
 2355 0a58 0F91      		pop r16
 2356 0a5a 0895      		ret
 2357               	.LFE53:
 2359               	.global	draw_update_speed_indicator
 2361               	draw_update_speed_indicator:
 2362               	.LFB55:
 2363               	.LM274:
 2364               	.LVL227:
 2365 0a5c 0F93      		push r16
 2366 0a5e CF93      		push r28
 2367 0a60 DF93      		push r29
 2368               	/* prologue: function */
 2369               	/* frame size = 0 */
 2370 0a62 EC01      		movw r28,r24
 2371               	.LM275:
 2372 0a64 8EE3      		ldi r24,lo8(62)
 2373               	.LVL228:
 2374 0a66 6BE2      		ldi r22,lo8(43)
 2375 0a68 4EE3      		ldi r20,lo8(62)
 2376 0a6a 2DE2      		ldi r18,lo8(45)
 2377 0a6c 01E0      		ldi r16,lo8(1)
 2378 0a6e 00D0      		rcall lcd_line
 2379               	.LM276:
 2380 0a70 8FE3      		ldi r24,lo8(63)
 2381 0a72 6BE2      		ldi r22,lo8(43)
 2382 0a74 4FE3      		ldi r20,lo8(63)
 2383 0a76 2DE2      		ldi r18,lo8(45)
 2384 0a78 00D0      		rcall lcd_line
 2385               	.LM277:
 2386 0a7a 8EE0      		ldi r24,hi8(3600)
 2387 0a7c C031      		cpi r28,lo8(3600)
 2388 0a7e D807      		cpc r29,r24
 2389 0a80 01F0      		breq .L188
 2390               	.LM278:
 2391 0a82 81E4      		ldi r24,lo8(65)
 2392 0a84 6AE2      		ldi r22,lo8(42)
 2393 0a86 41E4      		ldi r20,lo8(65)
 2394 0a88 2DE2      		ldi r18,lo8(45)
 2395 0a8a 00D0      		rcall lcd_line
 2396               	.LM279:
 2397 0a8c 82E4      		ldi r24,lo8(66)
 2398 0a8e 6AE2      		ldi r22,lo8(42)
 2399 0a90 42E4      		ldi r20,lo8(66)
 2400 0a92 2DE2      		ldi r18,lo8(45)
 2401 0a94 00D0      		rcall lcd_line
 2402               	.LM280:
 2403 0a96 EC97      		sbiw r28,60
 2404 0a98 01F0      		breq .L188
 2405               	.LM281:
 2406 0a9a 84E4      		ldi r24,lo8(68)
 2407 0a9c 69E2      		ldi r22,lo8(41)
 2408 0a9e 44E4      		ldi r20,lo8(68)
 2409 0aa0 2DE2      		ldi r18,lo8(45)
 2410 0aa2 00D0      		rcall lcd_line
 2411               	.LM282:
 2412 0aa4 85E4      		ldi r24,lo8(69)
 2413 0aa6 69E2      		ldi r22,lo8(41)
 2414 0aa8 45E4      		ldi r20,lo8(69)
 2415 0aaa 2DE2      		ldi r18,lo8(45)
 2416 0aac 00D0      		rcall lcd_line
 2417               	.L188:
 2418               	/* epilogue start */
 2419               	.LM283:
 2420 0aae DF91      		pop r29
 2421 0ab0 CF91      		pop r28
 2422               	.LVL229:
 2423 0ab2 0F91      		pop r16
 2424 0ab4 0895      		ret
 2425               	.LFE55:
 2427               	.global	draw_values_line
 2429               	draw_values_line:
 2430               	.LFB56:
 2431               	.LM284:
 2432               	.LVL230:
 2433 0ab6 EF92      		push r14
 2434 0ab8 0F93      		push r16
 2435               	/* prologue: function */
 2436               	/* frame size = 0 */
 2437               	.LM285:
 2438 0aba 8431      		cpi r24,lo8(20)
 2439 0abc 01F0      		breq .L191
 2440 0abe 8035      		cpi r24,lo8(80)
 2441 0ac0 01F4      		brne .L195
 2442 0ac2 00C0      		rjmp .L198
 2443               	.L191:
 2444               	.LM286:
 2445 0ac4 80E0      		ldi r24,lo8(small_two)
 2446 0ac6 90E0      		ldi r25,hi8(small_two)
 2447               	.LVL231:
 2448 0ac8 62E4      		ldi r22,lo8(66)
 2449 0aca 48E0      		ldi r20,lo8(8)
 2450 0acc 23E0      		ldi r18,lo8(3)
 2451 0ace 05E0      		ldi r16,lo8(5)
 2452 0ad0 EE24      		clr r14
 2453 0ad2 E394      		inc r14
 2454 0ad4 00D0      		rcall lcd_draw
 2455               	.LM287:
 2456 0ad6 80E0      		ldi r24,lo8(small_one)
 2457 0ad8 90E0      		ldi r25,hi8(small_one)
 2458 0ada 62E4      		ldi r22,lo8(66)
 2459 0adc 40E1      		ldi r20,lo8(16)
 2460 0ade 22E0      		ldi r18,lo8(2)
 2461 0ae0 00D0      		rcall lcd_draw
 2462               	.LM288:
 2463 0ae2 80E0      		ldi r24,lo8(small_one)
 2464 0ae4 90E0      		ldi r25,hi8(small_one)
 2465 0ae6 62E4      		ldi r22,lo8(66)
 2466 0ae8 40E2      		ldi r20,lo8(32)
 2467 0aea 22E0      		ldi r18,lo8(2)
 2468 0aec 00C0      		rjmp .L196
 2469               	.LVL232:
 2470               	.L198:
 2471               	.LM289:
 2472 0aee 80E0      		ldi r24,lo8(small_eight)
 2473 0af0 90E0      		ldi r25,hi8(small_eight)
 2474               	.LVL233:
 2475 0af2 62E4      		ldi r22,lo8(66)
 2476 0af4 48E0      		ldi r20,lo8(8)
 2477 0af6 23E0      		ldi r18,lo8(3)
 2478 0af8 05E0      		ldi r16,lo8(5)
 2479 0afa EE24      		clr r14
 2480 0afc E394      		inc r14
 2481 0afe 00D0      		rcall lcd_draw
 2482               	.LM290:
 2483 0b00 80E0      		ldi r24,lo8(small_four)
 2484 0b02 90E0      		ldi r25,hi8(small_four)
 2485 0b04 62E4      		ldi r22,lo8(66)
 2486 0b06 40E1      		ldi r20,lo8(16)
 2487 0b08 23E0      		ldi r18,lo8(3)
 2488 0b0a 00D0      		rcall lcd_draw
 2489               	.LM291:
 2490 0b0c 80E0      		ldi r24,lo8(small_four)
 2491 0b0e 90E0      		ldi r25,hi8(small_four)
 2492 0b10 00C0      		rjmp .L197
 2493               	.LVL234:
 2494               	.L195:
 2495               	.LM292:
 2496 0b12 80E0      		ldi r24,lo8(small_four)
 2497 0b14 90E0      		ldi r25,hi8(small_four)
 2498               	.LVL235:
 2499 0b16 62E4      		ldi r22,lo8(66)
 2500 0b18 48E0      		ldi r20,lo8(8)
 2501 0b1a 23E0      		ldi r18,lo8(3)
 2502 0b1c 05E0      		ldi r16,lo8(5)
 2503 0b1e EE24      		clr r14
 2504 0b20 E394      		inc r14
 2505 0b22 00D0      		rcall lcd_draw
 2506               	.LM293:
 2507 0b24 80E0      		ldi r24,lo8(small_two)
 2508 0b26 90E0      		ldi r25,hi8(small_two)
 2509 0b28 62E4      		ldi r22,lo8(66)
 2510 0b2a 40E1      		ldi r20,lo8(16)
 2511 0b2c 23E0      		ldi r18,lo8(3)
 2512 0b2e 00D0      		rcall lcd_draw
 2513               	.LM294:
 2514 0b30 80E0      		ldi r24,lo8(small_two)
 2515 0b32 90E0      		ldi r25,hi8(small_two)
 2516               	.L197:
 2517 0b34 62E4      		ldi r22,lo8(66)
 2518 0b36 40E2      		ldi r20,lo8(32)
 2519 0b38 23E0      		ldi r18,lo8(3)
 2520               	.L196:
 2521 0b3a 00D0      		rcall lcd_draw
 2522               	/* epilogue start */
 2523               	.LM295:
 2524 0b3c 0F91      		pop r16
 2525 0b3e EF90      		pop r14
 2526 0b40 0895      		ret
 2527               	.LFE56:
 2529               	.global	draw_interface
 2531               	draw_interface:
 2532               	.LFB57:
 2533               	.LM296:
 2534 0b42 EF92      		push r14
 2535 0b44 0F93      		push r16
 2536 0b46 1F93      		push r17
 2537 0b48 CF93      		push r28
 2538 0b4a DF93      		push r29
 2539               	/* prologue: function */
 2540               	/* frame size = 0 */
 2541               	.LM297:
 2542 0b4c 81E0      		ldi r24,lo8(1)
 2543 0b4e 61E0      		ldi r22,lo8(1)
 2544 0b50 4BE3      		ldi r20,lo8(59)
 2545 0b52 21E0      		ldi r18,lo8(1)
 2546 0b54 01E0      		ldi r16,lo8(1)
 2547 0b56 00D0      		rcall lcd_line
 2548               	.LM298:
 2549 0b58 81E0      		ldi r24,lo8(1)
 2550 0b5a 66E2      		ldi r22,lo8(38)
 2551 0b5c 4BE3      		ldi r20,lo8(59)
 2552 0b5e 26E2      		ldi r18,lo8(38)
 2553 0b60 00D0      		rcall lcd_line
 2554               	.LM299:
 2555 0b62 81E0      		ldi r24,lo8(1)
 2556 0b64 61E0      		ldi r22,lo8(1)
 2557 0b66 41E0      		ldi r20,lo8(1)
 2558 0b68 26E2      		ldi r18,lo8(38)
 2559 0b6a 00D0      		rcall lcd_line
 2560               	.LM300:
 2561 0b6c 8BE3      		ldi r24,lo8(59)
 2562 0b6e 61E0      		ldi r22,lo8(1)
 2563 0b70 4BE3      		ldi r20,lo8(59)
 2564 0b72 26E2      		ldi r18,lo8(38)
 2565 0b74 00D0      		rcall lcd_line
 2566 0b76 C1E0      		ldi r28,lo8(1)
 2567 0b78 D0E0      		ldi r29,hi8(1)
 2568               	.LVL236:
 2569               	.L201:
 2570               	.LBB233:
 2571               	.LM301:
 2572 0b7a C0FF      		sbrs r28,0
 2573 0b7c 00C0      		rjmp .L200
 2574 0b7e 8C2F      		mov r24,r28
 2575 0b80 6AE1      		ldi r22,lo8(26)
 2576 0b82 41E0      		ldi r20,lo8(1)
 2577 0b84 00D0      		rcall lcd_pixel
 2578               	.L200:
 2579               	.LM302:
 2580 0b86 2196      		adiw r28,1
 2581 0b88 CC33      		cpi r28,60
 2582 0b8a D105      		cpc r29,__zero_reg__
 2583 0b8c 01F4      		brne .L201
 2584               	.LBE233:
 2585               	.LM303:
 2586 0b8e 8DE4      		ldi r24,lo8(77)
 2587 0b90 62E0      		ldi r22,lo8(2)
 2588 0b92 4DE4      		ldi r20,lo8(77)
 2589 0b94 26E2      		ldi r18,lo8(38)
 2590 0b96 01E0      		ldi r16,lo8(1)
 2591 0b98 00D0      		rcall lcd_line
 2592               	.LM304:
 2593 0b9a 80E5      		ldi r24,lo8(80)
 2594 0b9c 62E0      		ldi r22,lo8(2)
 2595 0b9e 40E5      		ldi r20,lo8(80)
 2596 0ba0 26E2      		ldi r18,lo8(38)
 2597 0ba2 00D0      		rcall lcd_line
 2598               	.LM305:
 2599 0ba4 8EE4      		ldi r24,lo8(78)
 2600 0ba6 61E0      		ldi r22,lo8(1)
 2601 0ba8 4FE4      		ldi r20,lo8(79)
 2602 0baa 21E0      		ldi r18,lo8(1)
 2603 0bac 00D0      		rcall lcd_line
 2604               	.LM306:
 2605 0bae 8EE4      		ldi r24,lo8(78)
 2606 0bb0 66E2      		ldi r22,lo8(38)
 2607 0bb2 4FE4      		ldi r20,lo8(79)
 2608 0bb4 26E2      		ldi r18,lo8(38)
 2609 0bb6 00D0      		rcall lcd_line
 2610 0bb8 C1E0      		ldi r28,lo8(1)
 2611 0bba D0E0      		ldi r29,hi8(1)
 2612               	.LVL237:
 2613 0bbc 16E0      		ldi r17,lo8(6)
 2614               	.L203:
 2615               	.LBB234:
 2616               	.LM307:
 2617 0bbe 8CE4      		ldi r24,lo8(76)
 2618 0bc0 612F      		mov r22,r17
 2619 0bc2 41E0      		ldi r20,lo8(1)
 2620 0bc4 00D0      		rcall lcd_pixel
 2621               	.LM308:
 2622 0bc6 C0FD      		sbrc r28,0
 2623 0bc8 00C0      		rjmp .L202
 2624 0bca 8BE4      		ldi r24,lo8(75)
 2625 0bcc 612F      		mov r22,r17
 2626 0bce 41E0      		ldi r20,lo8(1)
 2627 0bd0 00D0      		rcall lcd_pixel
 2628               	.L202:
 2629               	.LM309:
 2630 0bd2 2196      		adiw r28,1
 2631 0bd4 1C5F      		subi r17,lo8(-(4))
 2632 0bd6 1632      		cpi r17,lo8(38)
 2633 0bd8 01F4      		brne .L203
 2634 0bda 18E0      		ldi r17,lo8(8)
 2635               	.L204:
 2636               	.LBE234:
 2637               	.LBB235:
 2638               	.LM310:
 2639 0bdc 80E0      		ldi r24,lo8(small_zero)
 2640 0bde 90E0      		ldi r25,hi8(small_zero)
 2641 0be0 66E4      		ldi r22,lo8(70)
 2642 0be2 412F      		mov r20,r17
 2643 0be4 24E0      		ldi r18,lo8(4)
 2644 0be6 05E0      		ldi r16,lo8(5)
 2645 0be8 EE24      		clr r14
 2646 0bea E394      		inc r14
 2647 0bec 00D0      		rcall lcd_draw
 2648 0bee 185F      		subi r17,lo8(-(8))
 2649               	.LM311:
 2650 0bf0 1832      		cpi r17,lo8(40)
 2651 0bf2 01F4      		brne .L204
 2652               	.LBE235:
 2653               	.LM312:
 2654 0bf4 8EE3      		ldi r24,lo8(62)
 2655 0bf6 62E2      		ldi r22,lo8(34)
 2656 0bf8 40E4      		ldi r20,lo8(64)
 2657 0bfa 22E2      		ldi r18,lo8(34)
 2658 0bfc 01E0      		ldi r16,lo8(1)
 2659 0bfe 00D0      		rcall lcd_line
 2660               	.LM313:
 2661 0c00 80E0      		ldi r24,lo8(ball)
 2662 0c02 90E0      		ldi r25,hi8(ball)
 2663 0c04 6BE4      		ldi r22,lo8(75)
 2664 0c06 47E2      		ldi r20,lo8(39)
 2665 0c08 28E0      		ldi r18,lo8(8)
 2666 0c0a 08E0      		ldi r16,lo8(8)
 2667 0c0c 00D0      		rcall lcd_draw
 2668               	.LM314:
 2669 0c0e 80E0      		ldi r24,lo8(small_s)
 2670 0c10 90E0      		ldi r25,hi8(small_s)
 2671 0c12 66E3      		ldi r22,lo8(54)
 2672 0c14 49E2      		ldi r20,lo8(41)
 2673 0c16 23E0      		ldi r18,lo8(3)
 2674 0c18 05E0      		ldi r16,lo8(5)
 2675 0c1a 00D0      		rcall lcd_draw
 2676               	.LM315:
 2677 0c1c 80E0      		ldi r24,lo8(small_p)
 2678 0c1e 90E0      		ldi r25,hi8(small_p)
 2679 0c20 6AE3      		ldi r22,lo8(58)
 2680 0c22 49E2      		ldi r20,lo8(41)
 2681 0c24 23E0      		ldi r18,lo8(3)
 2682 0c26 00D0      		rcall lcd_draw
 2683               	.LM316:
 2684 0c28 8091 0000 		lds r24,ovf_flag
 2685 0c2c 8823      		tst r24
 2686 0c2e 01F0      		breq .L207
 2687 0c30 12E4      		ldi r17,lo8(66)
 2688               	.L206:
 2689               	.LBB236:
 2690               	.LM317:
 2691 0c32 812F      		mov r24,r17
 2692 0c34 61E0      		ldi r22,lo8(1)
 2693 0c36 412F      		mov r20,r17
 2694 0c38 26E0      		ldi r18,lo8(6)
 2695 0c3a 01E0      		ldi r16,lo8(1)
 2696 0c3c 00D0      		rcall lcd_line
 2697 0c3e 1F5F      		subi r17,lo8(-(1))
 2698               	.LM318:
 2699 0c40 1734      		cpi r17,lo8(71)
 2700 0c42 01F4      		brne .L206
 2701               	.LBE236:
 2702               	.LM319:
 2703 0c44 84E4      		ldi r24,lo8(68)
 2704 0c46 62E0      		ldi r22,lo8(2)
 2705 0c48 44E4      		ldi r20,lo8(68)
 2706 0c4a 25E0      		ldi r18,lo8(5)
 2707 0c4c 00E0      		ldi r16,lo8(0)
 2708 0c4e 00D0      		rcall lcd_line
 2709               	.LM320:
 2710 0c50 84E4      		ldi r24,lo8(68)
 2711 0c52 64E0      		ldi r22,lo8(4)
 2712 0c54 41E0      		ldi r20,lo8(1)
 2713 0c56 00D0      		rcall lcd_pixel
 2714               	.L207:
 2715               	/* epilogue start */
 2716               	.LM321:
 2717 0c58 DF91      		pop r29
 2718 0c5a CF91      		pop r28
 2719               	.LVL238:
 2720 0c5c 1F91      		pop r17
 2721 0c5e 0F91      		pop r16
 2722 0c60 EF90      		pop r14
 2723 0c62 0895      		ret
 2724               	.LFE57:
 2726               	.global	lcd_put_char
 2728               	lcd_put_char:
 2729               	.LFB17:
 2730               	.LM322:
 2731               	.LVL239:
 2732 0c64 9F92      		push r9
 2733 0c66 AF92      		push r10
 2734 0c68 BF92      		push r11
 2735 0c6a CF92      		push r12
 2736 0c6c DF92      		push r13
 2737 0c6e EF92      		push r14
 2738 0c70 FF92      		push r15
 2739 0c72 0F93      		push r16
 2740 0c74 1F93      		push r17
 2741 0c76 CF93      		push r28
 2742 0c78 DF93      		push r29
 2743               	/* prologue: function */
 2744               	/* frame size = 0 */
 2745 0c7a F82E      		mov r15,r24
 2746 0c7c 962E      		mov r9,r22
 2747 0c7e A22E      		mov r10,r18
 2748               	.LBB237:
 2749               	.LBB238:
 2750               	.LM323:
 2751 0c80 85E0      		ldi r24,lo8(5)
 2752               	.LVL240:
 2753 0c82 489F      		mul r20,r24
 2754 0c84 A001      		movw r20,r0
 2755 0c86 1124      		clr r1
 2756               	.LVL241:
 2757 0c88 8A01      		movw r16,r20
 2758 0c8a 0050      		subi r16,lo8(-(CHARS_TABLE-160))
 2759 0c8c 1040      		sbci r17,hi8(-(CHARS_TABLE-160))
 2760               	.LBE238:
 2761               	.LM324:
 2762 0c8e 90E0      		ldi r25,lo8(CHARS_TABLE-155)
 2763 0c90 C92E      		mov r12,r25
 2764 0c92 90E0      		ldi r25,hi8(CHARS_TABLE-155)
 2765 0c94 D92E      		mov r13,r25
 2766 0c96 C40E      		add r12,r20
 2767 0c98 D51E      		adc r13,r21
 2768 0c9a 00C0      		rjmp .L213
 2769               	.LVL242:
 2770               	.L215:
 2771               	.LBB239:
 2772               	.LM325:
 2773 0c9c 8B2D      		mov r24,r11
 2774 0c9e 9E2D      		mov r25,r14
 2775 0ca0 00D0      		rcall __eerd_byte_m8
 2776 0ca2 90E0      		ldi r25,lo8(0)
 2777 0ca4 0C2E      		mov r0,r28
 2778 0ca6 00C0      		rjmp 2f
 2779 0ca8 9595      	1:	asr r25
 2780 0caa 8795      		ror r24
 2781 0cac 0A94      	2:	dec r0
 2782 0cae 02F4      		brpl 1b
 2783 0cb0 80FF      		sbrs r24,0
 2784 0cb2 00C0      		rjmp .L214
 2785 0cb4 692D      		mov r22,r9
 2786 0cb6 6C0F      		add r22,r28
 2787 0cb8 8F2D      		mov r24,r15
 2788 0cba 4A2D      		mov r20,r10
 2789 0cbc 00D0      		rcall lcd_pixel
 2790               	.L214:
 2791               	.LM326:
 2792 0cbe 2196      		adiw r28,1
 2793 0cc0 C830      		cpi r28,8
 2794 0cc2 D105      		cpc r29,__zero_reg__
 2795 0cc4 01F4      		brne .L215
 2796 0cc6 0F5F      		subi r16,lo8(-(1))
 2797 0cc8 1F4F      		sbci r17,hi8(-(1))
 2798 0cca F394      		inc r15
 2799               	.LBE239:
 2800               	.LM327:
 2801 0ccc 0C15      		cp r16,r12
 2802 0cce 1D05      		cpc r17,r13
 2803 0cd0 01F0      		breq .L217
 2804               	.LVL243:
 2805               	.L213:
 2806 0cd2 B02E      		mov r11,r16
 2807 0cd4 E12E      		mov r14,r17
 2808 0cd6 C0E0      		ldi r28,lo8(0)
 2809 0cd8 D0E0      		ldi r29,hi8(0)
 2810 0cda 00C0      		rjmp .L215
 2811               	.LVL244:
 2812               	.L217:
 2813               	/* epilogue start */
 2814               	.LBE237:
 2815               	.LM328:
 2816 0cdc DF91      		pop r29
 2817 0cde CF91      		pop r28
 2818               	.LVL245:
 2819 0ce0 1F91      		pop r17
 2820 0ce2 0F91      		pop r16
 2821 0ce4 FF90      		pop r15
 2822               	.LVL246:
 2823 0ce6 EF90      		pop r14
 2824 0ce8 DF90      		pop r13
 2825 0cea CF90      		pop r12
 2826 0cec BF90      		pop r11
 2827 0cee AF90      		pop r10
 2828               	.LVL247:
 2829 0cf0 9F90      		pop r9
 2830               	.LVL248:
 2831 0cf2 0895      		ret
 2832               	.LFE17:
 2834               	.global	lcd_put_string
 2836               	lcd_put_string:
 2837               	.LFB18:
 2838               	.LM329:
 2839               	.LVL249:
 2840 0cf4 BF92      		push r11
 2841 0cf6 CF92      		push r12
 2842 0cf8 DF92      		push r13
 2843 0cfa EF92      		push r14
 2844 0cfc FF92      		push r15
 2845 0cfe 0F93      		push r16
 2846 0d00 1F93      		push r17
 2847 0d02 CF93      		push r28
 2848 0d04 DF93      		push r29
 2849               	/* prologue: function */
 2850               	/* frame size = 0 */
 2851 0d06 D82E      		mov r13,r24
 2852 0d08 B62E      		mov r11,r22
 2853 0d0a 7A01      		movw r14,r20
 2854 0d0c C22E      		mov r12,r18
 2855               	.LM330:
 2856 0d0e EA01      		movw r28,r20
 2857               	.LVL250:
 2858 0d10 0990      		ld __tmp_reg__,Y+
 2859 0d12 0020      		tst __tmp_reg__
 2860 0d14 01F4      		brne .-6
 2861 0d16 2197      		sbiw r28,1
 2862 0d18 C41B      		sub r28,r20
 2863 0d1a D50B      		sbc r29,r21
 2864 0d1c 00E0      		ldi r16,lo8(0)
 2865 0d1e 10E0      		ldi r17,hi8(0)
 2866               	.LVL251:
 2867 0d20 00C0      		rjmp .L220
 2868               	.LVL252:
 2869               	.L221:
 2870               	.LBB240:
 2871               	.LM331:
 2872 0d22 F701      		movw r30,r14
 2873 0d24 E00F      		add r30,r16
 2874 0d26 F11F      		adc r31,r17
 2875 0d28 8D2D      		mov r24,r13
 2876 0d2a 6B2D      		mov r22,r11
 2877 0d2c 4081      		ld r20,Z
 2878               	.LVL253:
 2879 0d2e 2C2D      		mov r18,r12
 2880 0d30 00D0      		rcall lcd_put_char
 2881               	.LM332:
 2882 0d32 0F5F      		subi r16,lo8(-(1))
 2883 0d34 1F4F      		sbci r17,hi8(-(1))
 2884 0d36 86E0      		ldi r24,lo8(6)
 2885 0d38 D80E      		add r13,r24
 2886               	.LVL254:
 2887               	.L220:
 2888 0d3a 0C17      		cp r16,r28
 2889 0d3c 1D07      		cpc r17,r29
 2890 0d3e 04F0      		brlt .L221
 2891               	.LVL255:
 2892               	.LBE240:
 2893               	.LM333:
 2894 0d40 CE01      		movw r24,r28
 2895               	.LVL256:
 2896               	/* epilogue start */
 2897 0d42 DF91      		pop r29
 2898 0d44 CF91      		pop r28
 2899 0d46 1F91      		pop r17
 2900 0d48 0F91      		pop r16
 2901               	.LVL257:
 2902 0d4a FF90      		pop r15
 2903 0d4c EF90      		pop r14
 2904 0d4e DF90      		pop r13
 2905               	.LVL258:
 2906 0d50 CF90      		pop r12
 2907               	.LVL259:
 2908 0d52 BF90      		pop r11
 2909               	.LVL260:
 2910 0d54 0895      		ret
 2911               	.LFE18:
 2913               	.global	draw_current_value
 2915               	draw_current_value:
 2916               	.LFB54:
 2917               	.LM334:
 2918               	.LVL261:
 2919 0d56 CF92      		push r12
 2920 0d58 DF92      		push r13
 2921 0d5a EF92      		push r14
 2922 0d5c FF92      		push r15
 2923 0d5e 0F93      		push r16
 2924 0d60 1F93      		push r17
 2925 0d62 DF93      		push r29
 2926 0d64 CF93      		push r28
 2927 0d66 00D0      		rcall .
 2928 0d68 00D0      		rcall .
 2929 0d6a 0F92      		push __tmp_reg__
 2930 0d6c CDB7      		in r28,__SP_L__
 2931 0d6e DEB7      		in r29,__SP_H__
 2932               	/* prologue: function */
 2933               	/* frame size = 5 */
 2934 0d70 6C01      		movw r12,r24
 2935               	.LM335:
 2936 0d72 D7FC      		sbrc r13,7
 2937 0d74 00C0      		rjmp .L224
 2938               	.LVL262:
 2939 0d76 11E0      		ldi r17,lo8(1)
 2940               	.LVL263:
 2941 0d78 00C0      		rjmp .L225
 2942               	.LVL264:
 2943               	.L224:
 2944               	.LM336:
 2945 0d7a 81E0      		ldi r24,lo8(1)
 2946 0d7c 68E2      		ldi r22,lo8(40)
 2947 0d7e 4DE2      		ldi r20,lo8(45)
 2948 0d80 21E0      		ldi r18,lo8(1)
 2949 0d82 00D0      		rcall lcd_put_char
 2950               	.LM337:
 2951 0d84 C601      		movw r24,r12
 2952               	.LVL265:
 2953 0d86 8095      		com r24
 2954 0d88 9095      		com r25
 2955 0d8a 17E0      		ldi r17,lo8(7)
 2956               	.LVL266:
 2957               	.L225:
 2958               	.LM338:
 2959 0d8c 292F      		mov r18,r25
 2960 0d8e 3327      		clr r19
 2961 0d90 27FD      		sbrc r18,7
 2962 0d92 3A95      		dec r19
 2963 0d94 30E0      		ldi r19,lo8(0)
 2964 0d96 2770      		andi r18,lo8(7)
 2965 0d98 3070      		andi r19,hi8(7)
 2966 0d9a 44E0      		ldi r20,4
 2967 0d9c 220F      	1:	lsl r18
 2968 0d9e 331F      		rol r19
 2969 0da0 4A95      		dec r20
 2970 0da2 01F4      		brne 1b
 2971 0da4 8295      		swap r24
 2972               	.LVL267:
 2973 0da6 8F70      		andi r24,lo8(15)
 2974 0da8 822B      		or r24,r18
 2975 0daa 90E0      		ldi r25,lo8(0)
 2976 0dac 7E01      		movw r14,r28
 2977 0dae 0894      		sec
 2978 0db0 E11C      		adc r14,__zero_reg__
 2979 0db2 F11C      		adc r15,__zero_reg__
 2980 0db4 B701      		movw r22,r14
 2981 0db6 4AE0      		ldi r20,lo8(10)
 2982 0db8 50E0      		ldi r21,hi8(10)
 2983 0dba 00D0      		rcall itoa
 2984               	.LM339:
 2985 0dbc 812F      		mov r24,r17
 2986 0dbe 68E2      		ldi r22,lo8(40)
 2987 0dc0 A701      		movw r20,r14
 2988 0dc2 21E0      		ldi r18,lo8(1)
 2989 0dc4 00D0      		rcall lcd_put_string
 2990               	.LM340:
 2991 0dc6 06E0      		ldi r16,lo8(6)
 2992 0dc8 809F      		mul r24,r16
 2993 0dca C001      		movw r24,r0
 2994 0dcc 1124      		clr r1
 2995 0dce 180F      		add r17,r24
 2996               	.LVL268:
 2997               	.LM341:
 2998 0dd0 812F      		mov r24,r17
 2999 0dd2 68E2      		ldi r22,lo8(40)
 3000 0dd4 4EE2      		ldi r20,lo8(46)
 3001 0dd6 21E0      		ldi r18,lo8(1)
 3002 0dd8 00D0      		rcall lcd_put_char
 3003               	.LM342:
 3004 0dda 1A5F      		subi r17,lo8(-(6))
 3005               	.LVL269:
 3006               	.LM343:
 3007 0ddc C601      		movw r24,r12
 3008 0dde 00D0      		rcall t_float_part
 3009 0de0 20E0      		ldi r18,lo8(0x41200000)
 3010 0de2 30E0      		ldi r19,hi8(0x41200000)
 3011 0de4 40E2      		ldi r20,hlo8(0x41200000)
 3012 0de6 51E4      		ldi r21,hhi8(0x41200000)
 3013 0de8 00D0      		rcall __mulsf3
 3014 0dea 00D0      		rcall __fixsfsi
 3015 0dec DC01      		movw r26,r24
 3016 0dee CB01      		movw r24,r22
 3017 0df0 B701      		movw r22,r14
 3018 0df2 4AE0      		ldi r20,lo8(10)
 3019 0df4 50E0      		ldi r21,hi8(10)
 3020 0df6 00D0      		rcall itoa
 3021               	.LM344:
 3022 0df8 812F      		mov r24,r17
 3023 0dfa 68E2      		ldi r22,lo8(40)
 3024 0dfc A701      		movw r20,r14
 3025 0dfe 21E0      		ldi r18,lo8(1)
 3026 0e00 00D0      		rcall lcd_put_string
 3027               	.LM345:
 3028 0e02 809F      		mul r24,r16
 3029 0e04 C001      		movw r24,r0
 3030 0e06 1124      		clr r1
 3031 0e08 180F      		add r17,r24
 3032               	.LVL270:
 3033               	.LM346:
 3034 0e0a 80E0      		ldi r24,lo8(deg_char)
 3035 0e0c 90E0      		ldi r25,hi8(deg_char)
 3036 0e0e 612F      		mov r22,r17
 3037 0e10 48E2      		ldi r20,lo8(40)
 3038 0e12 25E0      		ldi r18,lo8(5)
 3039 0e14 03E0      		ldi r16,lo8(3)
 3040 0e16 EE24      		clr r14
 3041 0e18 E394      		inc r14
 3042 0e1a 00D0      		rcall lcd_draw
 3043               	.LM347:
 3044 0e1c 812F      		mov r24,r17
 3045 0e1e 8A5F      		subi r24,lo8(-(6))
 3046 0e20 68E2      		ldi r22,lo8(40)
 3047 0e22 43E4      		ldi r20,lo8(67)
 3048 0e24 21E0      		ldi r18,lo8(1)
 3049 0e26 00D0      		rcall lcd_put_char
 3050               	/* epilogue start */
 3051               	.LM348:
 3052 0e28 0F90      		pop __tmp_reg__
 3053 0e2a 0F90      		pop __tmp_reg__
 3054 0e2c 0F90      		pop __tmp_reg__
 3055 0e2e 0F90      		pop __tmp_reg__
 3056 0e30 0F90      		pop __tmp_reg__
 3057 0e32 CF91      		pop r28
 3058 0e34 DF91      		pop r29
 3059 0e36 1F91      		pop r17
 3060               	.LVL271:
 3061 0e38 0F91      		pop r16
 3062 0e3a FF90      		pop r15
 3063 0e3c EF90      		pop r14
 3064 0e3e DF90      		pop r13
 3065               	.LVL272:
 3066 0e40 CF90      		pop r12
 3067               	.LVL273:
 3068 0e42 0895      		ret
 3069               	.LFE54:
 3071               	.global	lcd_clear
 3073               	lcd_clear:
 3074               	.LFB8:
 3075               	.LM349:
 3076               	/* prologue: function */
 3077               	/* frame size = 0 */
 3078               	.LM350:
 3079 0e44 88EF      		ldi r24,lo8(504)
 3080 0e46 91E0      		ldi r25,hi8(504)
 3081 0e48 E0E0      		ldi r30,lo8(LCD_CACHE)
 3082 0e4a F0E0      		ldi r31,hi8(LCD_CACHE)
 3083 0e4c DF01      		movw r26,r30
 3084 0e4e 9C01      		movw r18,r24
 3085 0e50 1D92      		st X+,__zero_reg__
 3086 0e52 2150      		subi r18,1
 3087 0e54 3040      		sbci r19,0
 3088 0e56 01F4      		brne .-8
 3089               	.LM351:
 3090 0e58 1092 0000 		sts (LWM)+1,__zero_reg__
 3091 0e5c 1092 0000 		sts LWM,__zero_reg__
 3092               	.LM352:
 3093 0e60 87EF      		ldi r24,lo8(503)
 3094 0e62 91E0      		ldi r25,hi8(503)
 3095 0e64 9093 0000 		sts (HWM)+1,r25
 3096 0e68 8093 0000 		sts HWM,r24
 3097               	/* epilogue start */
 3098               	.LM353:
 3099 0e6c 0895      		ret
 3100               	.LFE8:
 3102               	.global	lcd_init
 3104               	lcd_init:
 3105               	.LFB10:
 3106               	.LM354:
 3107               	/* prologue: function */
 3108               	/* frame size = 0 */
 3109               	.LM355:
 3110 0e6e C49A      		sbi 56-32,4
 3111               	.LM356:
 3112 0e70 87B3      		in r24,55-32
 3113 0e72 8E63      		ori r24,lo8(62)
 3114 0e74 87BB      		out 55-32,r24
 3115               	.LM357:
 3116 0e76 C498      		cbi 56-32,4
 3117               	.LM358:
 3118 0e78 C49A      		sbi 56-32,4
 3119               	.LM359:
 3120 0e7a 80E5      		ldi r24,lo8(80)
 3121 0e7c 8DB9      		out 45-32,r24
 3122               	.LM360:
 3123 0e7e C29A      		sbi 56-32,2
 3124               	.LM361:
 3125 0e80 81E2      		ldi r24,lo8(33)
 3126 0e82 00D0      		rcall lcd_send_cmd
 3127               	.LM362:
 3128 0e84 88EC      		ldi r24,lo8(-56)
 3129 0e86 00D0      		rcall lcd_send_cmd
 3130               	.LM363:
 3131 0e88 86E0      		ldi r24,lo8(6)
 3132 0e8a 00D0      		rcall lcd_send_cmd
 3133               	.LM364:
 3134 0e8c 83E1      		ldi r24,lo8(19)
 3135 0e8e 00D0      		rcall lcd_send_cmd
 3136               	.LM365:
 3137 0e90 80E2      		ldi r24,lo8(32)
 3138 0e92 00D0      		rcall lcd_send_cmd
 3139               	.LM366:
 3140 0e94 8CE0      		ldi r24,lo8(12)
 3141 0e96 00D0      		rcall lcd_send_cmd
 3142               	.LM367:
 3143 0e98 00D0      		rcall lcd_clear
 3144               	.LM368:
 3145 0e9a 00D0      		rcall lcd_update
 3146               	/* epilogue start */
 3147               	.LM369:
 3148 0e9c 0895      		ret
 3149               	.LFE10:
 3151               		.data
 3152               	.LC0:
 3153 0000 486F 6F6B 		.string	"Hooks"
 3153      7300 
 3154               		.text
 3155               	.global	main
 3157               	main:
 3158               	.LFB46:
 3159               	.LM370:
 3160 0e9e 2F92      		push r2
 3161 0ea0 3F92      		push r3
 3162 0ea2 4F92      		push r4
 3163 0ea4 5F92      		push r5
 3164 0ea6 6F92      		push r6
 3165 0ea8 7F92      		push r7
 3166 0eaa 8F92      		push r8
 3167 0eac 9F92      		push r9
 3168 0eae AF92      		push r10
 3169 0eb0 BF92      		push r11
 3170 0eb2 CF92      		push r12
 3171 0eb4 DF92      		push r13
 3172 0eb6 EF92      		push r14
 3173 0eb8 FF92      		push r15
 3174 0eba 0F93      		push r16
 3175 0ebc 1F93      		push r17
 3176 0ebe DF93      		push r29
 3177 0ec0 CF93      		push r28
 3178 0ec2 0F92      		push __tmp_reg__
 3179 0ec4 CDB7      		in r28,__SP_L__
 3180 0ec6 DEB7      		in r29,__SP_H__
 3181               	/* prologue: function */
 3182               	/* frame size = 1 */
 3183               	.LM371:
 3184 0ec8 00D0      		rcall lcd_init
 3185               	.LBB241:
 3186               	.LBB242:
 3187               	.LM372:
 3188 0eca 14BA      		out 52-32,__zero_reg__
 3189               	.LM373:
 3190 0ecc 80EF      		ldi r24,lo8(-16)
 3191 0ece 81BB      		out 49-32,r24
 3192               	.LBE242:
 3193               	.LBE241:
 3194               	.LBB243:
 3195               	.LBB244:
 3196               	.LM374:
 3197 0ed0 84E0      		ldi r24,lo8(4)
 3198 0ed2 83BF      		out 83-32,r24
 3199               	.LM375:
 3200 0ed4 89B7      		in r24,89-32
 3201 0ed6 8160      		ori r24,lo8(1)
 3202 0ed8 89BF      		out 89-32,r24
 3203               	.LM376:
 3204               	/* #APP */
 3205               	 ;  26 "include/clock.h" 1
 3206 0eda 7894      		sei
 3207               	 ;  0 "" 2
 3208               	/* #NOAPP */
 3209               	.LBE244:
 3210               	.LBE243:
 3211               	.LM377:
 3212 0edc 00D0      		rcall hooks_init
 3213               	.L343:
 3214               	.LBB245:
 3215               	.LBB246:
 3216               	.LBB247:
 3217               	.LBB248:
 3218               	.LM378:
 3219 0ede 80E2      		ldi r24,lo8(20000)
 3220 0ee0 9EE4      		ldi r25,hi8(20000)
 3221               	.LVL274:
 3222               	/* #APP */
 3223               	 ;  105 "c:/winavr-20100110/lib/gcc/../../avr/include/util/delay_basic.h" 1
 3224 0ee2 0197      		1: sbiw r24,1
 3225 0ee4 01F4      		brne 1b
 3226               	 ;  0 "" 2
 3227               	/* #NOAPP */
 3228               	.LBE248:
 3229               	.LBE247:
 3230               	.LBE246:
 3231               	.LBE245:
 3232               	.LM379:
 3233 0ee6 8091 0000 		lds r24,conversion
 3234               	.LVL275:
 3235 0eea 8823      		tst r24
 3236 0eec 01F4      		brne .L232
 3237               	.LM380:
 3238 0eee 00D0      		rcall dt_convert
 3239               	.LM381:
 3240 0ef0 21E0      		ldi r18,lo8(1)
 3241 0ef2 2093 0000 		sts conversion,r18
 3242               	.LM382:
 3243 0ef6 8091 0000 		lds r24,__clock__
 3244 0efa 8093 0000 		sts conversion_start,r24
 3245 0efe 8091 0000 		lds r24,__clock__+1
 3246 0f02 8093 0000 		sts conversion_start+1,r24
 3247 0f06 8091 0000 		lds r24,__clock__+2
 3248 0f0a 8093 0000 		sts conversion_start+2,r24
 3249 0f0e 8091 0000 		lds r24,__clock__+3
 3250 0f12 8093 0000 		sts conversion_start+3,r24
 3251 0f16 8091 0000 		lds r24,__clock__+4
 3252 0f1a 8093 0000 		sts conversion_start+4,r24
 3253 0f1e 8091 0000 		lds r24,__clock__+5
 3254 0f22 8093 0000 		sts conversion_start+5,r24
 3255 0f26 8091 0000 		lds r24,__clock__+6
 3256 0f2a 8093 0000 		sts conversion_start+6,r24
 3257 0f2e 8091 0000 		lds r24,__clock__+7
 3258 0f32 8093 0000 		sts conversion_start+7,r24
 3259               	.L232:
 3260               	.LM383:
 3261 0f36 9091 0000 		lds r25,__clock__
 3262 0f3a 4091 0000 		lds r20,__clock__+1
 3263 0f3e 7091 0000 		lds r23,__clock__+2
 3264 0f42 F091 0000 		lds r31,__clock__+3
 3265 0f46 B091 0000 		lds r27,__clock__+4
 3266 0f4a 0091 0000 		lds r16,__clock__+5
 3267 0f4e E090 0000 		lds r14,__clock__+6
 3268 0f52 6091 0000 		lds r22,__clock__+7
 3269 0f56 8091 0000 		lds r24,conversion_start
 3270 0f5a 2091 0000 		lds r18,conversion_start+1
 3271 0f5e E091 0000 		lds r30,conversion_start+2
 3272 0f62 A091 0000 		lds r26,conversion_start+3
 3273 0f66 F090 0000 		lds r15,conversion_start+4
 3274 0f6a D090 0000 		lds r13,conversion_start+5
 3275 0f6e B090 0000 		lds r11,conversion_start+6
 3276 0f72 A090 0000 		lds r10,conversion_start+7
 3277 0f76 C92E      		mov r12,r25
 3278 0f78 C81A      		sub r12,r24
 3279 0f7a 31E0      		ldi r19,lo8(1)
 3280 0f7c 9C15      		cp r25,r12
 3281 0f7e 00F0      		brlo .L234
 3282 0f80 30E0      		ldi r19,lo8(0)
 3283               	.L234:
 3284 0f82 842F      		mov r24,r20
 3285 0f84 821B      		sub r24,r18
 3286 0f86 21E0      		ldi r18,lo8(1)
 3287 0f88 4817      		cp r20,r24
 3288 0f8a 00F0      		brlo .L235
 3289 0f8c 20E0      		ldi r18,lo8(0)
 3290               	.L235:
 3291 0f8e 582F      		mov r21,r24
 3292 0f90 531B      		sub r21,r19
 3293 0f92 91E0      		ldi r25,lo8(1)
 3294 0f94 8517      		cp r24,r21
 3295 0f96 00F0      		brlo .L236
 3296 0f98 90E0      		ldi r25,lo8(0)
 3297               	.L236:
 3298 0f9a 292B      		or r18,r25
 3299 0f9c 872F      		mov r24,r23
 3300 0f9e 8E1B      		sub r24,r30
 3301 0fa0 31E0      		ldi r19,lo8(1)
 3302 0fa2 7817      		cp r23,r24
 3303 0fa4 00F0      		brlo .L237
 3304 0fa6 30E0      		ldi r19,lo8(0)
 3305               	.L237:
 3306 0fa8 182F      		mov r17,r24
 3307 0faa 121B      		sub r17,r18
 3308 0fac 91E0      		ldi r25,lo8(1)
 3309 0fae 8117      		cp r24,r17
 3310 0fb0 00F0      		brlo .L238
 3311 0fb2 90E0      		ldi r25,lo8(0)
 3312               	.L238:
 3313 0fb4 392B      		or r19,r25
 3314 0fb6 8F2F      		mov r24,r31
 3315 0fb8 8A1B      		sub r24,r26
 3316 0fba 21E0      		ldi r18,lo8(1)
 3317 0fbc F817      		cp r31,r24
 3318 0fbe 00F0      		brlo .L239
 3319 0fc0 20E0      		ldi r18,lo8(0)
 3320               	.L239:
 3321 0fc2 E82F      		mov r30,r24
 3322 0fc4 E31B      		sub r30,r19
 3323 0fc6 91E0      		ldi r25,lo8(1)
 3324 0fc8 8E17      		cp r24,r30
 3325 0fca 00F0      		brlo .L240
 3326 0fcc 90E0      		ldi r25,lo8(0)
 3327               	.L240:
 3328 0fce 292B      		or r18,r25
 3329 0fd0 8B2F      		mov r24,r27
 3330 0fd2 8F19      		sub r24,r15
 3331 0fd4 31E0      		ldi r19,lo8(1)
 3332 0fd6 B817      		cp r27,r24
 3333 0fd8 00F0      		brlo .L241
 3334 0fda 30E0      		ldi r19,lo8(0)
 3335               	.L241:
 3336 0fdc 782F      		mov r23,r24
 3337 0fde 721B      		sub r23,r18
 3338 0fe0 91E0      		ldi r25,lo8(1)
 3339 0fe2 8717      		cp r24,r23
 3340 0fe4 00F0      		brlo .L242
 3341 0fe6 90E0      		ldi r25,lo8(0)
 3342               	.L242:
 3343 0fe8 392B      		or r19,r25
 3344 0fea 802F      		mov r24,r16
 3345 0fec 8D19      		sub r24,r13
 3346 0fee 21E0      		ldi r18,lo8(1)
 3347 0ff0 0817      		cp r16,r24
 3348 0ff2 00F0      		brlo .L243
 3349 0ff4 20E0      		ldi r18,lo8(0)
 3350               	.L243:
 3351 0ff6 482F      		mov r20,r24
 3352 0ff8 431B      		sub r20,r19
 3353 0ffa 91E0      		ldi r25,lo8(1)
 3354 0ffc 8417      		cp r24,r20
 3355 0ffe 00F0      		brlo .L244
 3356 1000 90E0      		ldi r25,lo8(0)
 3357               	.L244:
 3358 1002 292B      		or r18,r25
 3359 1004 8E2D      		mov r24,r14
 3360 1006 8B19      		sub r24,r11
 3361 1008 91E0      		ldi r25,lo8(1)
 3362 100a E816      		cp r14,r24
 3363 100c 00F0      		brlo .L245
 3364 100e 90E0      		ldi r25,lo8(0)
 3365               	.L245:
 3366 1010 382F      		mov r19,r24
 3367 1012 321B      		sub r19,r18
 3368 1014 21E0      		ldi r18,lo8(1)
 3369 1016 8317      		cp r24,r19
 3370 1018 00F0      		brlo .L246
 3371 101a 20E0      		ldi r18,lo8(0)
 3372               	.L246:
 3373 101c 922B      		or r25,r18
 3374 101e 6A19      		sub r22,r10
 3375 1020 6917      		cp r22,r25
 3376 1022 01F4      		brne .L345
 3377 1024 3323      		tst r19
 3378 1026 01F4      		brne .L345
 3379 1028 4423      		tst r20
 3380 102a 01F4      		brne .L345
 3381 102c 7723      		tst r23
 3382 102e 01F4      		brne .L345
 3383 1030 EE23      		tst r30
 3384 1032 01F4      		brne .L345
 3385 1034 1123      		tst r17
 3386 1036 01F4      		brne .L345
 3387 1038 5330      		cpi r21,lo8(3)
 3388 103a 00F4      		brsh .L345
 3389 103c 5230      		cpi r21,lo8(2)
 3390 103e 01F4      		brne .L233
 3391 1040 3EEE      		ldi r19,lo8(-18)
 3392 1042 3C15      		cp r19,r12
 3393 1044 00F4      		brsh .L233
 3394               	.L345:
 3395               	.LM384:
 3396 1046 00D0      		rcall dt_read
 3397 1048 9093 0000 		sts (actual_t)+1,r25
 3398 104c 8093 0000 		sts actual_t,r24
 3399               	.LM385:
 3400 1050 1092 0000 		sts conversion,__zero_reg__
 3401               	.L233:
 3402               	.LBB249:
 3403               	.LBB250:
 3404               	.LM386:
 3405 1054 C090 0000 		lds r12,__clock__
 3406 1058 B090 0000 		lds r11,__clock__+1
 3407 105c A090 0000 		lds r10,__clock__+2
 3408 1060 9090 0000 		lds r9,__clock__+3
 3409 1064 8090 0000 		lds r8,__clock__+4
 3410 1068 7090 0000 		lds r7,__clock__+5
 3411 106c 6090 0000 		lds r6,__clock__+6
 3412 1070 4091 0000 		lds r20,__clock__+7
 3413 1074 4983      		std Y+1,r20
 3414               	.LBE250:
 3415               	.LBE249:
 3416               	.LM387:
 3417 1076 8091 0000 		lds r24,usp
 3418 107a 9091 0000 		lds r25,(usp)+1
 3419 107e FC01      		movw r30,r24
 3420 1080 28EE      		ldi r18,lo8(1000)
 3421 1082 33E0      		ldi r19,hi8(1000)
 3422 1084 E29F      		mul r30,r18
 3423 1086 C001      		movw r24,r0
 3424 1088 E39F      		mul r30,r19
 3425 108a 900D      		add r25,r0
 3426 108c F29F      		mul r31,r18
 3427 108e 900D      		add r25,r0
 3428 1090 1124      		clr r1
 3429 1092 8456      		subi r24,lo8(-(-100))
 3430 1094 9040      		sbci r25,hi8(-(-100))
 3431 1096 8C01      		movw r16,r24
 3432 1098 20E0      		ldi r18,lo8(0)
 3433 109a 30E0      		ldi r19,hi8(0)
 3434 109c 40E0      		ldi r20,lo8(0)
 3435 109e 50E0      		ldi r21,hi8(0)
 3436 10a0 60E0      		ldi r22,hlo8(0)
 3437 10a2 70E0      		ldi r23,hhi8(0)
 3438 10a4 8091 0000 		lds r24,last_upd
 3439 10a8 E091 0000 		lds r30,last_upd+1
 3440 10ac F091 0000 		lds r31,last_upd+2
 3441 10b0 A091 0000 		lds r26,last_upd+3
 3442 10b4 B091 0000 		lds r27,last_upd+4
 3443 10b8 5090 0000 		lds r5,last_upd+5
 3444 10bc 4090 0000 		lds r4,last_upd+6
 3445 10c0 2090 0000 		lds r2,last_upd+7
 3446 10c4 3C2C      		mov r3,r12
 3447 10c6 381A      		sub r3,r24
 3448 10c8 91E0      		ldi r25,lo8(1)
 3449 10ca C314      		cp r12,r3
 3450 10cc 00F0      		brlo .L249
 3451 10ce 90E0      		ldi r25,lo8(0)
 3452               	.L249:
 3453 10d0 8B2D      		mov r24,r11
 3454 10d2 8E1B      		sub r24,r30
 3455 10d4 E1E0      		ldi r30,lo8(1)
 3456 10d6 B816      		cp r11,r24
 3457 10d8 00F0      		brlo .L250
 3458 10da E0E0      		ldi r30,lo8(0)
 3459               	.L250:
 3460 10dc D82E      		mov r13,r24
 3461 10de D91A      		sub r13,r25
 3462 10e0 91E0      		ldi r25,lo8(1)
 3463 10e2 8D15      		cp r24,r13
 3464 10e4 00F0      		brlo .L251
 3465 10e6 90E0      		ldi r25,lo8(0)
 3466               	.L251:
 3467 10e8 E92B      		or r30,r25
 3468 10ea 8A2D      		mov r24,r10
 3469 10ec 8F1B      		sub r24,r31
 3470 10ee F1E0      		ldi r31,lo8(1)
 3471 10f0 A816      		cp r10,r24
 3472 10f2 00F0      		brlo .L252
 3473 10f4 F0E0      		ldi r31,lo8(0)
 3474               	.L252:
 3475 10f6 F82E      		mov r15,r24
 3476 10f8 FE1A      		sub r15,r30
 3477 10fa 91E0      		ldi r25,lo8(1)
 3478 10fc 8F15      		cp r24,r15
 3479 10fe 00F0      		brlo .L253
 3480 1100 90E0      		ldi r25,lo8(0)
 3481               	.L253:
 3482 1102 F92B      		or r31,r25
 3483 1104 892D      		mov r24,r9
 3484 1106 8A1B      		sub r24,r26
 3485 1108 E1E0      		ldi r30,lo8(1)
 3486 110a 9816      		cp r9,r24
 3487 110c 00F0      		brlo .L254
 3488 110e E0E0      		ldi r30,lo8(0)
 3489               	.L254:
 3490 1110 E82E      		mov r14,r24
 3491 1112 EF1A      		sub r14,r31
 3492 1114 91E0      		ldi r25,lo8(1)
 3493 1116 8E15      		cp r24,r14
 3494 1118 00F0      		brlo .L255
 3495 111a 90E0      		ldi r25,lo8(0)
 3496               	.L255:
 3497 111c E92B      		or r30,r25
 3498 111e 882D      		mov r24,r8
 3499 1120 8B1B      		sub r24,r27
 3500 1122 F1E0      		ldi r31,lo8(1)
 3501 1124 8816      		cp r8,r24
 3502 1126 00F0      		brlo .L256
 3503 1128 F0E0      		ldi r31,lo8(0)
 3504               	.L256:
 3505 112a B82F      		mov r27,r24
 3506 112c BE1B      		sub r27,r30
 3507 112e 91E0      		ldi r25,lo8(1)
 3508 1130 8B17      		cp r24,r27
 3509 1132 00F0      		brlo .L257
 3510 1134 90E0      		ldi r25,lo8(0)
 3511               	.L257:
 3512 1136 F92B      		or r31,r25
 3513 1138 872D      		mov r24,r7
 3514 113a 8519      		sub r24,r5
 3515 113c E1E0      		ldi r30,lo8(1)
 3516 113e 7816      		cp r7,r24
 3517 1140 00F0      		brlo .L258
 3518 1142 E0E0      		ldi r30,lo8(0)
 3519               	.L258:
 3520 1144 A82F      		mov r26,r24
 3521 1146 AF1B      		sub r26,r31
 3522 1148 91E0      		ldi r25,lo8(1)
 3523 114a 8A17      		cp r24,r26
 3524 114c 00F0      		brlo .L259
 3525 114e 90E0      		ldi r25,lo8(0)
 3526               	.L259:
 3527 1150 E92B      		or r30,r25
 3528 1152 862D      		mov r24,r6
 3529 1154 8419      		sub r24,r4
 3530 1156 91E0      		ldi r25,lo8(1)
 3531 1158 6816      		cp r6,r24
 3532 115a 00F0      		brlo .L260
 3533 115c 90E0      		ldi r25,lo8(0)
 3534               	.L260:
 3535 115e 582E      		mov r5,r24
 3536 1160 5E1A      		sub r5,r30
 3537 1162 E1E0      		ldi r30,lo8(1)
 3538 1164 8515      		cp r24,r5
 3539 1166 00F0      		brlo .L261
 3540 1168 E0E0      		ldi r30,lo8(0)
 3541               	.L261:
 3542 116a 9E2B      		or r25,r30
 3543 116c 8981      		ldd r24,Y+1
 3544 116e 8219      		sub r24,r2
 3545 1170 891B      		sub r24,r25
 3546 1172 8717      		cp r24,r23
 3547 1174 00F4      		brsh .+2
 3548 1176 00C0      		rjmp .L248
 3549 1178 7817      		cp r23,r24
 3550 117a 01F4      		brne .L346
 3551 117c 5616      		cp r5,r22
 3552 117e 00F0      		brlo .L248
 3553 1180 6515      		cp r22,r5
 3554 1182 01F4      		brne .L346
 3555 1184 A517      		cp r26,r21
 3556 1186 00F0      		brlo .L248
 3557 1188 5A17      		cp r21,r26
 3558 118a 01F4      		brne .L346
 3559 118c B417      		cp r27,r20
 3560 118e 00F0      		brlo .L248
 3561 1190 4B17      		cp r20,r27
 3562 1192 01F4      		brne .L346
 3563 1194 E316      		cp r14,r19
 3564 1196 00F0      		brlo .L248
 3565 1198 3E15      		cp r19,r14
 3566 119a 01F4      		brne .L346
 3567 119c F216      		cp r15,r18
 3568 119e 00F0      		brlo .L248
 3569 11a0 2F15      		cp r18,r15
 3570 11a2 01F4      		brne .L346
 3571 11a4 D116      		cp r13,r17
 3572 11a6 00F0      		brlo .L248
 3573 11a8 1D15      		cp r17,r13
 3574 11aa 01F4      		brne .L346
 3575 11ac 3016      		cp r3,r16
 3576 11ae 00F0      		brlo .L248
 3577               	.L346:
 3578               	.LM388:
 3579 11b0 2091 0000 		lds r18,actual_t
 3580 11b4 3091 0000 		lds r19,(actual_t)+1
 3581 11b8 3093 0000 		sts (shown_value)+1,r19
 3582 11bc 2093 0000 		sts shown_value,r18
 3583 11c0 E0E0      		ldi r30,lo8(values_for_chart)
 3584 11c2 F0E0      		ldi r31,hi8(values_for_chart)
 3585               	.L263:
 3586               	.LBB251:
 3587               	.LBB252:
 3588               	.LBB253:
 3589               	.LM389:
 3590 11c4 8281      		ldd r24,Z+2
 3591 11c6 9381      		ldd r25,Z+3
 3592 11c8 8193      		st Z+,r24
 3593 11ca 9193      		st Z+,r25
 3594               	.LM390:
 3595 11cc 40E0      		ldi r20,hi8(values_for_chart+112)
 3596 11ce E030      		cpi r30,lo8(values_for_chart+112)
 3597 11d0 F407      		cpc r31,r20
 3598 11d2 01F4      		brne .L263
 3599               	.LBE253:
 3600               	.LM391:
 3601 11d4 3183      		std Z+1,r19
 3602 11d6 2083      		st Z,r18
 3603               	.LBE252:
 3604               	.LBE251:
 3605               	.LM392:
 3606 11d8 C092 0000 		sts last_upd,r12
 3607 11dc B092 0000 		sts last_upd+1,r11
 3608 11e0 A092 0000 		sts last_upd+2,r10
 3609 11e4 9092 0000 		sts last_upd+3,r9
 3610 11e8 8092 0000 		sts last_upd+4,r8
 3611 11ec 7092 0000 		sts last_upd+5,r7
 3612 11f0 6092 0000 		sts last_upd+6,r6
 3613 11f4 5981      		ldd r21,Y+1
 3614 11f6 5093 0000 		sts last_upd+7,r21
 3615               	.L248:
 3616               	.LM393:
 3617 11fa 00D0      		rcall lcd_clear
 3618               	.LM394:
 3619 11fc 9B9B      		sbis 51-32,3
 3620 11fe 00C0      		rjmp .L264
 3621 1200 9091 0000 		lds r25,__clock__
 3622 1204 4091 0000 		lds r20,__clock__+1
 3623 1208 6091 0000 		lds r22,__clock__+2
 3624 120c E091 0000 		lds r30,__clock__+3
 3625 1210 A091 0000 		lds r26,__clock__+4
 3626 1214 1091 0000 		lds r17,__clock__+5
 3627 1218 F090 0000 		lds r15,__clock__+6
 3628 121c 5091 0000 		lds r21,__clock__+7
 3629 1220 8091 0000 		lds r24,debounce_d
 3630 1224 2091 0000 		lds r18,debounce_d+1
 3631 1228 7091 0000 		lds r23,debounce_d+2
 3632 122c F091 0000 		lds r31,debounce_d+3
 3633 1230 0091 0000 		lds r16,debounce_d+4
 3634 1234 D090 0000 		lds r13,debounce_d+5
 3635 1238 B090 0000 		lds r11,debounce_d+6
 3636 123c A090 0000 		lds r10,debounce_d+7
 3637 1240 C92E      		mov r12,r25
 3638 1242 C81A      		sub r12,r24
 3639 1244 31E0      		ldi r19,lo8(1)
 3640 1246 9C15      		cp r25,r12
 3641 1248 00F0      		brlo .L265
 3642 124a 30E0      		ldi r19,lo8(0)
 3643               	.L265:
 3644 124c 842F      		mov r24,r20
 3645 124e 821B      		sub r24,r18
 3646 1250 21E0      		ldi r18,lo8(1)
 3647 1252 4817      		cp r20,r24
 3648 1254 00F0      		brlo .L266
 3649 1256 20E0      		ldi r18,lo8(0)
 3650               	.L266:
 3651 1258 E82E      		mov r14,r24
 3652 125a E31A      		sub r14,r19
 3653 125c 91E0      		ldi r25,lo8(1)
 3654 125e 8E15      		cp r24,r14
 3655 1260 00F0      		brlo .L267
 3656 1262 90E0      		ldi r25,lo8(0)
 3657               	.L267:
 3658 1264 292B      		or r18,r25
 3659 1266 862F      		mov r24,r22
 3660 1268 871B      		sub r24,r23
 3661 126a 31E0      		ldi r19,lo8(1)
 3662 126c 6817      		cp r22,r24
 3663 126e 00F0      		brlo .L268
 3664 1270 30E0      		ldi r19,lo8(0)
 3665               	.L268:
 3666 1272 B82F      		mov r27,r24
 3667 1274 B21B      		sub r27,r18
 3668 1276 91E0      		ldi r25,lo8(1)
 3669 1278 8B17      		cp r24,r27
 3670 127a 00F0      		brlo .L269
 3671 127c 90E0      		ldi r25,lo8(0)
 3672               	.L269:
 3673 127e 392B      		or r19,r25
 3674 1280 8E2F      		mov r24,r30
 3675 1282 8F1B      		sub r24,r31
 3676 1284 21E0      		ldi r18,lo8(1)
 3677 1286 E817      		cp r30,r24
 3678 1288 00F0      		brlo .L270
 3679 128a 20E0      		ldi r18,lo8(0)
 3680               	.L270:
 3681 128c 782F      		mov r23,r24
 3682 128e 731B      		sub r23,r19
 3683 1290 91E0      		ldi r25,lo8(1)
 3684 1292 8717      		cp r24,r23
 3685 1294 00F0      		brlo .L271
 3686 1296 90E0      		ldi r25,lo8(0)
 3687               	.L271:
 3688 1298 292B      		or r18,r25
 3689 129a 8A2F      		mov r24,r26
 3690 129c 801B      		sub r24,r16
 3691 129e 31E0      		ldi r19,lo8(1)
 3692 12a0 A817      		cp r26,r24
 3693 12a2 00F0      		brlo .L272
 3694 12a4 30E0      		ldi r19,lo8(0)
 3695               	.L272:
 3696 12a6 682F      		mov r22,r24
 3697 12a8 621B      		sub r22,r18
 3698 12aa 91E0      		ldi r25,lo8(1)
 3699 12ac 8617      		cp r24,r22
 3700 12ae 00F0      		brlo .L273
 3701 12b0 90E0      		ldi r25,lo8(0)
 3702               	.L273:
 3703 12b2 392B      		or r19,r25
 3704 12b4 812F      		mov r24,r17
 3705 12b6 8D19      		sub r24,r13
 3706 12b8 21E0      		ldi r18,lo8(1)
 3707 12ba 1817      		cp r17,r24
 3708 12bc 00F0      		brlo .L274
 3709 12be 20E0      		ldi r18,lo8(0)
 3710               	.L274:
 3711 12c0 482F      		mov r20,r24
 3712 12c2 431B      		sub r20,r19
 3713 12c4 91E0      		ldi r25,lo8(1)
 3714 12c6 8417      		cp r24,r20
 3715 12c8 00F0      		brlo .L275
 3716 12ca 90E0      		ldi r25,lo8(0)
 3717               	.L275:
 3718 12cc 292B      		or r18,r25
 3719 12ce 8F2D      		mov r24,r15
 3720 12d0 8B19      		sub r24,r11
 3721 12d2 91E0      		ldi r25,lo8(1)
 3722 12d4 F816      		cp r15,r24
 3723 12d6 00F0      		brlo .L276
 3724 12d8 90E0      		ldi r25,lo8(0)
 3725               	.L276:
 3726 12da 382F      		mov r19,r24
 3727 12dc 321B      		sub r19,r18
 3728 12de 21E0      		ldi r18,lo8(1)
 3729 12e0 8317      		cp r24,r19
 3730 12e2 00F0      		brlo .L277
 3731 12e4 20E0      		ldi r18,lo8(0)
 3732               	.L277:
 3733 12e6 922B      		or r25,r18
 3734 12e8 5A19      		sub r21,r10
 3735 12ea 5917      		cp r21,r25
 3736 12ec 01F4      		brne .L347
 3737 12ee 3323      		tst r19
 3738 12f0 01F4      		brne .L347
 3739 12f2 4423      		tst r20
 3740 12f4 01F4      		brne .L347
 3741 12f6 6623      		tst r22
 3742 12f8 01F4      		brne .L347
 3743 12fa 7723      		tst r23
 3744 12fc 01F4      		brne .L347
 3745 12fe BB23      		tst r27
 3746 1300 01F4      		brne .L347
 3747 1302 EE20      		tst r14
 3748 1304 01F4      		brne .L347
 3749 1306 8AEF      		ldi r24,lo8(-6)
 3750 1308 8C15      		cp r24,r12
 3751 130a 00F4      		brsh .L264
 3752               	.L347:
 3753               	.LM395:
 3754 130c 00D0      		rcall change_view_mode
 3755               	.LM396:
 3756 130e 8091 0000 		lds r24,__clock__
 3757 1312 8093 0000 		sts debounce_d,r24
 3758 1316 8091 0000 		lds r24,__clock__+1
 3759 131a 8093 0000 		sts debounce_d+1,r24
 3760 131e 8091 0000 		lds r24,__clock__+2
 3761 1322 8093 0000 		sts debounce_d+2,r24
 3762 1326 8091 0000 		lds r24,__clock__+3
 3763 132a 8093 0000 		sts debounce_d+3,r24
 3764 132e 8091 0000 		lds r24,__clock__+4
 3765 1332 8093 0000 		sts debounce_d+4,r24
 3766 1336 8091 0000 		lds r24,__clock__+5
 3767 133a 8093 0000 		sts debounce_d+5,r24
 3768 133e 8091 0000 		lds r24,__clock__+6
 3769 1342 8093 0000 		sts debounce_d+6,r24
 3770 1346 8091 0000 		lds r24,__clock__+7
 3771 134a 8093 0000 		sts debounce_d+7,r24
 3772               	.L264:
 3773               	.LM397:
 3774 134e 8091 0000 		lds r24,vm
 3775 1352 8823      		tst r24
 3776 1354 01F0      		breq .+2
 3777 1356 00C0      		rjmp .L279
 3778               	.LM398:
 3779 1358 989B      		sbis 51-32,0
 3780 135a 00C0      		rjmp .L280
 3781 135c 9091 0000 		lds r25,__clock__
 3782 1360 4091 0000 		lds r20,__clock__+1
 3783 1364 6091 0000 		lds r22,__clock__+2
 3784 1368 E091 0000 		lds r30,__clock__+3
 3785 136c A091 0000 		lds r26,__clock__+4
 3786 1370 1091 0000 		lds r17,__clock__+5
 3787 1374 F090 0000 		lds r15,__clock__+6
 3788 1378 5091 0000 		lds r21,__clock__+7
 3789 137c 8091 0000 		lds r24,debounce_a
 3790 1380 2091 0000 		lds r18,debounce_a+1
 3791 1384 7091 0000 		lds r23,debounce_a+2
 3792 1388 F091 0000 		lds r31,debounce_a+3
 3793 138c 0091 0000 		lds r16,debounce_a+4
 3794 1390 D090 0000 		lds r13,debounce_a+5
 3795 1394 B090 0000 		lds r11,debounce_a+6
 3796 1398 A090 0000 		lds r10,debounce_a+7
 3797 139c C92E      		mov r12,r25
 3798 139e C81A      		sub r12,r24
 3799 13a0 31E0      		ldi r19,lo8(1)
 3800 13a2 9C15      		cp r25,r12
 3801 13a4 00F0      		brlo .L281
 3802 13a6 30E0      		ldi r19,lo8(0)
 3803               	.L281:
 3804 13a8 842F      		mov r24,r20
 3805 13aa 821B      		sub r24,r18
 3806 13ac 21E0      		ldi r18,lo8(1)
 3807 13ae 4817      		cp r20,r24
 3808 13b0 00F0      		brlo .L282
 3809 13b2 20E0      		ldi r18,lo8(0)
 3810               	.L282:
 3811 13b4 E82E      		mov r14,r24
 3812 13b6 E31A      		sub r14,r19
 3813 13b8 91E0      		ldi r25,lo8(1)
 3814 13ba 8E15      		cp r24,r14
 3815 13bc 00F0      		brlo .L283
 3816 13be 90E0      		ldi r25,lo8(0)
 3817               	.L283:
 3818 13c0 292B      		or r18,r25
 3819 13c2 862F      		mov r24,r22
 3820 13c4 871B      		sub r24,r23
 3821 13c6 31E0      		ldi r19,lo8(1)
 3822 13c8 6817      		cp r22,r24
 3823 13ca 00F0      		brlo .L284
 3824 13cc 30E0      		ldi r19,lo8(0)
 3825               	.L284:
 3826 13ce B82F      		mov r27,r24
 3827 13d0 B21B      		sub r27,r18
 3828 13d2 91E0      		ldi r25,lo8(1)
 3829 13d4 8B17      		cp r24,r27
 3830 13d6 00F0      		brlo .L285
 3831 13d8 90E0      		ldi r25,lo8(0)
 3832               	.L285:
 3833 13da 392B      		or r19,r25
 3834 13dc 8E2F      		mov r24,r30
 3835 13de 8F1B      		sub r24,r31
 3836 13e0 21E0      		ldi r18,lo8(1)
 3837 13e2 E817      		cp r30,r24
 3838 13e4 00F0      		brlo .L286
 3839 13e6 20E0      		ldi r18,lo8(0)
 3840               	.L286:
 3841 13e8 782F      		mov r23,r24
 3842 13ea 731B      		sub r23,r19
 3843 13ec 91E0      		ldi r25,lo8(1)
 3844 13ee 8717      		cp r24,r23
 3845 13f0 00F0      		brlo .L287
 3846 13f2 90E0      		ldi r25,lo8(0)
 3847               	.L287:
 3848 13f4 292B      		or r18,r25
 3849 13f6 8A2F      		mov r24,r26
 3850 13f8 801B      		sub r24,r16
 3851 13fa 31E0      		ldi r19,lo8(1)
 3852 13fc A817      		cp r26,r24
 3853 13fe 00F0      		brlo .L288
 3854 1400 30E0      		ldi r19,lo8(0)
 3855               	.L288:
 3856 1402 682F      		mov r22,r24
 3857 1404 621B      		sub r22,r18
 3858 1406 91E0      		ldi r25,lo8(1)
 3859 1408 8617      		cp r24,r22
 3860 140a 00F0      		brlo .L289
 3861 140c 90E0      		ldi r25,lo8(0)
 3862               	.L289:
 3863 140e 392B      		or r19,r25
 3864 1410 812F      		mov r24,r17
 3865 1412 8D19      		sub r24,r13
 3866 1414 21E0      		ldi r18,lo8(1)
 3867 1416 1817      		cp r17,r24
 3868 1418 00F0      		brlo .L290
 3869 141a 20E0      		ldi r18,lo8(0)
 3870               	.L290:
 3871 141c 482F      		mov r20,r24
 3872 141e 431B      		sub r20,r19
 3873 1420 91E0      		ldi r25,lo8(1)
 3874 1422 8417      		cp r24,r20
 3875 1424 00F0      		brlo .L291
 3876 1426 90E0      		ldi r25,lo8(0)
 3877               	.L291:
 3878 1428 292B      		or r18,r25
 3879 142a 8F2D      		mov r24,r15
 3880 142c 8B19      		sub r24,r11
 3881 142e 91E0      		ldi r25,lo8(1)
 3882 1430 F816      		cp r15,r24
 3883 1432 00F0      		brlo .L292
 3884 1434 90E0      		ldi r25,lo8(0)
 3885               	.L292:
 3886 1436 382F      		mov r19,r24
 3887 1438 321B      		sub r19,r18
 3888 143a 21E0      		ldi r18,lo8(1)
 3889 143c 8317      		cp r24,r19
 3890 143e 00F0      		brlo .L293
 3891 1440 20E0      		ldi r18,lo8(0)
 3892               	.L293:
 3893 1442 922B      		or r25,r18
 3894 1444 5A19      		sub r21,r10
 3895 1446 5917      		cp r21,r25
 3896 1448 01F4      		brne .L348
 3897 144a 3323      		tst r19
 3898 144c 01F4      		brne .L348
 3899 144e 4423      		tst r20
 3900 1450 01F4      		brne .L348
 3901 1452 6623      		tst r22
 3902 1454 01F4      		brne .L348
 3903 1456 7723      		tst r23
 3904 1458 01F4      		brne .L348
 3905 145a BB23      		tst r27
 3906 145c 01F4      		brne .L348
 3907 145e EE20      		tst r14
 3908 1460 01F4      		brne .L348
 3909 1462 EAEF      		ldi r30,lo8(-6)
 3910 1464 EC15      		cp r30,r12
 3911 1466 00F4      		brsh .L280
 3912               	.L348:
 3913               	.LM399:
 3914 1468 00D0      		rcall change_upd_speed
 3915               	.LM400:
 3916 146a 8091 0000 		lds r24,__clock__
 3917 146e 8093 0000 		sts debounce_a,r24
 3918 1472 8091 0000 		lds r24,__clock__+1
 3919 1476 8093 0000 		sts debounce_a+1,r24
 3920 147a 8091 0000 		lds r24,__clock__+2
 3921 147e 8093 0000 		sts debounce_a+2,r24
 3922 1482 8091 0000 		lds r24,__clock__+3
 3923 1486 8093 0000 		sts debounce_a+3,r24
 3924 148a 8091 0000 		lds r24,__clock__+4
 3925 148e 8093 0000 		sts debounce_a+4,r24
 3926 1492 8091 0000 		lds r24,__clock__+5
 3927 1496 8093 0000 		sts debounce_a+5,r24
 3928 149a 8091 0000 		lds r24,__clock__+6
 3929 149e 8093 0000 		sts debounce_a+6,r24
 3930 14a2 8091 0000 		lds r24,__clock__+7
 3931 14a6 8093 0000 		sts debounce_a+7,r24
 3932               	.L280:
 3933               	.LM401:
 3934 14aa 999B      		sbis 51-32,1
 3935 14ac 00C0      		rjmp .L295
 3936 14ae 9091 0000 		lds r25,__clock__
 3937 14b2 4091 0000 		lds r20,__clock__+1
 3938 14b6 6091 0000 		lds r22,__clock__+2
 3939 14ba E091 0000 		lds r30,__clock__+3
 3940 14be A091 0000 		lds r26,__clock__+4
 3941 14c2 1091 0000 		lds r17,__clock__+5
 3942 14c6 F090 0000 		lds r15,__clock__+6
 3943 14ca 5091 0000 		lds r21,__clock__+7
 3944 14ce 8091 0000 		lds r24,debounce_b
 3945 14d2 2091 0000 		lds r18,debounce_b+1
 3946 14d6 7091 0000 		lds r23,debounce_b+2
 3947 14da F091 0000 		lds r31,debounce_b+3
 3948 14de 0091 0000 		lds r16,debounce_b+4
 3949 14e2 D090 0000 		lds r13,debounce_b+5
 3950 14e6 B090 0000 		lds r11,debounce_b+6
 3951 14ea A090 0000 		lds r10,debounce_b+7
 3952 14ee C92E      		mov r12,r25
 3953 14f0 C81A      		sub r12,r24
 3954 14f2 31E0      		ldi r19,lo8(1)
 3955 14f4 9C15      		cp r25,r12
 3956 14f6 00F0      		brlo .L296
 3957 14f8 30E0      		ldi r19,lo8(0)
 3958               	.L296:
 3959 14fa 842F      		mov r24,r20
 3960 14fc 821B      		sub r24,r18
 3961 14fe 21E0      		ldi r18,lo8(1)
 3962 1500 4817      		cp r20,r24
 3963 1502 00F0      		brlo .L297
 3964 1504 20E0      		ldi r18,lo8(0)
 3965               	.L297:
 3966 1506 E82E      		mov r14,r24
 3967 1508 E31A      		sub r14,r19
 3968 150a 91E0      		ldi r25,lo8(1)
 3969 150c 8E15      		cp r24,r14
 3970 150e 00F0      		brlo .L298
 3971 1510 90E0      		ldi r25,lo8(0)
 3972               	.L298:
 3973 1512 292B      		or r18,r25
 3974 1514 862F      		mov r24,r22
 3975 1516 871B      		sub r24,r23
 3976 1518 31E0      		ldi r19,lo8(1)
 3977 151a 6817      		cp r22,r24
 3978 151c 00F0      		brlo .L299
 3979 151e 30E0      		ldi r19,lo8(0)
 3980               	.L299:
 3981 1520 B82F      		mov r27,r24
 3982 1522 B21B      		sub r27,r18
 3983 1524 91E0      		ldi r25,lo8(1)
 3984 1526 8B17      		cp r24,r27
 3985 1528 00F0      		brlo .L300
 3986 152a 90E0      		ldi r25,lo8(0)
 3987               	.L300:
 3988 152c 392B      		or r19,r25
 3989 152e 8E2F      		mov r24,r30
 3990 1530 8F1B      		sub r24,r31
 3991 1532 21E0      		ldi r18,lo8(1)
 3992 1534 E817      		cp r30,r24
 3993 1536 00F0      		brlo .L301
 3994 1538 20E0      		ldi r18,lo8(0)
 3995               	.L301:
 3996 153a 782F      		mov r23,r24
 3997 153c 731B      		sub r23,r19
 3998 153e 91E0      		ldi r25,lo8(1)
 3999 1540 8717      		cp r24,r23
 4000 1542 00F0      		brlo .L302
 4001 1544 90E0      		ldi r25,lo8(0)
 4002               	.L302:
 4003 1546 292B      		or r18,r25
 4004 1548 8A2F      		mov r24,r26
 4005 154a 801B      		sub r24,r16
 4006 154c 31E0      		ldi r19,lo8(1)
 4007 154e A817      		cp r26,r24
 4008 1550 00F0      		brlo .L303
 4009 1552 30E0      		ldi r19,lo8(0)
 4010               	.L303:
 4011 1554 682F      		mov r22,r24
 4012 1556 621B      		sub r22,r18
 4013 1558 91E0      		ldi r25,lo8(1)
 4014 155a 8617      		cp r24,r22
 4015 155c 00F0      		brlo .L304
 4016 155e 90E0      		ldi r25,lo8(0)
 4017               	.L304:
 4018 1560 392B      		or r19,r25
 4019 1562 812F      		mov r24,r17
 4020 1564 8D19      		sub r24,r13
 4021 1566 21E0      		ldi r18,lo8(1)
 4022 1568 1817      		cp r17,r24
 4023 156a 00F0      		brlo .L305
 4024 156c 20E0      		ldi r18,lo8(0)
 4025               	.L305:
 4026 156e 482F      		mov r20,r24
 4027 1570 431B      		sub r20,r19
 4028 1572 91E0      		ldi r25,lo8(1)
 4029 1574 8417      		cp r24,r20
 4030 1576 00F0      		brlo .L306
 4031 1578 90E0      		ldi r25,lo8(0)
 4032               	.L306:
 4033 157a 292B      		or r18,r25
 4034 157c 8F2D      		mov r24,r15
 4035 157e 8B19      		sub r24,r11
 4036 1580 91E0      		ldi r25,lo8(1)
 4037 1582 F816      		cp r15,r24
 4038 1584 00F0      		brlo .L307
 4039 1586 90E0      		ldi r25,lo8(0)
 4040               	.L307:
 4041 1588 382F      		mov r19,r24
 4042 158a 321B      		sub r19,r18
 4043 158c 21E0      		ldi r18,lo8(1)
 4044 158e 8317      		cp r24,r19
 4045 1590 00F0      		brlo .L308
 4046 1592 20E0      		ldi r18,lo8(0)
 4047               	.L308:
 4048 1594 922B      		or r25,r18
 4049 1596 5A19      		sub r21,r10
 4050 1598 5917      		cp r21,r25
 4051 159a 01F4      		brne .L349
 4052 159c 3323      		tst r19
 4053 159e 01F4      		brne .L349
 4054 15a0 4423      		tst r20
 4055 15a2 01F4      		brne .L349
 4056 15a4 6623      		tst r22
 4057 15a6 01F4      		brne .L349
 4058 15a8 7723      		tst r23
 4059 15aa 01F4      		brne .L349
 4060 15ac BB23      		tst r27
 4061 15ae 01F4      		brne .L349
 4062 15b0 EE20      		tst r14
 4063 15b2 01F4      		brne .L349
 4064 15b4 FAEF      		ldi r31,lo8(-6)
 4065 15b6 FC15      		cp r31,r12
 4066 15b8 00F4      		brsh .L295
 4067               	.L349:
 4068               	.LM402:
 4069 15ba 00D0      		rcall change_line_type
 4070               	.LM403:
 4071 15bc 8091 0000 		lds r24,__clock__
 4072 15c0 8093 0000 		sts debounce_b,r24
 4073 15c4 8091 0000 		lds r24,__clock__+1
 4074 15c8 8093 0000 		sts debounce_b+1,r24
 4075 15cc 8091 0000 		lds r24,__clock__+2
 4076 15d0 8093 0000 		sts debounce_b+2,r24
 4077 15d4 8091 0000 		lds r24,__clock__+3
 4078 15d8 8093 0000 		sts debounce_b+3,r24
 4079 15dc 8091 0000 		lds r24,__clock__+4
 4080 15e0 8093 0000 		sts debounce_b+4,r24
 4081 15e4 8091 0000 		lds r24,__clock__+5
 4082 15e8 8093 0000 		sts debounce_b+5,r24
 4083 15ec 8091 0000 		lds r24,__clock__+6
 4084 15f0 8093 0000 		sts debounce_b+6,r24
 4085 15f4 8091 0000 		lds r24,__clock__+7
 4086 15f8 8093 0000 		sts debounce_b+7,r24
 4087               	.L295:
 4088               	.LM404:
 4089 15fc 00D0      		rcall draw_interface
 4090               	.LM405:
 4091 15fe 8091 0000 		lds r24,ltp
 4092 1602 00D0      		rcall draw_values_line
 4093               	.LM406:
 4094 1604 8091 0000 		lds r24,usp
 4095 1608 9091 0000 		lds r25,(usp)+1
 4096 160c 00D0      		rcall draw_update_speed_indicator
 4097               	.LM407:
 4098 160e 6091 0000 		lds r22,shown_value
 4099 1612 7091 0000 		lds r23,(shown_value)+1
 4100 1616 8091 0000 		lds r24,ltp
 4101 161a 00D0      		rcall draw_bar
 4102               	.LM408:
 4103 161c 80E0      		ldi r24,lo8(_tball)
 4104 161e 90E0      		ldi r25,hi8(_tball)
 4105 1620 6AE0      		ldi r22,lo8(10)
 4106 1622 4AE0      		ldi r20,lo8(10)
 4107 1624 28E0      		ldi r18,lo8(8)
 4108 1626 08E0      		ldi r16,lo8(8)
 4109 1628 EE24      		clr r14
 4110 162a E394      		inc r14
 4111 162c 00D0      		rcall lcd_draw_v2
 4112               	.L279:
 4113               	.LM409:
 4114 162e 8091 0000 		lds r24,vm
 4115 1632 8130      		cpi r24,lo8(1)
 4116 1634 01F0      		breq .+2
 4117 1636 00C0      		rjmp .L310
 4118               	.LM410:
 4119 1638 61E0      		ldi r22,lo8(1)
 4120 163a 40E0      		ldi r20,lo8(.LC0)
 4121 163c 50E0      		ldi r21,hi8(.LC0)
 4122 163e 21E0      		ldi r18,lo8(1)
 4123 1640 00D0      		rcall lcd_put_string
 4124               	.LM411:
 4125 1642 989B      		sbis 51-32,0
 4126 1644 00C0      		rjmp .L311
 4127               	.LBB254:
 4128               	.LBB255:
 4129               	.LM412:
 4130 1646 6091 0000 		lds r22,__clock__
 4131 164a 7091 0000 		lds r23,__clock__+1
 4132 164e E091 0000 		lds r30,__clock__+2
 4133 1652 F091 0000 		lds r31,__clock__+3
 4134 1656 A091 0000 		lds r26,__clock__+4
 4135 165a B091 0000 		lds r27,__clock__+5
 4136 165e 1091 0000 		lds r17,__clock__+6
 4137 1662 9090 0000 		lds r9,__clock__+7
 4138               	.LBE255:
 4139               	.LBE254:
 4140               	.LM413:
 4141 1666 8091 0000 		lds r24,debounce_a
 4142 166a 2091 0000 		lds r18,debounce_a+1
 4143 166e 3091 0000 		lds r19,debounce_a+2
 4144 1672 4091 0000 		lds r20,debounce_a+3
 4145 1676 5091 0000 		lds r21,debounce_a+4
 4146 167a D090 0000 		lds r13,debounce_a+5
 4147 167e B090 0000 		lds r11,debounce_a+6
 4148 1682 A090 0000 		lds r10,debounce_a+7
 4149 1686 C62E      		mov r12,r22
 4150 1688 C81A      		sub r12,r24
 4151 168a 91E0      		ldi r25,lo8(1)
 4152 168c 6C15      		cp r22,r12
 4153 168e 00F0      		brlo .L312
 4154 1690 90E0      		ldi r25,lo8(0)
 4155               	.L312:
 4156 1692 872F      		mov r24,r23
 4157 1694 821B      		sub r24,r18
 4158 1696 21E0      		ldi r18,lo8(1)
 4159 1698 7817      		cp r23,r24
 4160 169a 00F0      		brlo .L313
 4161 169c 20E0      		ldi r18,lo8(0)
 4162               	.L313:
 4163 169e E82E      		mov r14,r24
 4164 16a0 E91A      		sub r14,r25
 4165 16a2 91E0      		ldi r25,lo8(1)
 4166 16a4 8E15      		cp r24,r14
 4167 16a6 00F0      		brlo .L314
 4168 16a8 90E0      		ldi r25,lo8(0)
 4169               	.L314:
 4170 16aa 292B      		or r18,r25
 4171 16ac 8E2F      		mov r24,r30
 4172 16ae 831B      		sub r24,r19
 4173 16b0 31E0      		ldi r19,lo8(1)
 4174 16b2 E817      		cp r30,r24
 4175 16b4 00F0      		brlo .L315
 4176 16b6 30E0      		ldi r19,lo8(0)
 4177               	.L315:
 4178 16b8 F82E      		mov r15,r24
 4179 16ba F21A      		sub r15,r18
 4180 16bc 91E0      		ldi r25,lo8(1)
 4181 16be 8F15      		cp r24,r15
 4182 16c0 00F0      		brlo .L316
 4183 16c2 90E0      		ldi r25,lo8(0)
 4184               	.L316:
 4185 16c4 392B      		or r19,r25
 4186 16c6 8F2F      		mov r24,r31
 4187 16c8 841B      		sub r24,r20
 4188 16ca 21E0      		ldi r18,lo8(1)
 4189 16cc F817      		cp r31,r24
 4190 16ce 00F0      		brlo .L317
 4191 16d0 20E0      		ldi r18,lo8(0)
 4192               	.L317:
 4193 16d2 082F      		mov r16,r24
 4194 16d4 031B      		sub r16,r19
 4195 16d6 91E0      		ldi r25,lo8(1)
 4196 16d8 8017      		cp r24,r16
 4197 16da 00F0      		brlo .L318
 4198 16dc 90E0      		ldi r25,lo8(0)
 4199               	.L318:
 4200 16de 292B      		or r18,r25
 4201 16e0 8A2F      		mov r24,r26
 4202 16e2 851B      		sub r24,r21
 4203 16e4 31E0      		ldi r19,lo8(1)
 4204 16e6 A817      		cp r26,r24
 4205 16e8 00F0      		brlo .L319
 4206 16ea 30E0      		ldi r19,lo8(0)
 4207               	.L319:
 4208 16ec 582F      		mov r21,r24
 4209 16ee 521B      		sub r21,r18
 4210 16f0 91E0      		ldi r25,lo8(1)
 4211 16f2 8517      		cp r24,r21
 4212 16f4 00F0      		brlo .L320
 4213 16f6 90E0      		ldi r25,lo8(0)
 4214               	.L320:
 4215 16f8 392B      		or r19,r25
 4216 16fa 8B2F      		mov r24,r27
 4217 16fc 8D19      		sub r24,r13
 4218 16fe 21E0      		ldi r18,lo8(1)
 4219 1700 B817      		cp r27,r24
 4220 1702 00F0      		brlo .L321
 4221 1704 20E0      		ldi r18,lo8(0)
 4222               	.L321:
 4223 1706 482F      		mov r20,r24
 4224 1708 431B      		sub r20,r19
 4225 170a 91E0      		ldi r25,lo8(1)
 4226 170c 8417      		cp r24,r20
 4227 170e 00F0      		brlo .L322
 4228 1710 90E0      		ldi r25,lo8(0)
 4229               	.L322:
 4230 1712 292B      		or r18,r25
 4231 1714 812F      		mov r24,r17
 4232 1716 8B19      		sub r24,r11
 4233 1718 91E0      		ldi r25,lo8(1)
 4234 171a 1817      		cp r17,r24
 4235 171c 00F0      		brlo .L323
 4236 171e 90E0      		ldi r25,lo8(0)
 4237               	.L323:
 4238 1720 382F      		mov r19,r24
 4239 1722 321B      		sub r19,r18
 4240 1724 21E0      		ldi r18,lo8(1)
 4241 1726 8317      		cp r24,r19
 4242 1728 00F0      		brlo .L324
 4243 172a 20E0      		ldi r18,lo8(0)
 4244               	.L324:
 4245 172c 922B      		or r25,r18
 4246 172e 892D      		mov r24,r9
 4247 1730 8A19      		sub r24,r10
 4248 1732 8917      		cp r24,r25
 4249 1734 01F4      		brne .L350
 4250 1736 3323      		tst r19
 4251 1738 01F4      		brne .L350
 4252 173a 4423      		tst r20
 4253 173c 01F4      		brne .L350
 4254 173e 5523      		tst r21
 4255 1740 01F4      		brne .L350
 4256 1742 0023      		tst r16
 4257 1744 01F4      		brne .L350
 4258 1746 FF20      		tst r15
 4259 1748 01F4      		brne .L350
 4260 174a EE20      		tst r14
 4261 174c 01F4      		brne .L350
 4262 174e 2AEF      		ldi r18,lo8(-6)
 4263 1750 2C15      		cp r18,r12
 4264 1752 00F4      		brsh .L311
 4265               	.L350:
 4266               	.LM414:
 4267 1754 8091 0000 		lds r24,hook_m_ptr
 4268 1758 8823      		tst r24
 4269 175a 01F0      		breq .L326
 4270 175c 8150      		subi r24,lo8(-(-1))
 4271 175e 8093 0000 		sts hook_m_ptr,r24
 4272               	.L326:
 4273               	.LM415:
 4274 1762 6093 0000 		sts debounce_a,r22
 4275 1766 7093 0000 		sts debounce_a+1,r23
 4276 176a E093 0000 		sts debounce_a+2,r30
 4277 176e F093 0000 		sts debounce_a+3,r31
 4278 1772 A093 0000 		sts debounce_a+4,r26
 4279 1776 B093 0000 		sts debounce_a+5,r27
 4280 177a 1093 0000 		sts debounce_a+6,r17
 4281 177e 9092 0000 		sts debounce_a+7,r9
 4282               	.L311:
 4283               	.LM416:
 4284 1782 999B      		sbis 51-32,1
 4285 1784 00C0      		rjmp .L327
 4286               	.LBB256:
 4287               	.LBB257:
 4288               	.LM417:
 4289 1786 6091 0000 		lds r22,__clock__
 4290 178a 7091 0000 		lds r23,__clock__+1
 4291 178e E091 0000 		lds r30,__clock__+2
 4292 1792 F091 0000 		lds r31,__clock__+3
 4293 1796 A091 0000 		lds r26,__clock__+4
 4294 179a B091 0000 		lds r27,__clock__+5
 4295 179e 1091 0000 		lds r17,__clock__+6
 4296 17a2 9090 0000 		lds r9,__clock__+7
 4297               	.LBE257:
 4298               	.LBE256:
 4299               	.LM418:
 4300 17a6 8091 0000 		lds r24,debounce_b
 4301 17aa 2091 0000 		lds r18,debounce_b+1
 4302 17ae 3091 0000 		lds r19,debounce_b+2
 4303 17b2 4091 0000 		lds r20,debounce_b+3
 4304 17b6 5091 0000 		lds r21,debounce_b+4
 4305 17ba D090 0000 		lds r13,debounce_b+5
 4306 17be B090 0000 		lds r11,debounce_b+6
 4307 17c2 A090 0000 		lds r10,debounce_b+7
 4308 17c6 C62E      		mov r12,r22
 4309 17c8 C81A      		sub r12,r24
 4310 17ca 91E0      		ldi r25,lo8(1)
 4311 17cc 6C15      		cp r22,r12
 4312 17ce 00F0      		brlo .L328
 4313 17d0 90E0      		ldi r25,lo8(0)
 4314               	.L328:
 4315 17d2 872F      		mov r24,r23
 4316 17d4 821B      		sub r24,r18
 4317 17d6 21E0      		ldi r18,lo8(1)
 4318 17d8 7817      		cp r23,r24
 4319 17da 00F0      		brlo .L329
 4320 17dc 20E0      		ldi r18,lo8(0)
 4321               	.L329:
 4322 17de E82E      		mov r14,r24
 4323 17e0 E91A      		sub r14,r25
 4324 17e2 91E0      		ldi r25,lo8(1)
 4325 17e4 8E15      		cp r24,r14
 4326 17e6 00F0      		brlo .L330
 4327 17e8 90E0      		ldi r25,lo8(0)
 4328               	.L330:
 4329 17ea 292B      		or r18,r25
 4330 17ec 8E2F      		mov r24,r30
 4331 17ee 831B      		sub r24,r19
 4332 17f0 31E0      		ldi r19,lo8(1)
 4333 17f2 E817      		cp r30,r24
 4334 17f4 00F0      		brlo .L331
 4335 17f6 30E0      		ldi r19,lo8(0)
 4336               	.L331:
 4337 17f8 F82E      		mov r15,r24
 4338 17fa F21A      		sub r15,r18
 4339 17fc 91E0      		ldi r25,lo8(1)
 4340 17fe 8F15      		cp r24,r15
 4341 1800 00F0      		brlo .L332
 4342 1802 90E0      		ldi r25,lo8(0)
 4343               	.L332:
 4344 1804 392B      		or r19,r25
 4345 1806 8F2F      		mov r24,r31
 4346 1808 841B      		sub r24,r20
 4347 180a 21E0      		ldi r18,lo8(1)
 4348 180c F817      		cp r31,r24
 4349 180e 00F0      		brlo .L333
 4350 1810 20E0      		ldi r18,lo8(0)
 4351               	.L333:
 4352 1812 082F      		mov r16,r24
 4353 1814 031B      		sub r16,r19
 4354 1816 91E0      		ldi r25,lo8(1)
 4355 1818 8017      		cp r24,r16
 4356 181a 00F0      		brlo .L334
 4357 181c 90E0      		ldi r25,lo8(0)
 4358               	.L334:
 4359 181e 292B      		or r18,r25
 4360 1820 8A2F      		mov r24,r26
 4361 1822 851B      		sub r24,r21
 4362 1824 31E0      		ldi r19,lo8(1)
 4363 1826 A817      		cp r26,r24
 4364 1828 00F0      		brlo .L335
 4365 182a 30E0      		ldi r19,lo8(0)
 4366               	.L335:
 4367 182c 582F      		mov r21,r24
 4368 182e 521B      		sub r21,r18
 4369 1830 91E0      		ldi r25,lo8(1)
 4370 1832 8517      		cp r24,r21
 4371 1834 00F0      		brlo .L336
 4372 1836 90E0      		ldi r25,lo8(0)
 4373               	.L336:
 4374 1838 392B      		or r19,r25
 4375 183a 8B2F      		mov r24,r27
 4376 183c 8D19      		sub r24,r13
 4377 183e 21E0      		ldi r18,lo8(1)
 4378 1840 B817      		cp r27,r24
 4379 1842 00F0      		brlo .L337
 4380 1844 20E0      		ldi r18,lo8(0)
 4381               	.L337:
 4382 1846 482F      		mov r20,r24
 4383 1848 431B      		sub r20,r19
 4384 184a 91E0      		ldi r25,lo8(1)
 4385 184c 8417      		cp r24,r20
 4386 184e 00F0      		brlo .L338
 4387 1850 90E0      		ldi r25,lo8(0)
 4388               	.L338:
 4389 1852 292B      		or r18,r25
 4390 1854 812F      		mov r24,r17
 4391 1856 8B19      		sub r24,r11
 4392 1858 91E0      		ldi r25,lo8(1)
 4393 185a 1817      		cp r17,r24
 4394 185c 00F0      		brlo .L339
 4395 185e 90E0      		ldi r25,lo8(0)
 4396               	.L339:
 4397 1860 382F      		mov r19,r24
 4398 1862 321B      		sub r19,r18
 4399 1864 21E0      		ldi r18,lo8(1)
 4400 1866 8317      		cp r24,r19
 4401 1868 00F0      		brlo .L340
 4402 186a 20E0      		ldi r18,lo8(0)
 4403               	.L340:
 4404 186c 922B      		or r25,r18
 4405 186e 892D      		mov r24,r9
 4406 1870 8A19      		sub r24,r10
 4407 1872 8917      		cp r24,r25
 4408 1874 01F4      		brne .L351
 4409 1876 3323      		tst r19
 4410 1878 01F4      		brne .L351
 4411 187a 4423      		tst r20
 4412 187c 01F4      		brne .L351
 4413 187e 5523      		tst r21
 4414 1880 01F4      		brne .L351
 4415 1882 0023      		tst r16
 4416 1884 01F4      		brne .L351
 4417 1886 FF20      		tst r15
 4418 1888 01F4      		brne .L351
 4419 188a EE20      		tst r14
 4420 188c 01F4      		brne .L351
 4421 188e 3AEF      		ldi r19,lo8(-6)
 4422 1890 3C15      		cp r19,r12
 4423 1892 00F4      		brsh .L327
 4424               	.L351:
 4425               	.LM419:
 4426 1894 8091 0000 		lds r24,hook_m_ptr
 4427 1898 8330      		cpi r24,lo8(3)
 4428 189a 00F4      		brsh .L342
 4429 189c 8F5F      		subi r24,lo8(-(1))
 4430 189e 8093 0000 		sts hook_m_ptr,r24
 4431               	.L342:
 4432               	.LM420:
 4433 18a2 6093 0000 		sts debounce_b,r22
 4434 18a6 7093 0000 		sts debounce_b+1,r23
 4435 18aa E093 0000 		sts debounce_b+2,r30
 4436 18ae F093 0000 		sts debounce_b+3,r31
 4437 18b2 A093 0000 		sts debounce_b+4,r26
 4438 18b6 B093 0000 		sts debounce_b+5,r27
 4439 18ba 1093 0000 		sts debounce_b+6,r17
 4440 18be 9092 0000 		sts debounce_b+7,r9
 4441               	.L327:
 4442               	.LM421:
 4443 18c2 8091 0000 		lds r24,hook_m_ptr
 4444 18c6 8F5F      		subi r24,lo8(-(1))
 4445 18c8 00D0      		rcall draw_hook_ptr
 4446               	.L310:
 4447               	.LM422:
 4448 18ca 00D0      		rcall lcd_update
 4449 18cc 00C0      		rjmp .L343
 4450               	.LFE46:
 4452               	.global	CHARS_TABLE
 4453               		.section	.eeprom,"a",@progbits
 4456               	CHARS_TABLE:
 4457 0000 00        		.byte	0
 4458 0001 00        		.byte	0
 4459 0002 00        		.byte	0
 4460 0003 00        		.byte	0
 4461 0004 00        		.byte	0
 4462 0005 00        		.byte	0
 4463 0006 00        		.byte	0
 4464 0007 5F        		.byte	95
 4465 0008 00        		.byte	0
 4466 0009 00        		.byte	0
 4467 000a 00        		.byte	0
 4468 000b 07        		.byte	7
 4469 000c 00        		.byte	0
 4470 000d 07        		.byte	7
 4471 000e 00        		.byte	0
 4472 000f 14        		.byte	20
 4473 0010 7F        		.byte	127
 4474 0011 14        		.byte	20
 4475 0012 7F        		.byte	127
 4476 0013 14        		.byte	20
 4477 0014 24        		.byte	36
 4478 0015 2A        		.byte	42
 4479 0016 7F        		.byte	127
 4480 0017 2A        		.byte	42
 4481 0018 12        		.byte	18
 4482 0019 23        		.byte	35
 4483 001a 13        		.byte	19
 4484 001b 08        		.byte	8
 4485 001c 64        		.byte	100
 4486 001d 62        		.byte	98
 4487 001e 36        		.byte	54
 4488 001f 49        		.byte	73
 4489 0020 55        		.byte	85
 4490 0021 22        		.byte	34
 4491 0022 50        		.byte	80
 4492 0023 00        		.byte	0
 4493 0024 05        		.byte	5
 4494 0025 03        		.byte	3
 4495 0026 00        		.byte	0
 4496 0027 00        		.byte	0
 4497 0028 00        		.byte	0
 4498 0029 1C        		.byte	28
 4499 002a 22        		.byte	34
 4500 002b 41        		.byte	65
 4501 002c 00        		.byte	0
 4502 002d 00        		.byte	0
 4503 002e 41        		.byte	65
 4504 002f 22        		.byte	34
 4505 0030 1C        		.byte	28
 4506 0031 00        		.byte	0
 4507 0032 08        		.byte	8
 4508 0033 2A        		.byte	42
 4509 0034 1C        		.byte	28
 4510 0035 2A        		.byte	42
 4511 0036 08        		.byte	8
 4512 0037 08        		.byte	8
 4513 0038 08        		.byte	8
 4514 0039 3E        		.byte	62
 4515 003a 08        		.byte	8
 4516 003b 08        		.byte	8
 4517 003c 00        		.byte	0
 4518 003d 50        		.byte	80
 4519 003e 30        		.byte	48
 4520 003f 00        		.byte	0
 4521 0040 00        		.byte	0
 4522 0041 08        		.byte	8
 4523 0042 08        		.byte	8
 4524 0043 08        		.byte	8
 4525 0044 08        		.byte	8
 4526 0045 08        		.byte	8
 4527 0046 00        		.byte	0
 4528 0047 60        		.byte	96
 4529 0048 60        		.byte	96
 4530 0049 00        		.byte	0
 4531 004a 00        		.byte	0
 4532 004b 20        		.byte	32
 4533 004c 10        		.byte	16
 4534 004d 08        		.byte	8
 4535 004e 04        		.byte	4
 4536 004f 02        		.byte	2
 4537 0050 3E        		.byte	62
 4538 0051 51        		.byte	81
 4539 0052 49        		.byte	73
 4540 0053 45        		.byte	69
 4541 0054 3E        		.byte	62
 4542 0055 00        		.byte	0
 4543 0056 42        		.byte	66
 4544 0057 7F        		.byte	127
 4545 0058 40        		.byte	64
 4546 0059 00        		.byte	0
 4547 005a 42        		.byte	66
 4548 005b 61        		.byte	97
 4549 005c 51        		.byte	81
 4550 005d 49        		.byte	73
 4551 005e 46        		.byte	70
 4552 005f 21        		.byte	33
 4553 0060 41        		.byte	65
 4554 0061 45        		.byte	69
 4555 0062 4B        		.byte	75
 4556 0063 31        		.byte	49
 4557 0064 18        		.byte	24
 4558 0065 14        		.byte	20
 4559 0066 12        		.byte	18
 4560 0067 7F        		.byte	127
 4561 0068 10        		.byte	16
 4562 0069 27        		.byte	39
 4563 006a 45        		.byte	69
 4564 006b 45        		.byte	69
 4565 006c 45        		.byte	69
 4566 006d 39        		.byte	57
 4567 006e 3C        		.byte	60
 4568 006f 4A        		.byte	74
 4569 0070 49        		.byte	73
 4570 0071 49        		.byte	73
 4571 0072 30        		.byte	48
 4572 0073 01        		.byte	1
 4573 0074 71        		.byte	113
 4574 0075 09        		.byte	9
 4575 0076 05        		.byte	5
 4576 0077 03        		.byte	3
 4577 0078 36        		.byte	54
 4578 0079 49        		.byte	73
 4579 007a 49        		.byte	73
 4580 007b 49        		.byte	73
 4581 007c 36        		.byte	54
 4582 007d 06        		.byte	6
 4583 007e 49        		.byte	73
 4584 007f 49        		.byte	73
 4585 0080 29        		.byte	41
 4586 0081 1E        		.byte	30
 4587 0082 00        		.byte	0
 4588 0083 36        		.byte	54
 4589 0084 36        		.byte	54
 4590 0085 00        		.byte	0
 4591 0086 00        		.byte	0
 4592 0087 00        		.byte	0
 4593 0088 56        		.byte	86
 4594 0089 36        		.byte	54
 4595 008a 00        		.byte	0
 4596 008b 00        		.byte	0
 4597 008c 00        		.byte	0
 4598 008d 08        		.byte	8
 4599 008e 14        		.byte	20
 4600 008f 22        		.byte	34
 4601 0090 41        		.byte	65
 4602 0091 14        		.byte	20
 4603 0092 14        		.byte	20
 4604 0093 14        		.byte	20
 4605 0094 14        		.byte	20
 4606 0095 14        		.byte	20
 4607 0096 41        		.byte	65
 4608 0097 22        		.byte	34
 4609 0098 14        		.byte	20
 4610 0099 08        		.byte	8
 4611 009a 00        		.byte	0
 4612 009b 02        		.byte	2
 4613 009c 01        		.byte	1
 4614 009d 51        		.byte	81
 4615 009e 09        		.byte	9
 4616 009f 06        		.byte	6
 4617 00a0 32        		.byte	50
 4618 00a1 49        		.byte	73
 4619 00a2 79        		.byte	121
 4620 00a3 41        		.byte	65
 4621 00a4 3E        		.byte	62
 4622 00a5 7E        		.byte	126
 4623 00a6 11        		.byte	17
 4624 00a7 11        		.byte	17
 4625 00a8 11        		.byte	17
 4626 00a9 7E        		.byte	126
 4627 00aa 7F        		.byte	127
 4628 00ab 49        		.byte	73
 4629 00ac 49        		.byte	73
 4630 00ad 49        		.byte	73
 4631 00ae 36        		.byte	54
 4632 00af 3E        		.byte	62
 4633 00b0 41        		.byte	65
 4634 00b1 41        		.byte	65
 4635 00b2 41        		.byte	65
 4636 00b3 22        		.byte	34
 4637 00b4 7F        		.byte	127
 4638 00b5 41        		.byte	65
 4639 00b6 41        		.byte	65
 4640 00b7 22        		.byte	34
 4641 00b8 1C        		.byte	28
 4642 00b9 7F        		.byte	127
 4643 00ba 49        		.byte	73
 4644 00bb 49        		.byte	73
 4645 00bc 49        		.byte	73
 4646 00bd 41        		.byte	65
 4647 00be 7F        		.byte	127
 4648 00bf 09        		.byte	9
 4649 00c0 09        		.byte	9
 4650 00c1 01        		.byte	1
 4651 00c2 01        		.byte	1
 4652 00c3 3E        		.byte	62
 4653 00c4 41        		.byte	65
 4654 00c5 41        		.byte	65
 4655 00c6 51        		.byte	81
 4656 00c7 32        		.byte	50
 4657 00c8 7F        		.byte	127
 4658 00c9 08        		.byte	8
 4659 00ca 08        		.byte	8
 4660 00cb 08        		.byte	8
 4661 00cc 7F        		.byte	127
 4662 00cd 00        		.byte	0
 4663 00ce 41        		.byte	65
 4664 00cf 7F        		.byte	127
 4665 00d0 41        		.byte	65
 4666 00d1 00        		.byte	0
 4667 00d2 20        		.byte	32
 4668 00d3 40        		.byte	64
 4669 00d4 41        		.byte	65
 4670 00d5 3F        		.byte	63
 4671 00d6 01        		.byte	1
 4672 00d7 7F        		.byte	127
 4673 00d8 08        		.byte	8
 4674 00d9 14        		.byte	20
 4675 00da 22        		.byte	34
 4676 00db 41        		.byte	65
 4677 00dc 7F        		.byte	127
 4678 00dd 40        		.byte	64
 4679 00de 40        		.byte	64
 4680 00df 40        		.byte	64
 4681 00e0 40        		.byte	64
 4682 00e1 7F        		.byte	127
 4683 00e2 02        		.byte	2
 4684 00e3 04        		.byte	4
 4685 00e4 02        		.byte	2
 4686 00e5 7F        		.byte	127
 4687 00e6 7F        		.byte	127
 4688 00e7 04        		.byte	4
 4689 00e8 08        		.byte	8
 4690 00e9 10        		.byte	16
 4691 00ea 7F        		.byte	127
 4692 00eb 3E        		.byte	62
 4693 00ec 41        		.byte	65
 4694 00ed 41        		.byte	65
 4695 00ee 41        		.byte	65
 4696 00ef 3E        		.byte	62
 4697 00f0 7F        		.byte	127
 4698 00f1 09        		.byte	9
 4699 00f2 09        		.byte	9
 4700 00f3 09        		.byte	9
 4701 00f4 06        		.byte	6
 4702 00f5 3E        		.byte	62
 4703 00f6 41        		.byte	65
 4704 00f7 51        		.byte	81
 4705 00f8 21        		.byte	33
 4706 00f9 5E        		.byte	94
 4707 00fa 7F        		.byte	127
 4708 00fb 09        		.byte	9
 4709 00fc 19        		.byte	25
 4710 00fd 29        		.byte	41
 4711 00fe 46        		.byte	70
 4712 00ff 46        		.byte	70
 4713 0100 49        		.byte	73
 4714 0101 49        		.byte	73
 4715 0102 49        		.byte	73
 4716 0103 31        		.byte	49
 4717 0104 01        		.byte	1
 4718 0105 01        		.byte	1
 4719 0106 7F        		.byte	127
 4720 0107 01        		.byte	1
 4721 0108 01        		.byte	1
 4722 0109 3F        		.byte	63
 4723 010a 40        		.byte	64
 4724 010b 40        		.byte	64
 4725 010c 40        		.byte	64
 4726 010d 3F        		.byte	63
 4727 010e 1F        		.byte	31
 4728 010f 20        		.byte	32
 4729 0110 40        		.byte	64
 4730 0111 20        		.byte	32
 4731 0112 1F        		.byte	31
 4732 0113 7F        		.byte	127
 4733 0114 20        		.byte	32
 4734 0115 18        		.byte	24
 4735 0116 20        		.byte	32
 4736 0117 7F        		.byte	127
 4737 0118 63        		.byte	99
 4738 0119 14        		.byte	20
 4739 011a 08        		.byte	8
 4740 011b 14        		.byte	20
 4741 011c 63        		.byte	99
 4742 011d 03        		.byte	3
 4743 011e 04        		.byte	4
 4744 011f 78        		.byte	120
 4745 0120 04        		.byte	4
 4746 0121 03        		.byte	3
 4747 0122 61        		.byte	97
 4748 0123 51        		.byte	81
 4749 0124 49        		.byte	73
 4750 0125 45        		.byte	69
 4751 0126 43        		.byte	67
 4752 0127 00        		.byte	0
 4753 0128 00        		.byte	0
 4754 0129 7F        		.byte	127
 4755 012a 41        		.byte	65
 4756 012b 41        		.byte	65
 4757 012c 02        		.byte	2
 4758 012d 04        		.byte	4
 4759 012e 08        		.byte	8
 4760 012f 10        		.byte	16
 4761 0130 20        		.byte	32
 4762 0131 41        		.byte	65
 4763 0132 41        		.byte	65
 4764 0133 7F        		.byte	127
 4765 0134 00        		.byte	0
 4766 0135 00        		.byte	0
 4767 0136 04        		.byte	4
 4768 0137 02        		.byte	2
 4769 0138 01        		.byte	1
 4770 0139 02        		.byte	2
 4771 013a 04        		.byte	4
 4772 013b 40        		.byte	64
 4773 013c 40        		.byte	64
 4774 013d 40        		.byte	64
 4775 013e 40        		.byte	64
 4776 013f 40        		.byte	64
 4777 0140 00        		.byte	0
 4778 0141 01        		.byte	1
 4779 0142 02        		.byte	2
 4780 0143 04        		.byte	4
 4781 0144 00        		.byte	0
 4782 0145 20        		.byte	32
 4783 0146 54        		.byte	84
 4784 0147 54        		.byte	84
 4785 0148 54        		.byte	84
 4786 0149 78        		.byte	120
 4787 014a 7F        		.byte	127
 4788 014b 48        		.byte	72
 4789 014c 44        		.byte	68
 4790 014d 44        		.byte	68
 4791 014e 38        		.byte	56
 4792 014f 38        		.byte	56
 4793 0150 44        		.byte	68
 4794 0151 44        		.byte	68
 4795 0152 44        		.byte	68
 4796 0153 20        		.byte	32
 4797 0154 38        		.byte	56
 4798 0155 44        		.byte	68
 4799 0156 44        		.byte	68
 4800 0157 48        		.byte	72
 4801 0158 7F        		.byte	127
 4802 0159 38        		.byte	56
 4803 015a 54        		.byte	84
 4804 015b 54        		.byte	84
 4805 015c 54        		.byte	84
 4806 015d 18        		.byte	24
 4807 015e 08        		.byte	8
 4808 015f 7E        		.byte	126
 4809 0160 09        		.byte	9
 4810 0161 01        		.byte	1
 4811 0162 02        		.byte	2
 4812 0163 08        		.byte	8
 4813 0164 14        		.byte	20
 4814 0165 54        		.byte	84
 4815 0166 54        		.byte	84
 4816 0167 3C        		.byte	60
 4817 0168 7F        		.byte	127
 4818 0169 08        		.byte	8
 4819 016a 04        		.byte	4
 4820 016b 04        		.byte	4
 4821 016c 78        		.byte	120
 4822 016d 00        		.byte	0
 4823 016e 44        		.byte	68
 4824 016f 7D        		.byte	125
 4825 0170 40        		.byte	64
 4826 0171 00        		.byte	0
 4827 0172 20        		.byte	32
 4828 0173 40        		.byte	64
 4829 0174 44        		.byte	68
 4830 0175 3D        		.byte	61
 4831 0176 00        		.byte	0
 4832 0177 00        		.byte	0
 4833 0178 7F        		.byte	127
 4834 0179 10        		.byte	16
 4835 017a 28        		.byte	40
 4836 017b 44        		.byte	68
 4837 017c 00        		.byte	0
 4838 017d 41        		.byte	65
 4839 017e 7F        		.byte	127
 4840 017f 40        		.byte	64
 4841 0180 00        		.byte	0
 4842 0181 7C        		.byte	124
 4843 0182 04        		.byte	4
 4844 0183 18        		.byte	24
 4845 0184 04        		.byte	4
 4846 0185 78        		.byte	120
 4847 0186 7C        		.byte	124
 4848 0187 08        		.byte	8
 4849 0188 04        		.byte	4
 4850 0189 04        		.byte	4
 4851 018a 78        		.byte	120
 4852 018b 38        		.byte	56
 4853 018c 44        		.byte	68
 4854 018d 44        		.byte	68
 4855 018e 44        		.byte	68
 4856 018f 38        		.byte	56
 4857 0190 7C        		.byte	124
 4858 0191 14        		.byte	20
 4859 0192 14        		.byte	20
 4860 0193 14        		.byte	20
 4861 0194 08        		.byte	8
 4862 0195 08        		.byte	8
 4863 0196 14        		.byte	20
 4864 0197 14        		.byte	20
 4865 0198 18        		.byte	24
 4866 0199 7C        		.byte	124
 4867 019a 7C        		.byte	124
 4868 019b 08        		.byte	8
 4869 019c 04        		.byte	4
 4870 019d 04        		.byte	4
 4871 019e 08        		.byte	8
 4872 019f 48        		.byte	72
 4873 01a0 54        		.byte	84
 4874 01a1 54        		.byte	84
 4875 01a2 54        		.byte	84
 4876 01a3 20        		.byte	32
 4877 01a4 04        		.byte	4
 4878 01a5 3F        		.byte	63
 4879 01a6 44        		.byte	68
 4880 01a7 40        		.byte	64
 4881 01a8 20        		.byte	32
 4882 01a9 3C        		.byte	60
 4883 01aa 40        		.byte	64
 4884 01ab 40        		.byte	64
 4885 01ac 20        		.byte	32
 4886 01ad 7C        		.byte	124
 4887 01ae 1C        		.byte	28
 4888 01af 20        		.byte	32
 4889 01b0 40        		.byte	64
 4890 01b1 20        		.byte	32
 4891 01b2 1C        		.byte	28
 4892 01b3 3C        		.byte	60
 4893 01b4 40        		.byte	64
 4894 01b5 30        		.byte	48
 4895 01b6 40        		.byte	64
 4896 01b7 3C        		.byte	60
 4897 01b8 44        		.byte	68
 4898 01b9 28        		.byte	40
 4899 01ba 10        		.byte	16
 4900 01bb 28        		.byte	40
 4901 01bc 44        		.byte	68
 4902 01bd 0C        		.byte	12
 4903 01be 50        		.byte	80
 4904 01bf 50        		.byte	80
 4905 01c0 50        		.byte	80
 4906 01c1 3C        		.byte	60
 4907 01c2 44        		.byte	68
 4908 01c3 64        		.byte	100
 4909 01c4 54        		.byte	84
 4910 01c5 4C        		.byte	76
 4911 01c6 44        		.byte	68
 4912 01c7 00        		.byte	0
 4913 01c8 08        		.byte	8
 4914 01c9 36        		.byte	54
 4915 01ca 41        		.byte	65
 4916 01cb 00        		.byte	0
 4917 01cc 00        		.byte	0
 4918 01cd 00        		.byte	0
 4919 01ce 7F        		.byte	127
 4920 01cf 00        		.byte	0
 4921 01d0 00        		.byte	0
 4922 01d1 00        		.byte	0
 4923 01d2 41        		.byte	65
 4924 01d3 36        		.byte	54
 4925 01d4 08        		.byte	8
 4926 01d5 00        		.byte	0
 4927               	.global	small_zero
 4928               		.data
 4931               	small_zero:
 4932 0006 00        		.byte	0
 4933 0007 01        		.byte	1
 4934 0008 01        		.byte	1
 4935 0009 00        		.byte	0
 4936 000a 01        		.byte	1
 4937 000b 00        		.byte	0
 4938 000c 00        		.byte	0
 4939 000d 01        		.byte	1
 4940 000e 01        		.byte	1
 4941 000f 00        		.byte	0
 4942 0010 00        		.byte	0
 4943 0011 01        		.byte	1
 4944 0012 01        		.byte	1
 4945 0013 00        		.byte	0
 4946 0014 00        		.byte	0
 4947 0015 01        		.byte	1
 4948 0016 00        		.byte	0
 4949 0017 01        		.byte	1
 4950 0018 01        		.byte	1
 4951 0019 00        		.byte	0
 4952               	.global	small_two
 4955               	small_two:
 4956 001a 01        		.byte	1
 4957 001b 01        		.byte	1
 4958 001c 01        		.byte	1
 4959 001d 00        		.byte	0
 4960 001e 00        		.byte	0
 4961 001f 01        		.byte	1
 4962 0020 00        		.byte	0
 4963 0021 01        		.byte	1
 4964 0022 00        		.byte	0
 4965 0023 01        		.byte	1
 4966 0024 00        		.byte	0
 4967 0025 00        		.byte	0
 4968 0026 01        		.byte	1
 4969 0027 01        		.byte	1
 4970 0028 01        		.byte	1
 4971               	.global	small_four
 4974               	small_four:
 4975 0029 01        		.byte	1
 4976 002a 00        		.byte	0
 4977 002b 01        		.byte	1
 4978 002c 01        		.byte	1
 4979 002d 00        		.byte	0
 4980 002e 01        		.byte	1
 4981 002f 01        		.byte	1
 4982 0030 01        		.byte	1
 4983 0031 01        		.byte	1
 4984 0032 00        		.byte	0
 4985 0033 00        		.byte	0
 4986 0034 01        		.byte	1
 4987 0035 00        		.byte	0
 4988 0036 00        		.byte	0
 4989 0037 01        		.byte	1
 4990               	.global	small_one
 4993               	small_one:
 4994 0038 00        		.byte	0
 4995 0039 01        		.byte	1
 4996 003a 01        		.byte	1
 4997 003b 01        		.byte	1
 4998 003c 00        		.byte	0
 4999 003d 01        		.byte	1
 5000 003e 00        		.byte	0
 5001 003f 01        		.byte	1
 5002 0040 00        		.byte	0
 5003 0041 01        		.byte	1
 5004               	.global	small_eight
 5007               	small_eight:
 5008 0042 01        		.byte	1
 5009 0043 01        		.byte	1
 5010 0044 01        		.byte	1
 5011 0045 01        		.byte	1
 5012 0046 00        		.byte	0
 5013 0047 01        		.byte	1
 5014 0048 01        		.byte	1
 5015 0049 01        		.byte	1
 5016 004a 01        		.byte	1
 5017 004b 01        		.byte	1
 5018 004c 00        		.byte	0
 5019 004d 01        		.byte	1
 5020 004e 01        		.byte	1
 5021 004f 01        		.byte	1
 5022 0050 01        		.byte	1
 5023               	.global	small_s
 5026               	small_s:
 5027 0051 01        		.byte	1
 5028 0052 01        		.byte	1
 5029 0053 01        		.byte	1
 5030 0054 01        		.byte	1
 5031 0055 00        		.byte	0
 5032 0056 00        		.byte	0
 5033 0057 01        		.byte	1
 5034 0058 01        		.byte	1
 5035 0059 01        		.byte	1
 5036 005a 00        		.byte	0
 5037 005b 00        		.byte	0
 5038 005c 01        		.byte	1
 5039 005d 01        		.byte	1
 5040 005e 01        		.byte	1
 5041 005f 01        		.byte	1
 5042               	.global	small_p
 5045               	small_p:
 5046 0060 01        		.byte	1
 5047 0061 01        		.byte	1
 5048 0062 01        		.byte	1
 5049 0063 01        		.byte	1
 5050 0064 00        		.byte	0
 5051 0065 01        		.byte	1
 5052 0066 01        		.byte	1
 5053 0067 01        		.byte	1
 5054 0068 01        		.byte	1
 5055 0069 01        		.byte	1
 5056 006a 00        		.byte	0
 5057 006b 00        		.byte	0
 5058 006c 01        		.byte	1
 5059 006d 00        		.byte	0
 5060 006e 00        		.byte	0
 5061               	.global	ball
 5064               	ball:
 5065 006f 00        		.byte	0
 5066 0070 00        		.byte	0
 5067 0071 01        		.byte	1
 5068 0072 01        		.byte	1
 5069 0073 01        		.byte	1
 5070 0074 01        		.byte	1
 5071 0075 00        		.byte	0
 5072 0076 00        		.byte	0
 5073 0077 00        		.byte	0
 5074 0078 01        		.byte	1
 5075 0079 01        		.byte	1
 5076 007a 01        		.byte	1
 5077 007b 01        		.byte	1
 5078 007c 01        		.byte	1
 5079 007d 01        		.byte	1
 5080 007e 00        		.byte	0
 5081 007f 01        		.byte	1
 5082 0080 01        		.byte	1
 5083 0081 01        		.byte	1
 5084 0082 01        		.byte	1
 5085 0083 01        		.byte	1
 5086 0084 01        		.byte	1
 5087 0085 01        		.byte	1
 5088 0086 01        		.byte	1
 5089 0087 01        		.byte	1
 5090 0088 01        		.byte	1
 5091 0089 01        		.byte	1
 5092 008a 01        		.byte	1
 5093 008b 01        		.byte	1
 5094 008c 01        		.byte	1
 5095 008d 00        		.byte	0
 5096 008e 01        		.byte	1
 5097 008f 01        		.byte	1
 5098 0090 01        		.byte	1
 5099 0091 01        		.byte	1
 5100 0092 01        		.byte	1
 5101 0093 01        		.byte	1
 5102 0094 01        		.byte	1
 5103 0095 00        		.byte	0
 5104 0096 01        		.byte	1
 5105 0097 01        		.byte	1
 5106 0098 01        		.byte	1
 5107 0099 01        		.byte	1
 5108 009a 01        		.byte	1
 5109 009b 01        		.byte	1
 5110 009c 00        		.byte	0
 5111 009d 01        		.byte	1
 5112 009e 01        		.byte	1
 5113 009f 00        		.byte	0
 5114 00a0 01        		.byte	1
 5115 00a1 01        		.byte	1
 5116 00a2 01        		.byte	1
 5117 00a3 01        		.byte	1
 5118 00a4 01        		.byte	1
 5119 00a5 01        		.byte	1
 5120 00a6 00        		.byte	0
 5121 00a7 00        		.byte	0
 5122 00a8 00        		.byte	0
 5123 00a9 01        		.byte	1
 5124 00aa 01        		.byte	1
 5125 00ab 01        		.byte	1
 5126 00ac 01        		.byte	1
 5127 00ad 00        		.byte	0
 5128 00ae 00        		.byte	0
 5129               	.global	_tball
 5132               	_tball:
 5133 00af 3C        		.byte	60
 5134 00b0 7E        		.byte	126
 5135 00b1 FF        		.byte	-1
 5136 00b2 BF        		.byte	-65
 5137 00b3 BF        		.byte	-65
 5138 00b4 DF        		.byte	-33
 5139 00b5 7E        		.byte	126
 5140 00b6 3C        		.byte	60
 5141               	.global	deg_char
 5144               	deg_char:
 5145 00b7 00        		.byte	0
 5146 00b8 01        		.byte	1
 5147 00b9 01        		.byte	1
 5148 00ba 01        		.byte	1
 5149 00bb 00        		.byte	0
 5150 00bc 00        		.byte	0
 5151 00bd 01        		.byte	1
 5152 00be 00        		.byte	0
 5153 00bf 01        		.byte	1
 5154 00c0 00        		.byte	0
 5155 00c1 00        		.byte	0
 5156 00c2 01        		.byte	1
 5157 00c3 01        		.byte	1
 5158 00c4 01        		.byte	1
 5159 00c5 00        		.byte	0
 5160               	.global	small_tt
 5163               	small_tt:
 5164 00c6 52        		.byte	82
 5165 00c7 05        		.byte	5
 5166               	.global	__clock__
 5167               	.global	__clock__
 5168               		.section .bss
 5171               	__clock__:
 5172 0000 0000 0000 		.skip 8,0
 5172      0000 0000 
 5173               	.global	debounce_a
 5174               	.global	debounce_a
 5177               	debounce_a:
 5178 0008 0000 0000 		.skip 8,0
 5178      0000 0000 
 5179               	.global	debounce_b
 5180               	.global	debounce_b
 5183               	debounce_b:
 5184 0010 0000 0000 		.skip 8,0
 5184      0000 0000 
 5185               	.global	debounce_c
 5186               	.global	debounce_c
 5189               	debounce_c:
 5190 0018 0000 0000 		.skip 8,0
 5190      0000 0000 
 5191               	.global	debounce_d
 5192               	.global	debounce_d
 5195               	debounce_d:
 5196 0020 0000 0000 		.skip 8,0
 5196      0000 0000 
 5197               	.global	usp
 5198               		.data
 5201               	usp:
 5202 00c8 0100      		.word	1
 5203               	.global	ltp
 5206               	ltp:
 5207 00ca 28        		.byte	40
 5208               	.global	conversion_start
 5209               	.global	conversion_start
 5210               		.section .bss
 5213               	conversion_start:
 5214 0028 0000 0000 		.skip 8,0
 5214      0000 0000 
 5215               	.global	conversion
 5216               	.global	conversion
 5219               	conversion:
 5220 0030 00        		.skip 1,0
 5221               	.global	ovf_flag
 5222               	.global	ovf_flag
 5225               	ovf_flag:
 5226 0031 00        		.skip 1,0
 5227               	.global	actual_t
 5228               	.global	actual_t
 5231               	actual_t:
 5232 0032 0000      		.skip 2,0
 5233               	.global	shown_value
 5234               	.global	shown_value
 5237               	shown_value:
 5238 0034 0000      		.skip 2,0
 5239               	.global	last_upd
 5240               	.global	last_upd
 5243               	last_upd:
 5244 0036 0000 0000 		.skip 8,0
 5244      0000 0000 
 5245               	.global	vm
 5246               	.global	vm
 5249               	vm:
 5250 003e 00        		.skip 1,0
 5251               	.global	hook_m_ptr
 5252               	.global	hook_m_ptr
 5255               	hook_m_ptr:
 5256 003f 00        		.skip 1,0
 5257               		.comm LCD_CACHE,504,1
 5258               		.comm LWM,2,1
 5259               		.comm HWM,2,1
 5260               		.comm values_for_chart,114,1
 5261               		.comm hooks,20,1
 5670               	.Letext0:
DEFINED SYMBOLS
                            *ABS*:00000000 main.c
C:\Users\vivanov\AppData\Local\Temp/ccz6FhYj.s:2      *ABS*:0000003f __SREG__
C:\Users\vivanov\AppData\Local\Temp/ccz6FhYj.s:3      *ABS*:0000003e __SP_H__
C:\Users\vivanov\AppData\Local\Temp/ccz6FhYj.s:4      *ABS*:0000003d __SP_L__
C:\Users\vivanov\AppData\Local\Temp/ccz6FhYj.s:5      *ABS*:00000034 __CCP__
C:\Users\vivanov\AppData\Local\Temp/ccz6FhYj.s:6      *ABS*:00000000 __tmp_reg__
C:\Users\vivanov\AppData\Local\Temp/ccz6FhYj.s:7      *ABS*:00000001 __zero_reg__
C:\Users\vivanov\AppData\Local\Temp/ccz6FhYj.s:18     .text:00000000 wait
C:\Users\vivanov\AppData\Local\Temp/ccz6FhYj.s:30     .text:00000002 lcd_send_data
C:\Users\vivanov\AppData\Local\Temp/ccz6FhYj.s:55     .text:00000010 lcd_send_cmd
C:\Users\vivanov\AppData\Local\Temp/ccz6FhYj.s:80     .text:0000001e lcd_update
                            *COM*:00000002 LWM
                            *COM*:00000002 HWM
                            *COM*:000001f8 LCD_CACHE
C:\Users\vivanov\AppData\Local\Temp/ccz6FhYj.s:184    .text:000000e2 lcd_pixel
C:\Users\vivanov\AppData\Local\Temp/ccz6FhYj.s:304    .text:0000019c min
C:\Users\vivanov\AppData\Local\Temp/ccz6FhYj.s:329    .text:000001ac max
C:\Users\vivanov\AppData\Local\Temp/ccz6FhYj.s:354    .text:000001bc lcd_h_line
C:\Users\vivanov\AppData\Local\Temp/ccz6FhYj.s:435    .text:00000214 lcd_v_line
C:\Users\vivanov\AppData\Local\Temp/ccz6FhYj.s:517    .text:0000026c lcd_line
C:\Users\vivanov\AppData\Local\Temp/ccz6FhYj.s:757    .text:0000038a lcd_draw_v2
C:\Users\vivanov\AppData\Local\Temp/ccz6FhYj.s:904    .text:00000436 lcd_draw
C:\Users\vivanov\AppData\Local\Temp/ccz6FhYj.s:1026   .text:000004c8 dt_test
C:\Users\vivanov\AppData\Local\Temp/ccz6FhYj.s:1120   .text:000004f2 dt_rx
C:\Users\vivanov\AppData\Local\Temp/ccz6FhYj.s:1207   .text:0000051c dt_rx8
C:\Users\vivanov\AppData\Local\Temp/ccz6FhYj.s:1249   .text:0000054c dt_tx
C:\Users\vivanov\AppData\Local\Temp/ccz6FhYj.s:1315   .text:00000568 dt_tx8
C:\Users\vivanov\AppData\Local\Temp/ccz6FhYj.s:1381   .text:000005ba dt_convert
C:\Users\vivanov\AppData\Local\Temp/ccz6FhYj.s:1402   .text:000005ca dt_read
C:\Users\vivanov\AppData\Local\Temp/ccz6FhYj.s:1447   .text:000005f8 t_integer_part
C:\Users\vivanov\AppData\Local\Temp/ccz6FhYj.s:1477   .text:00000618 t_sign
C:\Users\vivanov\AppData\Local\Temp/ccz6FhYj.s:1495   .text:00000622 n_pow2
C:\Users\vivanov\AppData\Local\Temp/ccz6FhYj.s:1537   .text:0000064c t_float_part
C:\Users\vivanov\AppData\Local\Temp/ccz6FhYj.s:1650   .text:000006d2 io_init
C:\Users\vivanov\AppData\Local\Temp/ccz6FhYj.s:1667   .text:000006da io_write
C:\Users\vivanov\AppData\Local\Temp/ccz6FhYj.s:1709   .text:0000070e io_read
C:\Users\vivanov\AppData\Local\Temp/ccz6FhYj.s:1734   .text:00000724 __vector_9
C:\Users\vivanov\AppData\Local\Temp/ccz6FhYj.s:5171   .bss:00000000 __clock__
C:\Users\vivanov\AppData\Local\Temp/ccz6FhYj.s:1848   .text:00000802 clock_init
C:\Users\vivanov\AppData\Local\Temp/ccz6FhYj.s:1873   .text:00000810 clock
C:\Users\vivanov\AppData\Local\Temp/ccz6FhYj.s:1894   .text:00000832 change_upd_speed
C:\Users\vivanov\AppData\Local\Temp/ccz6FhYj.s:5201   .data:000000c8 usp
C:\Users\vivanov\AppData\Local\Temp/ccz6FhYj.s:1937   .text:0000086e change_line_type
C:\Users\vivanov\AppData\Local\Temp/ccz6FhYj.s:5206   .data:000000ca ltp
C:\Users\vivanov\AppData\Local\Temp/ccz6FhYj.s:1971   .text:00000892 change_view_mode
C:\Users\vivanov\AppData\Local\Temp/ccz6FhYj.s:5249   .bss:0000003e vm
C:\Users\vivanov\AppData\Local\Temp/ccz6FhYj.s:1996   .text:000008ac hooks_init
                            *COM*:00000014 hooks
C:\Users\vivanov\AppData\Local\Temp/ccz6FhYj.s:2037   .text:000008e4 draw_hook_ptr
C:\Users\vivanov\AppData\Local\Temp/ccz6FhYj.s:2083   .text:00000918 print_hook
C:\Users\vivanov\AppData\Local\Temp/ccz6FhYj.s:2096   .text:0000091a sc_top
C:\Users\vivanov\AppData\Local\Temp/ccz6FhYj.s:5225   .bss:00000031 ovf_flag
C:\Users\vivanov\AppData\Local\Temp/ccz6FhYj.s:2209   .text:000009be draw_chart
                            *COM*:00000072 values_for_chart
C:\Users\vivanov\AppData\Local\Temp/ccz6FhYj.s:2267   .text:00000a0a add_new_chart_value
C:\Users\vivanov\AppData\Local\Temp/ccz6FhYj.s:2301   .text:00000a26 clear_chart
C:\Users\vivanov\AppData\Local\Temp/ccz6FhYj.s:2327   .text:00000a38 draw_bar
C:\Users\vivanov\AppData\Local\Temp/ccz6FhYj.s:2361   .text:00000a5c draw_update_speed_indicator
C:\Users\vivanov\AppData\Local\Temp/ccz6FhYj.s:2429   .text:00000ab6 draw_values_line
C:\Users\vivanov\AppData\Local\Temp/ccz6FhYj.s:4955   .data:0000001a small_two
C:\Users\vivanov\AppData\Local\Temp/ccz6FhYj.s:4993   .data:00000038 small_one
C:\Users\vivanov\AppData\Local\Temp/ccz6FhYj.s:5007   .data:00000042 small_eight
C:\Users\vivanov\AppData\Local\Temp/ccz6FhYj.s:4974   .data:00000029 small_four
C:\Users\vivanov\AppData\Local\Temp/ccz6FhYj.s:2531   .text:00000b42 draw_interface
C:\Users\vivanov\AppData\Local\Temp/ccz6FhYj.s:4931   .data:00000006 small_zero
C:\Users\vivanov\AppData\Local\Temp/ccz6FhYj.s:5064   .data:0000006f ball
C:\Users\vivanov\AppData\Local\Temp/ccz6FhYj.s:5026   .data:00000051 small_s
C:\Users\vivanov\AppData\Local\Temp/ccz6FhYj.s:5045   .data:00000060 small_p
C:\Users\vivanov\AppData\Local\Temp/ccz6FhYj.s:2728   .text:00000c64 lcd_put_char
C:\Users\vivanov\AppData\Local\Temp/ccz6FhYj.s:4456   .eeprom:00000000 CHARS_TABLE
C:\Users\vivanov\AppData\Local\Temp/ccz6FhYj.s:2836   .text:00000cf4 lcd_put_string
C:\Users\vivanov\AppData\Local\Temp/ccz6FhYj.s:2915   .text:00000d56 draw_current_value
C:\Users\vivanov\AppData\Local\Temp/ccz6FhYj.s:5144   .data:000000b7 deg_char
C:\Users\vivanov\AppData\Local\Temp/ccz6FhYj.s:3073   .text:00000e44 lcd_clear
C:\Users\vivanov\AppData\Local\Temp/ccz6FhYj.s:3104   .text:00000e6e lcd_init
C:\Users\vivanov\AppData\Local\Temp/ccz6FhYj.s:3157   .text:00000e9e main
C:\Users\vivanov\AppData\Local\Temp/ccz6FhYj.s:5219   .bss:00000030 conversion
C:\Users\vivanov\AppData\Local\Temp/ccz6FhYj.s:5213   .bss:00000028 conversion_start
C:\Users\vivanov\AppData\Local\Temp/ccz6FhYj.s:5231   .bss:00000032 actual_t
C:\Users\vivanov\AppData\Local\Temp/ccz6FhYj.s:5243   .bss:00000036 last_upd
C:\Users\vivanov\AppData\Local\Temp/ccz6FhYj.s:5237   .bss:00000034 shown_value
C:\Users\vivanov\AppData\Local\Temp/ccz6FhYj.s:5195   .bss:00000020 debounce_d
C:\Users\vivanov\AppData\Local\Temp/ccz6FhYj.s:5177   .bss:00000008 debounce_a
C:\Users\vivanov\AppData\Local\Temp/ccz6FhYj.s:5183   .bss:00000010 debounce_b
C:\Users\vivanov\AppData\Local\Temp/ccz6FhYj.s:5132   .data:000000af _tball
C:\Users\vivanov\AppData\Local\Temp/ccz6FhYj.s:5255   .bss:0000003f hook_m_ptr
C:\Users\vivanov\AppData\Local\Temp/ccz6FhYj.s:5163   .data:000000c6 small_tt
C:\Users\vivanov\AppData\Local\Temp/ccz6FhYj.s:5189   .bss:00000018 debounce_c

UNDEFINED SYMBOLS
__divmodhi4
__mulsf3
__addsf3
__eerd_byte_m8
itoa
__fixsfsi
__do_copy_data
__do_clear_bss
