   1               		.file	"main.c"
   2               	__SREG__ = 0x3f
   3               	__SP_H__ = 0x3e
   4               	__SP_L__ = 0x3d
   5               	__CCP__  = 0x34
   6               	__tmp_reg__ = 0
   7               	__zero_reg__ = 1
  15               	.Ltext0:
  16               	.global	wait
  18               	wait:
  19               	.LFB5:
  20               	.LM1:
  21               	/* prologue: function */
  22               	/* frame size = 0 */
  23               	/* epilogue start */
  24               	.LM2:
  25 0000 0895      		ret
  26               	.LFE5:
  28               	.global	lcd_send_data
  30               	lcd_send_data:
  31               	.LFB6:
  32               	.LM3:
  33               	.LVL0:
  34               	/* prologue: function */
  35               	/* frame size = 0 */
  36               	.LM4:
  37 0002 C298      		cbi 56-32,2
  38               	.LM5:
  39 0004 C19A      		sbi 56-32,1
  40               	.LM6:
  41 0006 8FB9      		out 47-32,r24
  42               	.L4:
  43               	.LM7:
  44 0008 779B      		sbis 46-32,7
  45 000a 00C0      		rjmp .L4
  46               	.LM8:
  47 000c C29A      		sbi 56-32,2
  48               	/* epilogue start */
  49               	.LM9:
  50 000e 0895      		ret
  51               	.LFE6:
  53               	.global	lcd_send_cmd
  55               	lcd_send_cmd:
  56               	.LFB7:
  57               	.LM10:
  58               	.LVL1:
  59               	/* prologue: function */
  60               	/* frame size = 0 */
  61               	.LM11:
  62 0010 C298      		cbi 56-32,2
  63               	.LM12:
  64 0012 C198      		cbi 56-32,1
  65               	.LM13:
  66 0014 8FB9      		out 47-32,r24
  67               	.L8:
  68               	.LM14:
  69 0016 779B      		sbis 46-32,7
  70 0018 00C0      		rjmp .L8
  71               	.LM15:
  72 001a C29A      		sbi 56-32,2
  73               	/* epilogue start */
  74               	.LM16:
  75 001c 0895      		ret
  76               	.LFE7:
  78               	.global	lcd_update
  80               	lcd_update:
  81               	.LFB9:
  82               	.LM17:
  83 001e 0F93      		push r16
  84 0020 1F93      		push r17
  85 0022 CF93      		push r28
  86 0024 DF93      		push r29
  87               	/* prologue: function */
  88               	/* frame size = 0 */
  89               	.LM18:
  90 0026 8091 0000 		lds r24,LWM
  91 002a 9091 0000 		lds r25,(LWM)+1
  92 002e 97FF      		sbrs r25,7
  93 0030 00C0      		rjmp .L12
  94 0032 1092 0000 		sts (LWM)+1,__zero_reg__
  95 0036 1092 0000 		sts LWM,__zero_reg__
  96 003a 00C0      		rjmp .L13
  97               	.L12:
  98               	.LM19:
  99 003c 885F      		subi r24,lo8(504)
 100 003e 9140      		sbci r25,hi8(504)
 101 0040 04F0      		brlt .L13
 102 0042 87EF      		ldi r24,lo8(503)
 103 0044 91E0      		ldi r25,hi8(503)
 104 0046 9093 0000 		sts (LWM)+1,r25
 105 004a 8093 0000 		sts LWM,r24
 106               	.L13:
 107               	.LM20:
 108 004e 8091 0000 		lds r24,HWM
 109 0052 9091 0000 		lds r25,(HWM)+1
 110 0056 97FF      		sbrs r25,7
 111 0058 00C0      		rjmp .L14
 112 005a 1092 0000 		sts (HWM)+1,__zero_reg__
 113 005e 1092 0000 		sts HWM,__zero_reg__
 114 0062 00C0      		rjmp .L15
 115               	.L14:
 116               	.LM21:
 117 0064 885F      		subi r24,lo8(504)
 118 0066 9140      		sbci r25,hi8(504)
 119 0068 04F0      		brlt .L15
 120 006a 87EF      		ldi r24,lo8(503)
 121 006c 91E0      		ldi r25,hi8(503)
 122 006e 9093 0000 		sts (HWM)+1,r25
 123 0072 8093 0000 		sts HWM,r24
 124               	.L15:
 125               	.LM22:
 126 0076 8091 0000 		lds r24,LWM
 127 007a 9091 0000 		lds r25,(LWM)+1
 128 007e 64E5      		ldi r22,lo8(84)
 129 0080 70E0      		ldi r23,hi8(84)
 130 0082 00D0      		rcall __divmodhi4
 131 0084 8068      		ori r24,lo8(-128)
 132 0086 00D0      		rcall lcd_send_cmd
 133               	.LM23:
 134 0088 8091 0000 		lds r24,LWM
 135 008c 9091 0000 		lds r25,(LWM)+1
 136 0090 64E5      		ldi r22,lo8(84)
 137 0092 70E0      		ldi r23,hi8(84)
 138 0094 00D0      		rcall __divmodhi4
 139 0096 862F      		mov r24,r22
 140 0098 8064      		ori r24,lo8(64)
 141 009a 00D0      		rcall lcd_send_cmd
 142               	.LM24:
 143 009c C091 0000 		lds r28,LWM
 144 00a0 D091 0000 		lds r29,(LWM)+1
 145               	.LVL2:
 146 00a4 8E01      		movw r16,r28
 147 00a6 0050      		subi r16,lo8(-(LCD_CACHE))
 148 00a8 1040      		sbci r17,hi8(-(LCD_CACHE))
 149 00aa 00C0      		rjmp .L16
 150               	.L17:
 151               	.LM25:
 152 00ac F801      		movw r30,r16
 153 00ae 8191      		ld r24,Z+
 154 00b0 8F01      		movw r16,r30
 155 00b2 00D0      		rcall lcd_send_data
 156               	.LM26:
 157 00b4 2196      		adiw r28,1
 158               	.L16:
 159 00b6 8091 0000 		lds r24,HWM
 160 00ba 9091 0000 		lds r25,(HWM)+1
 161 00be 8C17      		cp r24,r28
 162 00c0 9D07      		cpc r25,r29
 163 00c2 04F4      		brge .L17
 164               	.LM27:
 165 00c4 87EF      		ldi r24,lo8(503)
 166 00c6 91E0      		ldi r25,hi8(503)
 167 00c8 9093 0000 		sts (LWM)+1,r25
 168 00cc 8093 0000 		sts LWM,r24
 169               	.LM28:
 170 00d0 1092 0000 		sts (HWM)+1,__zero_reg__
 171 00d4 1092 0000 		sts HWM,__zero_reg__
 172               	/* epilogue start */
 173               	.LM29:
 174 00d8 DF91      		pop r29
 175 00da CF91      		pop r28
 176               	.LVL3:
 177 00dc 1F91      		pop r17
 178 00de 0F91      		pop r16
 179 00e0 0895      		ret
 180               	.LFE9:
 182               	.global	lcd_pixel
 184               	lcd_pixel:
 185               	.LFB11:
 186               	.LM30:
 187               	.LVL4:
 188               	/* prologue: function */
 189               	/* frame size = 0 */
 190 00e2 582F      		mov r21,r24
 191               	.LM31:
 192 00e4 8435      		cpi r24,lo8(84)
 193 00e6 00F0      		brlo .+2
 194 00e8 00C0      		rjmp .L25
 195 00ea 6033      		cpi r22,lo8(48)
 196 00ec 00F0      		brlo .+2
 197 00ee 00C0      		rjmp .L25
 198               	.LM32:
 199 00f0 862F      		mov r24,r22
 200               	.LVL5:
 201 00f2 8695      		lsr r24
 202 00f4 8695      		lsr r24
 203 00f6 8695      		lsr r24
 204 00f8 90E0      		ldi r25,lo8(0)
 205 00fa 24E5      		ldi r18,lo8(84)
 206 00fc 30E0      		ldi r19,hi8(84)
 207 00fe 829F      		mul r24,r18
 208 0100 D001      		movw r26,r0
 209 0102 839F      		mul r24,r19
 210 0104 B00D      		add r27,r0
 211 0106 929F      		mul r25,r18
 212 0108 B00D      		add r27,r0
 213 010a 1124      		clr r1
 214               	.LVL6:
 215 010c A50F      		add r26,r21
 216 010e B11D      		adc r27,__zero_reg__
 217               	.LM33:
 218 0110 23E0      		ldi r18,3
 219 0112 880F      	1:	lsl r24
 220 0114 991F      		rol r25
 221 0116 2A95      		dec r18
 222 0118 01F4      		brne 1b
 223 011a 681B      		sub r22,r24
 224               	.LVL7:
 225               	.LM34:
 226 011c FD01      		movw r30,r26
 227 011e E050      		subi r30,lo8(-(LCD_CACHE))
 228 0120 F040      		sbci r31,hi8(-(LCD_CACHE))
 229 0122 2081      		ld r18,Z
 230               	.LVL8:
 231               	.LM35:
 232 0124 4130      		cpi r20,lo8(1)
 233 0126 01F4      		brne .L21
 234               	.LM36:
 235 0128 81E0      		ldi r24,lo8(1)
 236 012a 90E0      		ldi r25,hi8(1)
 237 012c 00C0      		rjmp 2f
 238 012e 880F      	1:	lsl r24
 239 0130 991F      		rol r25
 240 0132 6A95      	2:	dec r22
 241 0134 02F4      		brpl 1b
 242 0136 282B      		or r18,r24
 243 0138 00C0      		rjmp .L22
 244               	.L21:
 245               	.LM37:
 246 013a 4423      		tst r20
 247 013c 01F4      		brne .L23
 248               	.LM38:
 249 013e 81E0      		ldi r24,lo8(1)
 250 0140 90E0      		ldi r25,hi8(1)
 251 0142 00C0      		rjmp 2f
 252 0144 880F      	1:	lsl r24
 253 0146 991F      		rol r25
 254 0148 6A95      	2:	dec r22
 255 014a 02F4      		brpl 1b
 256 014c 8095      		com r24
 257 014e 2823      		and r18,r24
 258 0150 00C0      		rjmp .L22
 259               	.L23:
 260               	.LM39:
 261 0152 4230      		cpi r20,lo8(2)
 262 0154 01F4      		brne .L22
 263               	.LM40:
 264 0156 81E0      		ldi r24,lo8(1)
 265 0158 90E0      		ldi r25,hi8(1)
 266 015a 00C0      		rjmp 2f
 267 015c 880F      	1:	lsl r24
 268 015e 991F      		rol r25
 269 0160 6A95      	2:	dec r22
 270 0162 02F4      		brpl 1b
 271 0164 2827      		eor r18,r24
 272               	.L22:
 273               	.LM41:
 274 0166 FD01      		movw r30,r26
 275 0168 E050      		subi r30,lo8(-(LCD_CACHE))
 276 016a F040      		sbci r31,hi8(-(LCD_CACHE))
 277 016c 2083      		st Z,r18
 278               	.LM42:
 279 016e 8091 0000 		lds r24,LWM
 280 0172 9091 0000 		lds r25,(LWM)+1
 281 0176 A817      		cp r26,r24
 282 0178 B907      		cpc r27,r25
 283 017a 04F4      		brge .L24
 284               	.LM43:
 285 017c B093 0000 		sts (LWM)+1,r27
 286 0180 A093 0000 		sts LWM,r26
 287               	.L24:
 288               	.LM44:
 289 0184 8091 0000 		lds r24,HWM
 290 0188 9091 0000 		lds r25,(HWM)+1
 291 018c 8A17      		cp r24,r26
 292 018e 9B07      		cpc r25,r27
 293 0190 04F4      		brge .L25
 294               	.LM45:
 295 0192 B093 0000 		sts (HWM)+1,r27
 296 0196 A093 0000 		sts HWM,r26
 297               	.LVL9:
 298               	.L25:
 299 019a 0895      		ret
 300               	.LFE11:
 302               	.global	min
 304               	min:
 305               	.LFB12:
 306               	.LM46:
 307               	.LVL10:
 308               	/* prologue: function */
 309               	/* frame size = 0 */
 310 019c AC01      		movw r20,r24
 311               	.LM47:
 312 019e 9B01      		movw r18,r22
 313 01a0 4617      		cp r20,r22
 314 01a2 5707      		cpc r21,r23
 315 01a4 04F4      		brge .L27
 316               	.LVL11:
 317 01a6 9A01      		movw r18,r20
 318               	.LVL12:
 319               	.L27:
 320               	.LM48:
 321 01a8 C901      		movw r24,r18
 322               	.LVL13:
 323               	/* epilogue start */
 324 01aa 0895      		ret
 325               	.LFE12:
 327               	.global	max
 329               	max:
 330               	.LFB13:
 331               	.LM49:
 332               	.LVL14:
 333               	/* prologue: function */
 334               	/* frame size = 0 */
 335 01ac AC01      		movw r20,r24
 336               	.LM50:
 337 01ae 9B01      		movw r18,r22
 338 01b0 6417      		cp r22,r20
 339 01b2 7507      		cpc r23,r21
 340 01b4 04F4      		brge .L30
 341               	.LVL15:
 342 01b6 9A01      		movw r18,r20
 343               	.LVL16:
 344               	.L30:
 345               	.LM51:
 346 01b8 C901      		movw r24,r18
 347               	.LVL17:
 348               	/* epilogue start */
 349 01ba 0895      		ret
 350               	.LFE13:
 352               	.global	lcd_h_line
 354               	lcd_h_line:
 355               	.LFB14:
 356               	.LM52:
 357               	.LVL18:
 358 01bc DF92      		push r13
 359 01be EF92      		push r14
 360 01c0 FF92      		push r15
 361 01c2 0F93      		push r16
 362 01c4 1F93      		push r17
 363 01c6 CF93      		push r28
 364 01c8 DF93      		push r29
 365               	/* prologue: function */
 366               	/* frame size = 0 */
 367 01ca D62E      		mov r13,r22
 368 01cc F42E      		mov r15,r20
 369 01ce E22E      		mov r14,r18
 370               	.LBB199:
 371               	.LM53:
 372 01d0 082F      		mov r16,r24
 373               	.LVL19:
 374 01d2 10E0      		ldi r17,lo8(0)
 375               	.LVL20:
 376 01d4 842F      		mov r24,r20
 377               	.LVL21:
 378 01d6 90E0      		ldi r25,lo8(0)
 379               	.LVL22:
 380 01d8 9C01      		movw r18,r24
 381               	.LVL23:
 382 01da E901      		movw r28,r18
 383               	.LVL24:
 384 01dc 0217      		cp r16,r18
 385 01de 1307      		cpc r17,r19
 386 01e0 04F4      		brge .L38
 387               	.LVL25:
 388 01e2 E801      		movw r28,r16
 389 01e4 00C0      		rjmp .L38
 390               	.LVL26:
 391               	.L35:
 392 01e6 8C2F      		mov r24,r28
 393 01e8 6D2D      		mov r22,r13
 394 01ea 4E2D      		mov r20,r14
 395 01ec 00D0      		rcall lcd_pixel
 396               	.LVL27:
 397 01ee 2196      		adiw r28,1
 398               	.LVL28:
 399               	.L38:
 400 01f0 8F2D      		mov r24,r15
 401               	.LVL29:
 402 01f2 90E0      		ldi r25,lo8(0)
 403               	.LVL30:
 404 01f4 9C01      		movw r18,r24
 405               	.LVL31:
 406 01f6 2017      		cp r18,r16
 407 01f8 3107      		cpc r19,r17
 408               	.LVL32:
 409 01fa 04F4      		brge .L36
 410               	.LVL33:
 411 01fc 9801      		movw r18,r16
 412               	.L36:
 413 01fe 2C17      		cp r18,r28
 414 0200 3D07      		cpc r19,r29
 415 0202 04F4      		brge .L35
 416               	.LVL34:
 417               	/* epilogue start */
 418               	.LBE199:
 419               	.LM54:
 420 0204 DF91      		pop r29
 421 0206 CF91      		pop r28
 422 0208 1F91      		pop r17
 423 020a 0F91      		pop r16
 424 020c FF90      		pop r15
 425               	.LVL35:
 426 020e EF90      		pop r14
 427               	.LVL36:
 428 0210 DF90      		pop r13
 429               	.LVL37:
 430 0212 0895      		ret
 431               	.LFE14:
 433               	.global	lcd_v_line
 435               	lcd_v_line:
 436               	.LFB15:
 437               	.LM55:
 438               	.LVL38:
 439 0214 DF92      		push r13
 440 0216 EF92      		push r14
 441 0218 FF92      		push r15
 442 021a 0F93      		push r16
 443 021c 1F93      		push r17
 444 021e CF93      		push r28
 445 0220 DF93      		push r29
 446               	/* prologue: function */
 447               	/* frame size = 0 */
 448 0222 D82E      		mov r13,r24
 449 0224 F42E      		mov r15,r20
 450 0226 E22E      		mov r14,r18
 451               	.LBB200:
 452               	.LM56:
 453 0228 062F      		mov r16,r22
 454               	.LVL39:
 455 022a 10E0      		ldi r17,lo8(0)
 456               	.LVL40:
 457 022c 242F      		mov r18,r20
 458               	.LVL41:
 459 022e 30E0      		ldi r19,lo8(0)
 460               	.LVL42:
 461 0230 C901      		movw r24,r18
 462               	.LVL43:
 463 0232 EC01      		movw r28,r24
 464               	.LVL44:
 465 0234 0817      		cp r16,r24
 466 0236 1907      		cpc r17,r25
 467 0238 04F4      		brge .L45
 468               	.LVL45:
 469 023a E801      		movw r28,r16
 470 023c 00C0      		rjmp .L45
 471               	.LVL46:
 472               	.L42:
 473 023e 8D2D      		mov r24,r13
 474 0240 6C2F      		mov r22,r28
 475               	.LVL47:
 476 0242 4E2D      		mov r20,r14
 477 0244 00D0      		rcall lcd_pixel
 478               	.LVL48:
 479 0246 2196      		adiw r28,1
 480               	.LVL49:
 481               	.L45:
 482 0248 8F2D      		mov r24,r15
 483               	.LVL50:
 484 024a 90E0      		ldi r25,lo8(0)
 485               	.LVL51:
 486 024c 9C01      		movw r18,r24
 487               	.LVL52:
 488 024e 2017      		cp r18,r16
 489 0250 3107      		cpc r19,r17
 490               	.LVL53:
 491 0252 04F4      		brge .L43
 492               	.LVL54:
 493 0254 9801      		movw r18,r16
 494               	.L43:
 495 0256 2C17      		cp r18,r28
 496 0258 3D07      		cpc r19,r29
 497 025a 04F4      		brge .L42
 498               	.LVL55:
 499               	/* epilogue start */
 500               	.LBE200:
 501               	.LM57:
 502 025c DF91      		pop r29
 503 025e CF91      		pop r28
 504 0260 1F91      		pop r17
 505 0262 0F91      		pop r16
 506 0264 FF90      		pop r15
 507               	.LVL56:
 508 0266 EF90      		pop r14
 509               	.LVL57:
 510 0268 DF90      		pop r13
 511               	.LVL58:
 512 026a 0895      		ret
 513               	.LFE15:
 515               	.global	lcd_line
 517               	lcd_line:
 518               	.LFB16:
 519               	.LM58:
 520               	.LVL59:
 521 026c 3F92      		push r3
 522 026e 4F92      		push r4
 523 0270 5F92      		push r5
 524 0272 6F92      		push r6
 525 0274 7F92      		push r7
 526 0276 8F92      		push r8
 527 0278 9F92      		push r9
 528 027a AF92      		push r10
 529 027c BF92      		push r11
 530 027e CF92      		push r12
 531 0280 DF92      		push r13
 532 0282 EF92      		push r14
 533 0284 FF92      		push r15
 534 0286 0F93      		push r16
 535               	.LVL60:
 536 0288 1F93      		push r17
 537 028a CF93      		push r28
 538 028c DF93      		push r29
 539               	/* prologue: function */
 540               	/* frame size = 0 */
 541 028e 982E      		mov r9,r24
 542 0290 862E      		mov r8,r22
 543 0292 442E      		mov r4,r20
 544 0294 522E      		mov r5,r18
 545 0296 302E      		mov r3,r16
 546               	.LVL61:
 547               	.LM59:
 548 0298 8417      		cp r24,r20
 549 029a 01F4      		brne .L47
 550               	.LVL62:
 551               	.LM60:
 552 029c 422F      		mov r20,r18
 553               	.LVL63:
 554 029e 202F      		mov r18,r16
 555 02a0 00D0      		rcall lcd_v_line
 556               	.LVL64:
 557 02a2 00C0      		rjmp .L59
 558               	.LVL65:
 559               	.L47:
 560               	.LM61:
 561 02a4 6217      		cp r22,r18
 562 02a6 01F4      		brne .L49
 563               	.LVL66:
 564               	.LM62:
 565 02a8 202F      		mov r18,r16
 566               	.LVL67:
 567 02aa 00D0      		rcall lcd_h_line
 568               	.LVL68:
 569 02ac 00C0      		rjmp .L59
 570               	.LVL69:
 571               	.L49:
 572               	.LM63:
 573 02ae 30E0      		ldi r19,lo8(0)
 574               	.LVL70:
 575 02b0 261B      		sub r18,r22
 576 02b2 3109      		sbc r19,__zero_reg__
 577               	.LVL71:
 578               	.LM64:
 579 02b4 842F      		mov r24,r20
 580               	.LVL72:
 581 02b6 90E0      		ldi r25,lo8(0)
 582               	.LVL73:
 583 02b8 8919      		sub r24,r9
 584 02ba 9109      		sbc r25,__zero_reg__
 585               	.LVL74:
 586               	.LM65:
 587 02bc 37FD      		sbrc r19,7
 588 02be 00C0      		rjmp .L50
 589 02c0 E1E0      		ldi r30,lo8(1)
 590 02c2 6E2E      		mov r6,r30
 591 02c4 712C      		mov r7,__zero_reg__
 592               	.LVL75:
 593 02c6 00C0      		rjmp .L51
 594               	.LVL76:
 595               	.L50:
 596               	.LM66:
 597 02c8 3095      		com r19
 598 02ca 2195      		neg r18
 599 02cc 3F4F      		sbci r19,lo8(-1)
 600 02ce 6624      		clr r6
 601 02d0 6A94      		dec r6
 602 02d2 762C      		mov r7,r6
 603               	.LVL77:
 604               	.L51:
 605               	.LM67:
 606 02d4 97FD      		sbrc r25,7
 607 02d6 00C0      		rjmp .L52
 608 02d8 71E0      		ldi r23,lo8(1)
 609 02da A72E      		mov r10,r23
 610 02dc B12C      		mov r11,__zero_reg__
 611               	.LVL78:
 612 02de 00C0      		rjmp .L53
 613               	.LVL79:
 614               	.L52:
 615               	.LM68:
 616 02e0 9095      		com r25
 617 02e2 8195      		neg r24
 618 02e4 9F4F      		sbci r25,lo8(-1)
 619 02e6 AA24      		clr r10
 620 02e8 AA94      		dec r10
 621 02ea BA2C      		mov r11,r10
 622               	.LVL80:
 623               	.L53:
 624               	.LM69:
 625 02ec 6C01      		movw r12,r24
 626 02ee CC0C      		lsl r12
 627 02f0 DD1C      		rol r13
 628               	.LVL81:
 629               	.LM70:
 630 02f2 7901      		movw r14,r18
 631 02f4 EE0C      		lsl r14
 632 02f6 FF1C      		rol r15
 633               	.LVL82:
 634               	.LM71:
 635 02f8 EC14      		cp r14,r12
 636 02fa FD04      		cpc r15,r13
 637 02fc 04F4      		brge .L54
 638               	.LM72:
 639 02fe C601      		movw r24,r12
 640 0300 9595      		asr r25
 641 0302 8795      		ror r24
 642               	.LVL83:
 643 0304 E701      		movw r28,r14
 644               	.LVL84:
 645 0306 C81B      		sub r28,r24
 646 0308 D90B      		sbc r29,r25
 647 030a BA2C      		mov r11,r10
 648 030c 1A2D      		mov r17,r10
 649               	.LVL85:
 650 030e 190D      		add r17,r9
 651               	.L56:
 652               	.LM73:
 653 0310 D7FD      		sbrc r29,7
 654 0312 00C0      		rjmp .L55
 655               	.LM74:
 656 0314 860C      		add r8,r6
 657               	.LM75:
 658 0316 CC19      		sub r28,r12
 659 0318 DD09      		sbc r29,r13
 660               	.L55:
 661               	.LM76:
 662 031a 812F      		mov r24,r17
 663 031c 682D      		mov r22,r8
 664 031e 432D      		mov r20,r3
 665 0320 00D0      		rcall lcd_pixel
 666               	.LVL86:
 667 0322 1B0D      		add r17,r11
 668               	.LM77:
 669 0324 812F      		mov r24,r17
 670 0326 8B19      		sub r24,r11
 671 0328 8415      		cp r24,r4
 672 032a 01F0      		breq .L59
 673               	.LM78:
 674 032c CE0D      		add r28,r14
 675 032e DF1D      		adc r29,r15
 676 0330 00C0      		rjmp .L56
 677               	.LVL87:
 678               	.L54:
 679               	.LM79:
 680 0332 C701      		movw r24,r14
 681 0334 9595      		asr r25
 682 0336 8795      		ror r24
 683               	.LVL88:
 684 0338 E601      		movw r28,r12
 685               	.LVL89:
 686 033a C81B      		sub r28,r24
 687 033c D90B      		sbc r29,r25
 688 033e 062D      		mov r16,r6
 689 0340 162D      		mov r17,r6
 690               	.LVL90:
 691 0342 180D      		add r17,r8
 692               	.LVL91:
 693               	.L58:
 694               	.LM80:
 695 0344 D7FD      		sbrc r29,7
 696 0346 00C0      		rjmp .L57
 697               	.LVL92:
 698               	.LM81:
 699 0348 9A0C      		add r9,r10
 700               	.LM82:
 701 034a CE19      		sub r28,r14
 702 034c DF09      		sbc r29,r15
 703               	.L57:
 704               	.LM83:
 705 034e 892D      		mov r24,r9
 706 0350 612F      		mov r22,r17
 707 0352 432D      		mov r20,r3
 708               	.LVL93:
 709 0354 00D0      		rcall lcd_pixel
 710               	.LVL94:
 711 0356 100F      		add r17,r16
 712               	.LM84:
 713 0358 812F      		mov r24,r17
 714 035a 801B      		sub r24,r16
 715 035c 8515      		cp r24,r5
 716 035e 01F0      		breq .L59
 717               	.LM85:
 718 0360 CC0D      		add r28,r12
 719 0362 DD1D      		adc r29,r13
 720 0364 00C0      		rjmp .L58
 721               	.LVL95:
 722               	.L59:
 723               	/* epilogue start */
 724               	.LM86:
 725 0366 DF91      		pop r29
 726 0368 CF91      		pop r28
 727               	.LVL96:
 728 036a 1F91      		pop r17
 729 036c 0F91      		pop r16
 730 036e FF90      		pop r15
 731 0370 EF90      		pop r14
 732               	.LVL97:
 733 0372 DF90      		pop r13
 734 0374 CF90      		pop r12
 735               	.LVL98:
 736 0376 BF90      		pop r11
 737 0378 AF90      		pop r10
 738               	.LVL99:
 739 037a 9F90      		pop r9
 740               	.LVL100:
 741 037c 8F90      		pop r8
 742               	.LVL101:
 743 037e 7F90      		pop r7
 744 0380 6F90      		pop r6
 745               	.LVL102:
 746 0382 5F90      		pop r5
 747               	.LVL103:
 748 0384 4F90      		pop r4
 749               	.LVL104:
 750 0386 3F90      		pop r3
 751               	.LVL105:
 752 0388 0895      		ret
 753               	.LFE16:
 755               	.global	dt_test
 757               	dt_test:
 758               	.LFB24:
 759               	.LM87:
 760               	/* prologue: function */
 761               	/* frame size = 0 */
 762               	.LM88:
 763 038a 9FB7      		in r25,__SREG__
 764               	.LVL106:
 765               	.LM89:
 766               	/* #APP */
 767               	 ;  20 "include/dt.h" 1
 768 038c F894      		cli
 769               	 ;  0 "" 2
 770               	.LM90:
 771               	/* #NOAPP */
 772 038e 899A      		sbi 49-32,1
 773               	.LBB201:
 774               	.LBB202:
 775               	.LBB203:
 776               	.LBB204:
 777               	.LBB205:
 778               	.LBB206:
 779               	.LM91:
 780 0390 E8EE      		ldi r30,lo8(1000)
 781 0392 F3E0      		ldi r31,hi8(1000)
 782               	.LVL107:
 783               	/* #APP */
 784               	 ;  105 "c:/winavr-20100110/lib/gcc/../../avr/include/util/delay_basic.h" 1
 785 0394 3197      		1: sbiw r30,1
 786 0396 01F4      		brne 1b
 787               	 ;  0 "" 2
 788               	/* #NOAPP */
 789               	.LBE206:
 790               	.LBE205:
 791               	.LBE204:
 792               	.LBE203:
 793               	.LBE202:
 794               	.LBE201:
 795               	.LM92:
 796 0398 8998      		cbi 49-32,1
 797               	.LBB207:
 798               	.LBB208:
 799               	.LBB209:
 800               	.LBB210:
 801               	.LM93:
 802 039a 8AEB      		ldi r24,lo8(-70)
 803               	.LVL108:
 804               	/* #APP */
 805               	 ;  83 "c:/winavr-20100110/lib/gcc/../../avr/include/util/delay_basic.h" 1
 806 039c 8A95      		1: dec r24
 807 039e 01F4      		brne 1b
 808               	 ;  0 "" 2
 809               	/* #NOAPP */
 810               	.LBE210:
 811               	.LBE209:
 812               	.LBE208:
 813               	.LBE207:
 814               	.LM94:
 815 03a0 80B3      		in r24,48-32
 816               	.LVL109:
 817               	.LM95:
 818 03a2 9FBF      		out __SREG__,r25
 819               	.LBB211:
 820               	.LBB212:
 821               	.LBB213:
 822               	.LBB214:
 823               	.LBB215:
 824               	.LBB216:
 825               	.LM96:
 826 03a4 E8E4      		ldi r30,lo8(840)
 827 03a6 F3E0      		ldi r31,hi8(840)
 828               	.LVL110:
 829               	/* #APP */
 830               	 ;  105 "c:/winavr-20100110/lib/gcc/../../avr/include/util/delay_basic.h" 1
 831 03a8 3197      		1: sbiw r30,1
 832 03aa 01F4      		brne 1b
 833               	 ;  0 "" 2
 834               	/* #NOAPP */
 835 03ac 8695      		lsr r24
 836 03ae 8095      		com r24
 837               	.LBE216:
 838               	.LBE215:
 839               	.LBE214:
 840               	.LBE213:
 841               	.LBE212:
 842               	.LBE211:
 843               	.LM97:
 844 03b0 8170      		andi r24,lo8(1)
 845               	/* epilogue start */
 846 03b2 0895      		ret
 847               	.LFE24:
 849               	.global	dt_rx
 851               	dt_rx:
 852               	.LFB25:
 853               	.LM98:
 854               	/* prologue: function */
 855               	/* frame size = 0 */
 856               	.LM99:
 857 03b4 2FB7      		in r18,__SREG__
 858               	.LVL111:
 859               	.LM100:
 860               	/* #APP */
 861               	 ;  38 "include/dt.h" 1
 862 03b6 F894      		cli
 863               	 ;  0 "" 2
 864               	.LM101:
 865               	/* #NOAPP */
 866 03b8 899A      		sbi 49-32,1
 867               	.LBB217:
 868               	.LBB218:
 869               	.LBB219:
 870               	.LBB220:
 871               	.LM102:
 872 03ba 85E0      		ldi r24,lo8(5)
 873               	.LVL112:
 874               	/* #APP */
 875               	 ;  83 "c:/winavr-20100110/lib/gcc/../../avr/include/util/delay_basic.h" 1
 876 03bc 8A95      		1: dec r24
 877 03be 01F4      		brne 1b
 878               	 ;  0 "" 2
 879               	/* #NOAPP */
 880               	.LBE220:
 881               	.LBE219:
 882               	.LBE218:
 883               	.LBE217:
 884               	.LM103:
 885 03c0 8998      		cbi 49-32,1
 886               	.LBB221:
 887               	.LBB222:
 888               	.LBB223:
 889               	.LBB224:
 890               	.LM104:
 891 03c2 85E2      		ldi r24,lo8(37)
 892               	.LVL113:
 893               	/* #APP */
 894               	 ;  83 "c:/winavr-20100110/lib/gcc/../../avr/include/util/delay_basic.h" 1
 895 03c4 8A95      		1: dec r24
 896 03c6 01F4      		brne 1b
 897               	 ;  0 "" 2
 898               	/* #NOAPP */
 899               	.LBE224:
 900               	.LBE223:
 901               	.LBE222:
 902               	.LBE221:
 903               	.LM105:
 904 03c8 80B3      		in r24,48-32
 905               	.LVL114:
 906               	.LBB225:
 907               	.LBB226:
 908               	.LBB227:
 909               	.LBB228:
 910               	.LM106:
 911 03ca 98E7      		ldi r25,lo8(120)
 912               	.LVL115:
 913               	/* #APP */
 914               	 ;  83 "c:/winavr-20100110/lib/gcc/../../avr/include/util/delay_basic.h" 1
 915 03cc 9A95      		1: dec r25
 916 03ce 01F4      		brne 1b
 917               	 ;  0 "" 2
 918               	/* #NOAPP */
 919               	.LBE228:
 920               	.LBE227:
 921               	.LBE226:
 922               	.LBE225:
 923               	.LM107:
 924 03d0 2FBF      		out __SREG__,r18
 925 03d2 90E0      		ldi r25,lo8(0)
 926               	.LVL116:
 927 03d4 8270      		andi r24,lo8(2)
 928 03d6 9070      		andi r25,hi8(2)
 929 03d8 9595      		asr r25
 930 03da 8795      		ror r24
 931               	/* epilogue start */
 932               	.LM108:
 933 03dc 0895      		ret
 934               	.LFE25:
 936               	.global	dt_rx8
 938               	dt_rx8:
 939               	.LFB26:
 940               	.LM109:
 941 03de 1F93      		push r17
 942 03e0 CF93      		push r28
 943 03e2 DF93      		push r29
 944               	/* prologue: function */
 945               	/* frame size = 0 */
 946               	.LM110:
 947 03e4 10E0      		ldi r17,lo8(0)
 948               	.LVL117:
 949 03e6 C0E0      		ldi r28,lo8(0)
 950 03e8 D0E0      		ldi r29,hi8(0)
 951               	.L65:
 952               	.LBB229:
 953               	.LM111:
 954 03ea 00D0      		rcall dt_rx
 955 03ec 90E0      		ldi r25,lo8(0)
 956 03ee 0C2E      		mov r0,r28
 957 03f0 00C0      		rjmp 2f
 958 03f2 880F      	1:	lsl r24
 959 03f4 991F      		rol r25
 960 03f6 0A94      	2:	dec r0
 961 03f8 02F4      		brpl 1b
 962 03fa 182B      		or r17,r24
 963 03fc 2196      		adiw r28,1
 964 03fe C830      		cpi r28,8
 965 0400 D105      		cpc r29,__zero_reg__
 966 0402 01F4      		brne .L65
 967               	.LBE229:
 968               	.LM112:
 969 0404 812F      		mov r24,r17
 970               	/* epilogue start */
 971 0406 DF91      		pop r29
 972 0408 CF91      		pop r28
 973 040a 1F91      		pop r17
 974               	.LVL118:
 975 040c 0895      		ret
 976               	.LFE26:
 978               	.global	dt_tx
 980               	dt_tx:
 981               	.LFB27:
 982               	.LM113:
 983               	.LVL119:
 984               	/* prologue: function */
 985               	/* frame size = 0 */
 986               	.LM114:
 987 040e 2FB7      		in r18,__SREG__
 988               	.LVL120:
 989               	.LM115:
 990               	/* #APP */
 991               	 ;  58 "include/dt.h" 1
 992 0410 F894      		cli
 993               	 ;  0 "" 2
 994               	.LM116:
 995               	/* #NOAPP */
 996 0412 899A      		sbi 49-32,1
 997               	.LBB230:
 998               	.LBB231:
 999               	.LBB232:
 1000               	.LBB233:
 1001               	.LM117:
 1002 0414 95E0      		ldi r25,lo8(5)
 1003               	.LVL121:
 1004               	/* #APP */
 1005               	 ;  83 "c:/winavr-20100110/lib/gcc/../../avr/include/util/delay_basic.h" 1
 1006 0416 9A95      		1: dec r25
 1007 0418 01F4      		brne 1b
 1008               	 ;  0 "" 2
 1009               	/* #NOAPP */
 1010               	.LBE233:
 1011               	.LBE232:
 1012               	.LBE231:
 1013               	.LBE230:
 1014               	.LM118:
 1015 041a 8111      		cpse r24,__zero_reg__
 1016 041c 8998      		cbi 49-32,1
 1017               	.L69:
 1018               	.LBB234:
 1019               	.LBB235:
 1020               	.LBB236:
 1021               	.LBB237:
 1022               	.LM119:
 1023 041e 8DEA      		ldi r24,lo8(-83)
 1024               	.LVL122:
 1025               	/* #APP */
 1026               	 ;  83 "c:/winavr-20100110/lib/gcc/../../avr/include/util/delay_basic.h" 1
 1027 0420 8A95      		1: dec r24
 1028 0422 01F4      		brne 1b
 1029               	 ;  0 "" 2
 1030               	/* #NOAPP */
 1031               	.LBE237:
 1032               	.LBE236:
 1033               	.LBE235:
 1034               	.LBE234:
 1035               	.LM120:
 1036 0424 8998      		cbi 49-32,1
 1037               	.LM121:
 1038 0426 2FBF      		out __SREG__,r18
 1039               	/* epilogue start */
 1040               	.LM122:
 1041 0428 0895      		ret
 1042               	.LFE27:
 1044               	.global	dt_tx8
 1046               	dt_tx8:
 1047               	.LFB28:
 1048               	.LM123:
 1049               	.LVL123:
 1050 042a EF92      		push r14
 1051 042c FF92      		push r15
 1052 042e 0F93      		push r16
 1053 0430 1F93      		push r17
 1054 0432 CF93      		push r28
 1055 0434 DF93      		push r29
 1056               	/* prologue: function */
 1057               	/* frame size = 0 */
 1058               	.LM124:
 1059 0436 C0E0      		ldi r28,lo8(0)
 1060 0438 D0E0      		ldi r29,hi8(0)
 1061               	.LBB238:
 1062               	.LM125:
 1063 043a A1E0      		ldi r26,lo8(1)
 1064 043c EA2E      		mov r14,r26
 1065 043e F12C      		mov r15,__zero_reg__
 1066 0440 082F      		mov r16,r24
 1067 0442 10E0      		ldi r17,lo8(0)
 1068               	.LVL124:
 1069               	.L74:
 1070 0444 9701      		movw r18,r14
 1071 0446 0C2E      		mov r0,r28
 1072 0448 00C0      		rjmp 2f
 1073 044a 220F      	1:	lsl r18
 1074 044c 331F      		rol r19
 1075 044e 0A94      	2:	dec r0
 1076 0450 02F4      		brpl 1b
 1077 0452 C901      		movw r24,r18
 1078 0454 8023      		and r24,r16
 1079 0456 9123      		and r25,r17
 1080 0458 8217      		cp r24,r18
 1081 045a 9307      		cpc r25,r19
 1082 045c 01F4      		brne .L72
 1083               	.LM126:
 1084 045e 81E0      		ldi r24,lo8(1)
 1085 0460 00C0      		rjmp .L77
 1086               	.L72:
 1087               	.LM127:
 1088 0462 80E0      		ldi r24,lo8(0)
 1089               	.L77:
 1090 0464 00D0      		rcall dt_tx
 1091 0466 2196      		adiw r28,1
 1092               	.LM128:
 1093 0468 C830      		cpi r28,8
 1094 046a D105      		cpc r29,__zero_reg__
 1095 046c 01F4      		brne .L74
 1096               	/* epilogue start */
 1097               	.LBE238:
 1098               	.LM129:
 1099 046e DF91      		pop r29
 1100 0470 CF91      		pop r28
 1101 0472 1F91      		pop r17
 1102               	.LVL125:
 1103 0474 0F91      		pop r16
 1104               	.LVL126:
 1105 0476 FF90      		pop r15
 1106 0478 EF90      		pop r14
 1107 047a 0895      		ret
 1108               	.LFE28:
 1110               	.global	dt_init
 1112               	dt_init:
 1113               	.LFB29:
 1114               	.LM130:
 1115               	/* prologue: function */
 1116               	/* frame size = 0 */
 1117               	.LM131:
 1118 047c 8EE4      		ldi r24,lo8(78)
 1119 047e 00D0      		rcall dt_tx8
 1120               	.LM132:
 1121 0480 8FEF      		ldi r24,lo8(-1)
 1122 0482 00D0      		rcall dt_tx8
 1123               	.LM133:
 1124 0484 8FEF      		ldi r24,lo8(-1)
 1125 0486 00D0      		rcall dt_tx8
 1126               	.LM134:
 1127 0488 80E0      		ldi r24,lo8(0)
 1128 048a 00D0      		rcall dt_tx8
 1129               	/* epilogue start */
 1130               	.LM135:
 1131 048c 0895      		ret
 1132               	.LFE29:
 1134               	.global	dt_convert
 1136               	dt_convert:
 1137               	.LFB30:
 1138               	.LM136:
 1139               	/* prologue: function */
 1140               	/* frame size = 0 */
 1141               	.LM137:
 1142 048e 00D0      		rcall dt_test
 1143 0490 8823      		tst r24
 1144 0492 01F0      		breq .L82
 1145               	.LM138:
 1146 0494 8CEC      		ldi r24,lo8(-52)
 1147 0496 00D0      		rcall dt_tx8
 1148               	.LM139:
 1149 0498 84E4      		ldi r24,lo8(68)
 1150 049a 00D0      		rcall dt_tx8
 1151               	.L82:
 1152 049c 0895      		ret
 1153               	.LFE30:
 1155               	.global	dt_read
 1157               	dt_read:
 1158               	.LFB31:
 1159               	.LM140:
 1160 049e 1F93      		push r17
 1161               	/* prologue: function */
 1162               	/* frame size = 0 */
 1163               	.LM141:
 1164 04a0 00D0      		rcall dt_test
 1165 04a2 8823      		tst r24
 1166 04a4 01F4      		brne .L84
 1167 04a6 40E0      		ldi r20,lo8(0)
 1168 04a8 50E0      		ldi r21,hi8(0)
 1169 04aa 00C0      		rjmp .L85
 1170               	.L84:
 1171               	.LM142:
 1172 04ac 8CEC      		ldi r24,lo8(-52)
 1173 04ae 00D0      		rcall dt_tx8
 1174               	.LM143:
 1175 04b0 8EEB      		ldi r24,lo8(-66)
 1176 04b2 00D0      		rcall dt_tx8
 1177               	.LM144:
 1178 04b4 00D0      		rcall dt_rx8
 1179 04b6 182F      		mov r17,r24
 1180               	.LVL127:
 1181               	.LM145:
 1182 04b8 00D0      		rcall dt_rx8
 1183               	.LM146:
 1184 04ba 382F      		mov r19,r24
 1185 04bc 20E0      		ldi r18,lo8(0)
 1186               	.LM147:
 1187 04be 412F      		mov r20,r17
 1188 04c0 50E0      		ldi r21,lo8(0)
 1189 04c2 422B      		or r20,r18
 1190 04c4 532B      		or r21,r19
 1191               	.L85:
 1192               	.LM148:
 1193 04c6 CA01      		movw r24,r20
 1194               	/* epilogue start */
 1195 04c8 1F91      		pop r17
 1196               	.LVL128:
 1197 04ca 0895      		ret
 1198               	.LFE31:
 1200               	.global	t_integer_part
 1202               	t_integer_part:
 1203               	.LFB32:
 1204               	.LM149:
 1205               	.LVL129:
 1206               	/* prologue: function */
 1207               	/* frame size = 0 */
 1208               	.LM150:
 1209 04cc 292F      		mov r18,r25
 1210 04ce 3327      		clr r19
 1211 04d0 27FD      		sbrc r18,7
 1212 04d2 3A95      		dec r19
 1213 04d4 30E0      		ldi r19,lo8(0)
 1214 04d6 2770      		andi r18,lo8(7)
 1215 04d8 3070      		andi r19,hi8(7)
 1216 04da B4E0      		ldi r27,4
 1217 04dc 220F      	1:	lsl r18
 1218 04de 331F      		rol r19
 1219 04e0 BA95      		dec r27
 1220 04e2 01F4      		brne 1b
 1221 04e4 8295      		swap r24
 1222               	.LVL130:
 1223 04e6 8F70      		andi r24,lo8(15)
 1224               	.LM151:
 1225 04e8 822B      		or r24,r18
 1226               	/* epilogue start */
 1227 04ea 0895      		ret
 1228               	.LFE32:
 1230               	.global	t_sign
 1232               	t_sign:
 1233               	.LFB33:
 1234               	.LM152:
 1235               	.LVL131:
 1236               	/* prologue: function */
 1237               	/* frame size = 0 */
 1238               	.LM153:
 1239 04ec 892F      		mov r24,r25
 1240               	.LVL132:
 1241 04ee 881F      		rol r24
 1242 04f0 8827      		clr r24
 1243 04f2 881F      		rol r24
 1244               	/* epilogue start */
 1245 04f4 0895      		ret
 1246               	.LFE33:
 1248               	.global	io_init
 1250               	io_init:
 1251               	.LFB34:
 1252               	.LM154:
 1253               	/* prologue: function */
 1254               	/* frame size = 0 */
 1255               	.LM155:
 1256 04f6 14BA      		out 52-32,__zero_reg__
 1257               	.LM156:
 1258 04f8 80EF      		ldi r24,lo8(-16)
 1259 04fa 81BB      		out 49-32,r24
 1260               	/* epilogue start */
 1261               	.LM157:
 1262 04fc 0895      		ret
 1263               	.LFE34:
 1265               	.global	io_write
 1267               	io_write:
 1268               	.LFB35:
 1269               	.LM158:
 1270               	.LVL133:
 1271               	/* prologue: function */
 1272               	/* frame size = 0 */
 1273 04fe 382F      		mov r19,r24
 1274               	.LM159:
 1275 0500 6623      		tst r22
 1276 0502 01F0      		breq .L94
 1277               	.LVL134:
 1278               	.LM160:
 1279 0504 22B3      		in r18,50-32
 1280 0506 81E0      		ldi r24,lo8(1)
 1281 0508 90E0      		ldi r25,hi8(1)
 1282 050a 00C0      		rjmp 2f
 1283 050c 880F      	1:	lsl r24
 1284 050e 991F      		rol r25
 1285 0510 3A95      	2:	dec r19
 1286 0512 02F4      		brpl 1b
 1287 0514 282B      		or r18,r24
 1288 0516 22BB      		out 50-32,r18
 1289 0518 0895      		ret
 1290               	.LVL135:
 1291               	.L94:
 1292               	.LM161:
 1293 051a 22B3      		in r18,50-32
 1294 051c 81E0      		ldi r24,lo8(1)
 1295 051e 90E0      		ldi r25,hi8(1)
 1296 0520 00C0      		rjmp 2f
 1297 0522 880F      	1:	lsl r24
 1298 0524 991F      		rol r25
 1299 0526 3A95      	2:	dec r19
 1300 0528 02F4      		brpl 1b
 1301 052a 8095      		com r24
 1302 052c 8223      		and r24,r18
 1303 052e 82BB      		out 50-32,r24
 1304 0530 0895      		ret
 1305               	.LFE35:
 1307               	.global	io_read
 1309               	io_read:
 1310               	.LFB36:
 1311               	.LM162:
 1312               	.LVL136:
 1313               	/* prologue: function */
 1314               	/* frame size = 0 */
 1315               	.LM163:
 1316 0532 23B3      		in r18,51-32
 1317 0534 30E0      		ldi r19,lo8(0)
 1318 0536 00C0      		rjmp 2f
 1319 0538 3595      	1:	asr r19
 1320 053a 2795      		ror r18
 1321 053c 8A95      	2:	dec r24
 1322 053e 02F4      		brpl 1b
 1323 0540 2170      		andi r18,lo8(1)
 1324 0542 3070      		andi r19,hi8(1)
 1325               	.LM164:
 1326 0544 C901      		movw r24,r18
 1327               	.LVL137:
 1328               	/* epilogue start */
 1329 0546 0895      		ret
 1330               	.LFE36:
 1332               	.global	__vector_9
 1334               	__vector_9:
 1335               	.LFB37:
 1336               	.LM165:
 1337 0548 1F92      		push __zero_reg__
 1338 054a 0F92      		push r0
 1339 054c 0FB6      		in r0,__SREG__
 1340 054e 0F92      		push r0
 1341 0550 1124      		clr __zero_reg__
 1342 0552 1F93      		push r17
 1343 0554 2F93      		push r18
 1344 0556 3F93      		push r19
 1345 0558 4F93      		push r20
 1346 055a 5F93      		push r21
 1347 055c 6F93      		push r22
 1348 055e 7F93      		push r23
 1349 0560 8F93      		push r24
 1350 0562 9F93      		push r25
 1351 0564 AF93      		push r26
 1352 0566 BF93      		push r27
 1353 0568 EF93      		push r30
 1354 056a FF93      		push r31
 1355               	/* prologue: Signal */
 1356               	/* frame size = 0 */
 1357               	.LM166:
 1358 056c 8091 0000 		lds r24,__clock__
 1359 0570 2091 0000 		lds r18,__clock__+1
 1360 0574 3091 0000 		lds r19,__clock__+2
 1361 0578 4091 0000 		lds r20,__clock__+3
 1362 057c 6091 0000 		lds r22,__clock__+4
 1363 0580 E091 0000 		lds r30,__clock__+5
 1364 0584 A091 0000 		lds r26,__clock__+6
 1365 0588 1091 0000 		lds r17,__clock__+7
 1366 058c B82F      		mov r27,r24
 1367 058e B85F      		subi r27,lo8(-(8))
 1368 0590 91E0      		ldi r25,lo8(1)
 1369 0592 B817      		cp r27,r24
 1370 0594 00F0      		brlo .L100
 1371 0596 90E0      		ldi r25,lo8(0)
 1372               	.L100:
 1373 0598 F92F      		mov r31,r25
 1374 059a F20F      		add r31,r18
 1375 059c 81E0      		ldi r24,lo8(1)
 1376 059e F217      		cp r31,r18
 1377 05a0 00F0      		brlo .L102
 1378 05a2 80E0      		ldi r24,lo8(0)
 1379               	.L102:
 1380 05a4 782F      		mov r23,r24
 1381 05a6 730F      		add r23,r19
 1382 05a8 81E0      		ldi r24,lo8(1)
 1383 05aa 7317      		cp r23,r19
 1384 05ac 00F0      		brlo .L104
 1385 05ae 80E0      		ldi r24,lo8(0)
 1386               	.L104:
 1387 05b0 582F      		mov r21,r24
 1388 05b2 540F      		add r21,r20
 1389 05b4 81E0      		ldi r24,lo8(1)
 1390 05b6 5417      		cp r21,r20
 1391 05b8 00F0      		brlo .L106
 1392 05ba 80E0      		ldi r24,lo8(0)
 1393               	.L106:
 1394 05bc 382F      		mov r19,r24
 1395 05be 360F      		add r19,r22
 1396 05c0 81E0      		ldi r24,lo8(1)
 1397 05c2 3617      		cp r19,r22
 1398 05c4 00F0      		brlo .L108
 1399 05c6 80E0      		ldi r24,lo8(0)
 1400               	.L108:
 1401 05c8 282F      		mov r18,r24
 1402 05ca 2E0F      		add r18,r30
 1403 05cc 81E0      		ldi r24,lo8(1)
 1404 05ce 2E17      		cp r18,r30
 1405 05d0 00F0      		brlo .L110
 1406 05d2 80E0      		ldi r24,lo8(0)
 1407               	.L110:
 1408 05d4 982F      		mov r25,r24
 1409 05d6 9A0F      		add r25,r26
 1410 05d8 81E0      		ldi r24,lo8(1)
 1411 05da 9A17      		cp r25,r26
 1412 05dc 00F0      		brlo .L112
 1413 05de 80E0      		ldi r24,lo8(0)
 1414               	.L112:
 1415 05e0 810F      		add r24,r17
 1416 05e2 B093 0000 		sts __clock__,r27
 1417 05e6 F093 0000 		sts __clock__+1,r31
 1418 05ea 7093 0000 		sts __clock__+2,r23
 1419 05ee 5093 0000 		sts __clock__+3,r21
 1420 05f2 3093 0000 		sts __clock__+4,r19
 1421 05f6 2093 0000 		sts __clock__+5,r18
 1422 05fa 9093 0000 		sts __clock__+6,r25
 1423 05fe 8093 0000 		sts __clock__+7,r24
 1424               	/* epilogue start */
 1425               	.LM167:
 1426 0602 FF91      		pop r31
 1427 0604 EF91      		pop r30
 1428 0606 BF91      		pop r27
 1429 0608 AF91      		pop r26
 1430 060a 9F91      		pop r25
 1431 060c 8F91      		pop r24
 1432 060e 7F91      		pop r23
 1433 0610 6F91      		pop r22
 1434 0612 5F91      		pop r21
 1435 0614 4F91      		pop r20
 1436 0616 3F91      		pop r19
 1437 0618 2F91      		pop r18
 1438 061a 1F91      		pop r17
 1439 061c 0F90      		pop r0
 1440 061e 0FBE      		out __SREG__,r0
 1441 0620 0F90      		pop r0
 1442 0622 1F90      		pop __zero_reg__
 1443 0624 1895      		reti
 1444               	.LFE37:
 1446               	.global	clock_init
 1448               	clock_init:
 1449               	.LFB38:
 1450               	.LM168:
 1451               	/* prologue: function */
 1452               	/* frame size = 0 */
 1453               	.LM169:
 1454 0626 84E0      		ldi r24,lo8(4)
 1455 0628 83BF      		out 83-32,r24
 1456               	.LM170:
 1457 062a 89B7      		in r24,89-32
 1458 062c 8160      		ori r24,lo8(1)
 1459 062e 89BF      		out 89-32,r24
 1460               	.LM171:
 1461               	/* #APP */
 1462               	 ;  25 "include/clock.h" 1
 1463 0630 7894      		sei
 1464               	 ;  0 "" 2
 1465               	/* epilogue start */
 1466               	.LM172:
 1467               	/* #NOAPP */
 1468 0632 0895      		ret
 1469               	.LFE38:
 1471               	.global	clock
 1473               	clock:
 1474               	.LFB39:
 1475               	.LM173:
 1476               	/* prologue: function */
 1477               	/* frame size = 0 */
 1478               	.LM174:
 1479 0634 2091 0000 		lds r18,__clock__
 1480 0638 3091 0000 		lds r19,__clock__+1
 1481 063c 4091 0000 		lds r20,__clock__+2
 1482 0640 5091 0000 		lds r21,__clock__+3
 1483 0644 6091 0000 		lds r22,__clock__+4
 1484 0648 7091 0000 		lds r23,__clock__+5
 1485               	.LM175:
 1486 064c 8091 0000 		lds r24,__clock__+6
 1487 0650 9091 0000 		lds r25,__clock__+7
 1488               	/* epilogue start */
 1489 0654 0895      		ret
 1490               	.LFE39:
 1492               	.global	change_upd_speed
 1494               	change_upd_speed:
 1495               	.LFB40:
 1496               	.LM176:
 1497               	/* prologue: function */
 1498               	/* frame size = 0 */
 1499               	.LM177:
 1500 0656 8091 0000 		lds r24,usp
 1501 065a 8230      		cpi r24,lo8(2)
 1502 065c 01F4      		brne .L119
 1503               	.LM178:
 1504 065e 83E0      		ldi r24,lo8(3)
 1505 0660 00C0      		rjmp .L125
 1506               	.L119:
 1507               	.LM179:
 1508 0662 8330      		cpi r24,lo8(3)
 1509 0664 01F4      		brne .L121
 1510               	.LM180:
 1511 0666 84E0      		ldi r24,lo8(4)
 1512 0668 00C0      		rjmp .L125
 1513               	.L121:
 1514               	.LM181:
 1515 066a 8430      		cpi r24,lo8(4)
 1516 066c 01F4      		brne .L122
 1517               	.LM182:
 1518 066e 1092 0000 		sts usp,__zero_reg__
 1519 0672 0895      		ret
 1520               	.L122:
 1521               	.LM183:
 1522 0674 8130      		cpi r24,lo8(1)
 1523 0676 01F4      		brne .L123
 1524               	.LM184:
 1525 0678 82E0      		ldi r24,lo8(2)
 1526               	.L125:
 1527 067a 8093 0000 		sts usp,r24
 1528 067e 0895      		ret
 1529               	.L123:
 1530               	.LM185:
 1531 0680 8823      		tst r24
 1532 0682 01F4      		brne .L124
 1533               	.LM186:
 1534 0684 81E0      		ldi r24,lo8(1)
 1535 0686 8093 0000 		sts usp,r24
 1536               	.L124:
 1537 068a 0895      		ret
 1538               	.LFE40:
 1540               	.global	change_line_type
 1542               	change_line_type:
 1543               	.LFB41:
 1544               	.LM187:
 1545               	/* prologue: function */
 1546               	/* frame size = 0 */
 1547               	.LM188:
 1548 068c 8091 0000 		lds r24,ltp
 1549 0690 8832      		cpi r24,lo8(40)
 1550 0692 01F4      		brne .L127
 1551               	.LM189:
 1552 0694 80E5      		ldi r24,lo8(80)
 1553 0696 00C0      		rjmp .L131
 1554               	.L127:
 1555               	.LM190:
 1556 0698 8035      		cpi r24,lo8(80)
 1557 069a 01F4      		brne .L129
 1558               	.LM191:
 1559 069c 84E1      		ldi r24,lo8(20)
 1560               	.L131:
 1561 069e 8093 0000 		sts ltp,r24
 1562 06a2 0895      		ret
 1563               	.L129:
 1564               	.LM192:
 1565 06a4 8431      		cpi r24,lo8(20)
 1566 06a6 01F4      		brne .L130
 1567               	.LM193:
 1568 06a8 88E2      		ldi r24,lo8(40)
 1569 06aa 8093 0000 		sts ltp,r24
 1570               	.L130:
 1571 06ae 0895      		ret
 1572               	.LFE41:
 1574               	.global	change_view_mode
 1576               	change_view_mode:
 1577               	.LFB42:
 1578               	.LM194:
 1579               	/* prologue: function */
 1580               	/* frame size = 0 */
 1581               	.LM195:
 1582 06b0 8091 0000 		lds r24,vm
 1583 06b4 8823      		tst r24
 1584 06b6 01F4      		brne .L133
 1585               	.LM196:
 1586 06b8 81E0      		ldi r24,lo8(1)
 1587 06ba 00C0      		rjmp .L137
 1588               	.L133:
 1589               	.LM197:
 1590 06bc 8130      		cpi r24,lo8(1)
 1591 06be 01F4      		brne .L135
 1592               	.LM198:
 1593 06c0 82E0      		ldi r24,lo8(2)
 1594               	.L137:
 1595 06c2 8093 0000 		sts vm,r24
 1596 06c6 0895      		ret
 1597               	.L135:
 1598               	.LM199:
 1599 06c8 8230      		cpi r24,lo8(2)
 1600 06ca 01F4      		brne .L136
 1601               	.LM200:
 1602 06cc 1092 0000 		sts vm,__zero_reg__
 1603               	.L136:
 1604 06d0 0895      		ret
 1605               	.LFE42:
 1607               	.global	hooks_init
 1609               	hooks_init:
 1610               	.LFB43:
 1611               	.LM201:
 1612               	/* prologue: function */
 1613               	/* frame size = 0 */
 1614               	.LBB239:
 1615               	.LM202:
 1616 06d2 84E0      		ldi r24,lo8(4)
 1617 06d4 8093 0000 		sts hooks+4,r24
 1618 06d8 8093 0000 		sts hooks+9,r24
 1619 06dc 8093 0000 		sts hooks+14,r24
 1620 06e0 8093 0000 		sts hooks+19,r24
 1621               	/* epilogue start */
 1622               	.LBE239:
 1623               	.LM203:
 1624 06e4 0895      		ret
 1625               	.LFE43:
 1627               	.global	clear_port
 1629               	clear_port:
 1630               	.LFB44:
 1631               	.LM204:
 1632               	/* prologue: function */
 1633               	/* frame size = 0 */
 1634               	.LBB240:
 1635               	.LM205:
 1636 06e6 1092 0000 		sts port_status,__zero_reg__
 1637 06ea 1092 0000 		sts port_status+1,__zero_reg__
 1638 06ee 1092 0000 		sts port_status+2,__zero_reg__
 1639 06f2 1092 0000 		sts port_status+3,__zero_reg__
 1640               	/* epilogue start */
 1641               	.LBE240:
 1642               	.LM206:
 1643 06f6 0895      		ret
 1644               	.LFE44:
 1646               	.global	apply_port
 1648               	apply_port:
 1649               	.LFB45:
 1650               	.LM207:
 1651 06f8 CF93      		push r28
 1652 06fa DF93      		push r29
 1653               	/* prologue: function */
 1654               	/* frame size = 0 */
 1655               	.LM208:
 1656 06fc C0E0      		ldi r28,lo8(0)
 1657 06fe D0E0      		ldi r29,hi8(0)
 1658               	.LVL138:
 1659               	.L143:
 1660               	.LBB241:
 1661               	.LM209:
 1662 0700 FE01      		movw r30,r28
 1663 0702 E050      		subi r30,lo8(-(port_status))
 1664 0704 F040      		sbci r31,hi8(-(port_status))
 1665 0706 9E01      		movw r18,r28
 1666 0708 2C5F      		subi r18,lo8(-(4))
 1667 070a 822F      		mov r24,r18
 1668 070c 6081      		ld r22,Z
 1669 070e 00D0      		rcall io_write
 1670 0710 2196      		adiw r28,1
 1671 0712 C430      		cpi r28,4
 1672 0714 D105      		cpc r29,__zero_reg__
 1673 0716 01F4      		brne .L143
 1674               	/* epilogue start */
 1675               	.LBE241:
 1676               	.LM210:
 1677 0718 DF91      		pop r29
 1678 071a CF91      		pop r28
 1679               	.LVL139:
 1680 071c 0895      		ret
 1681               	.LFE45:
 1683               	.global	do_action
 1685               	do_action:
 1686               	.LFB46:
 1687               	.LM211:
 1688               	.LVL140:
 1689               	/* prologue: function */
 1690               	/* frame size = 0 */
 1691               	.LM212:
 1692 071e 6130      		cpi r22,lo8(1)
 1693 0720 01F4      		brne .L147
 1694 0722 E82F      		mov r30,r24
 1695 0724 F0E0      		ldi r31,lo8(0)
 1696               	.LVL141:
 1697 0726 E050      		subi r30,lo8(-(port_status-4))
 1698 0728 F040      		sbci r31,hi8(-(port_status-4))
 1699               	.LVL142:
 1700 072a 6083      		st Z,r22
 1701 072c 0895      		ret
 1702               	.LVL143:
 1703               	.L147:
 1704               	.LM213:
 1705 072e 6230      		cpi r22,lo8(2)
 1706 0730 01F4      		brne .L149
 1707 0732 E82F      		mov r30,r24
 1708 0734 F0E0      		ldi r31,lo8(0)
 1709               	.LVL144:
 1710 0736 E050      		subi r30,lo8(-(port_status-4))
 1711 0738 F040      		sbci r31,hi8(-(port_status-4))
 1712               	.LVL145:
 1713 073a 1082      		st Z,__zero_reg__
 1714               	.LVL146:
 1715               	.L149:
 1716 073c 0895      		ret
 1717               	.LFE46:
 1719               	.global	handle_hooks
 1721               	handle_hooks:
 1722               	.LFB47:
 1723               	.LM214:
 1724               	.LVL147:
 1725 073e 0F93      		push r16
 1726 0740 1F93      		push r17
 1727 0742 CF93      		push r28
 1728 0744 DF93      		push r29
 1729               	/* prologue: function */
 1730               	/* frame size = 0 */
 1731 0746 9C01      		movw r18,r24
 1732               	.LM215:
 1733 0748 37FF      		sbrs r19,7
 1734 074a 00C0      		rjmp .L151
 1735               	.LVL148:
 1736               	.LM216:
 1737 074c 8095      		com r24
 1738 074e 9095      		com r25
 1739 0750 292F      		mov r18,r25
 1740 0752 3327      		clr r19
 1741 0754 27FD      		sbrc r18,7
 1742 0756 3A95      		dec r19
 1743               	.LVL149:
 1744 0758 30E0      		ldi r19,lo8(0)
 1745               	.LVL150:
 1746 075a 2770      		andi r18,lo8(7)
 1747 075c 3070      		andi r19,hi8(7)
 1748 075e 54E0      		ldi r21,4
 1749 0760 220F      	1:	lsl r18
 1750 0762 331F      		rol r19
 1751 0764 5A95      		dec r21
 1752 0766 01F4      		brne 1b
 1753 0768 8295      		swap r24
 1754 076a 8F70      		andi r24,lo8(15)
 1755 076c 822B      		or r24,r18
 1756 076e 90E0      		ldi r25,lo8(0)
 1757 0770 0027      		clr r16
 1758 0772 1127      		clr r17
 1759 0774 081B      		sub r16,r24
 1760 0776 190B      		sbc r17,r25
 1761               	.LVL151:
 1762 0778 00C0      		rjmp .L152
 1763               	.LVL152:
 1764               	.L151:
 1765               	.LM217:
 1766 077a 892F      		mov r24,r25
 1767 077c 990F      		lsl r25
 1768 077e 990B      		sbc r25,r25
 1769 0780 90E0      		ldi r25,lo8(0)
 1770 0782 8770      		andi r24,lo8(7)
 1771 0784 9070      		andi r25,hi8(7)
 1772 0786 34E0      		ldi r19,4
 1773 0788 880F      	1:	lsl r24
 1774 078a 991F      		rol r25
 1775 078c 3A95      		dec r19
 1776 078e 01F4      		brne 1b
 1777               	.LVL153:
 1778 0790 2295      		swap r18
 1779               	.LVL154:
 1780 0792 2F70      		andi r18,lo8(15)
 1781 0794 282B      		or r18,r24
 1782 0796 022F      		mov r16,r18
 1783               	.LVL155:
 1784 0798 10E0      		ldi r17,lo8(0)
 1785               	.LVL156:
 1786               	.L152:
 1787               	.LBB242:
 1788               	.LBB243:
 1789               	.LBB244:
 1790               	.LM218:
 1791 079a 1092 0000 		sts port_status,__zero_reg__
 1792 079e 1092 0000 		sts port_status+1,__zero_reg__
 1793 07a2 1092 0000 		sts port_status+2,__zero_reg__
 1794 07a6 1092 0000 		sts port_status+3,__zero_reg__
 1795 07aa C0E0      		ldi r28,lo8(hooks)
 1796 07ac D0E0      		ldi r29,hi8(hooks)
 1797               	.L162:
 1798               	.LM219:
 1799 07ae 6B81      		ldd r22,Y+3
 1800 07b0 8C81      		ldd r24,Y+4
 1801 07b2 2981      		ldd r18,Y+1
 1802 07b4 3A81      		ldd r19,Y+2
 1803 07b6 9881      		ld r25,Y
 1804               	.LBE244:
 1805               	.LBE243:
 1806               	.LBE242:
 1807               	.LBB245:
 1808               	.LBB246:
 1809               	.LM220:
 1810 07b8 9923      		tst r25
 1811 07ba 01F4      		brne .L153
 1812 07bc 0217      		cp r16,r18
 1813 07be 1307      		cpc r17,r19
 1814 07c0 01F4      		brne .L161
 1815 07c2 00C0      		rjmp .L164
 1816               	.L153:
 1817 07c4 9130      		cpi r25,lo8(1)
 1818 07c6 01F4      		brne .L155
 1819 07c8 0217      		cp r16,r18
 1820 07ca 1307      		cpc r17,r19
 1821 07cc 04F0      		brlt .L164
 1822 07ce 00C0      		rjmp .L161
 1823               	.L155:
 1824 07d0 9230      		cpi r25,lo8(2)
 1825 07d2 01F4      		brne .L156
 1826 07d4 2017      		cp r18,r16
 1827 07d6 3107      		cpc r19,r17
 1828 07d8 04F0      		brlt .L164
 1829 07da 00C0      		rjmp .L161
 1830               	.L156:
 1831 07dc 9330      		cpi r25,lo8(3)
 1832 07de 01F4      		brne .L157
 1833 07e0 2017      		cp r18,r16
 1834 07e2 3107      		cpc r19,r17
 1835 07e4 04F4      		brge .L164
 1836 07e6 00C0      		rjmp .L161
 1837               	.L157:
 1838 07e8 9430      		cpi r25,lo8(4)
 1839 07ea 01F4      		brne .L161
 1840 07ec 40E0      		ldi r20,lo8(0)
 1841 07ee 50E0      		ldi r21,hi8(0)
 1842 07f0 0217      		cp r16,r18
 1843 07f2 1307      		cpc r17,r19
 1844 07f4 04F0      		brlt .L160
 1845 07f6 41E0      		ldi r20,lo8(1)
 1846 07f8 50E0      		ldi r21,hi8(1)
 1847               	.L160:
 1848               	.LM221:
 1849 07fa 4111      		cpse r20,__zero_reg__
 1850               	.L164:
 1851               	.LM222:
 1852 07fc 00D0      		rcall do_action
 1853               	.L161:
 1854 07fe 2596      		adiw r28,5
 1855               	.LBE246:
 1856               	.LM223:
 1857 0800 80E0      		ldi r24,hi8(hooks+20)
 1858 0802 C030      		cpi r28,lo8(hooks+20)
 1859 0804 D807      		cpc r29,r24
 1860 0806 01F4      		brne .L162
 1861               	.LBE245:
 1862               	.LM224:
 1863 0808 00D0      		rcall apply_port
 1864               	/* epilogue start */
 1865               	.LM225:
 1866 080a DF91      		pop r29
 1867 080c CF91      		pop r28
 1868 080e 1F91      		pop r17
 1869               	.LVL157:
 1870 0810 0F91      		pop r16
 1871               	.LVL158:
 1872 0812 0895      		ret
 1873               	.LFE47:
 1875               	.global	draw_hook_ptr
 1877               	draw_hook_ptr:
 1878               	.LFB49:
 1879               	.LM226:
 1880               	.LVL159:
 1881 0814 CF92      		push r12
 1882 0816 DF92      		push r13
 1883 0818 EF92      		push r14
 1884 081a FF92      		push r15
 1885 081c 0F93      		push r16
 1886 081e 1F93      		push r17
 1887 0820 CF93      		push r28
 1888 0822 DF93      		push r29
 1889               	/* prologue: function */
 1890               	/* frame size = 0 */
 1891               	.LBB247:
 1892               	.LM227:
 1893 0824 99E0      		ldi r25,lo8(9)
 1894 0826 899F      		mul r24,r25
 1895 0828 102D      		mov r17,r0
 1896 082a 1124      		clr r1
 1897 082c A2E0      		ldi r26,lo8(2)
 1898 082e EA2E      		mov r14,r26
 1899 0830 F12C      		mov r15,__zero_reg__
 1900               	.LVL160:
 1901 0832 70E0      		ldi r23,lo8(0)
 1902 0834 6B01      		movw r12,r22
 1903               	.LVL161:
 1904 0836 CC0C      		lsl r12
 1905 0838 DD1C      		rol r13
 1906 083a CC0C      		lsl r12
 1907 083c DD1C      		rol r13
 1908 083e 80E0      		ldi r24,lo8(edit_stages)
 1909 0840 90E0      		ldi r25,hi8(edit_stages)
 1910               	.LVL162:
 1911 0842 C80E      		add r12,r24
 1912 0844 D91E      		adc r13,r25
 1913 0846 EB01      		movw r28,r22
 1914 0848 CC0F      		lsl r28
 1915 084a DD1F      		rol r29
 1916 084c 2196      		adiw r28,1
 1917 084e CC0F      		lsl r28
 1918 0850 DD1F      		rol r29
 1919 0852 C80F      		add r28,r24
 1920 0854 D91F      		adc r29,r25
 1921               	.L167:
 1922 0856 212F      		mov r18,r17
 1923 0858 2E0D      		add r18,r14
 1924 085a F601      		movw r30,r12
 1925 085c 8081      		ld r24,Z
 1926 085e 622F      		mov r22,r18
 1927 0860 4881      		ld r20,Y
 1928 0862 02E0      		ldi r16,lo8(2)
 1929 0864 00D0      		rcall lcd_line
 1930               	.LM228:
 1931 0866 0894      		sec
 1932 0868 E11C      		adc r14,__zero_reg__
 1933 086a F11C      		adc r15,__zero_reg__
 1934 086c FBE0      		ldi r31,lo8(11)
 1935 086e EF16      		cp r14,r31
 1936 0870 F104      		cpc r15,__zero_reg__
 1937 0872 01F4      		brne .L167
 1938               	/* epilogue start */
 1939               	.LBE247:
 1940               	.LM229:
 1941 0874 DF91      		pop r29
 1942 0876 CF91      		pop r28
 1943 0878 1F91      		pop r17
 1944 087a 0F91      		pop r16
 1945 087c FF90      		pop r15
 1946 087e EF90      		pop r14
 1947               	.LVL163:
 1948 0880 DF90      		pop r13
 1949 0882 CF90      		pop r12
 1950 0884 0895      		ret
 1951               	.LFE49:
 1953               	.global	sc_top
 1955               	sc_top:
 1956               	.LFB51:
 1957               	.LM230:
 1958               	.LVL164:
 1959               	/* prologue: function */
 1960               	/* frame size = 0 */
 1961 0886 E82F      		mov r30,r24
 1962               	.LM231:
 1963 0888 77FF      		sbrs r23,7
 1964 088a 00C0      		rjmp .L171
 1965               	.LVL165:
 1966               	.LM232:
 1967 088c AB01      		movw r20,r22
 1968 088e 4095      		com r20
 1969 0890 5095      		com r21
 1970 0892 252F      		mov r18,r21
 1971 0894 3327      		clr r19
 1972 0896 27FD      		sbrc r18,7
 1973 0898 3A95      		dec r19
 1974               	.LVL166:
 1975 089a 30E0      		ldi r19,lo8(0)
 1976 089c 2770      		andi r18,lo8(7)
 1977 089e 3070      		andi r19,hi8(7)
 1978 08a0 54E0      		ldi r21,4
 1979 08a2 220F      	1:	lsl r18
 1980 08a4 331F      		rol r19
 1981 08a6 5A95      		dec r21
 1982 08a8 01F4      		brne 1b
 1983 08aa 4295      		swap r20
 1984 08ac 4F70      		andi r20,lo8(15)
 1985 08ae 842F      		mov r24,r20
 1986 08b0 822B      		or r24,r18
 1987 08b2 90E0      		ldi r25,lo8(0)
 1988 08b4 24E0      		ldi r18,4
 1989 08b6 880F      	1:	lsl r24
 1990 08b8 991F      		rol r25
 1991 08ba 2A95      		dec r18
 1992 08bc 01F4      		brne 1b
 1993 08be 9095      		com r25
 1994 08c0 8195      		neg r24
 1995 08c2 9F4F      		sbci r25,lo8(-1)
 1996 08c4 00C0      		rjmp .L176
 1997               	.LVL167:
 1998               	.L171:
 1999               	.LM233:
 2000 08c6 272F      		mov r18,r23
 2001 08c8 3327      		clr r19
 2002 08ca 27FD      		sbrc r18,7
 2003 08cc 3A95      		dec r19
 2004 08ce 30E0      		ldi r19,lo8(0)
 2005 08d0 2770      		andi r18,lo8(7)
 2006 08d2 3070      		andi r19,hi8(7)
 2007 08d4 84E0      		ldi r24,4
 2008 08d6 220F      	1:	lsl r18
 2009 08d8 331F      		rol r19
 2010 08da 8A95      		dec r24
 2011 08dc 01F4      		brne 1b
 2012 08de 862F      		mov r24,r22
 2013               	.LVL168:
 2014 08e0 8295      		swap r24
 2015 08e2 8F70      		andi r24,lo8(15)
 2016 08e4 822B      		or r24,r18
 2017 08e6 90E0      		ldi r25,lo8(0)
 2018 08e8 B4E0      		ldi r27,4
 2019 08ea 880F      	1:	lsl r24
 2020 08ec 991F      		rol r25
 2021 08ee BA95      		dec r27
 2022 08f0 01F4      		brne 1b
 2023               	.L176:
 2024 08f2 6E2F      		mov r22,r30
 2025 08f4 70E0      		ldi r23,lo8(0)
 2026               	.LVL169:
 2027 08f6 00D0      		rcall __divmodhi4
 2028               	.LM234:
 2029 08f8 2AE1      		ldi r18,lo8(26)
 2030 08fa 30E0      		ldi r19,hi8(26)
 2031               	.LVL170:
 2032 08fc 261B      		sub r18,r22
 2033 08fe 370B      		sbc r19,r23
 2034               	.LVL171:
 2035               	.LM235:
 2036 0900 1092 0000 		sts ovf_flag,__zero_reg__
 2037               	.LM236:
 2038 0904 2230      		cpi r18,2
 2039 0906 3105      		cpc r19,__zero_reg__
 2040 0908 04F4      		brge .L173
 2041               	.LM237:
 2042 090a 81E0      		ldi r24,lo8(1)
 2043 090c 8093 0000 		sts ovf_flag,r24
 2044 0910 22E0      		ldi r18,lo8(2)
 2045 0912 30E0      		ldi r19,hi8(2)
 2046 0914 00C0      		rjmp .L174
 2047               	.L173:
 2048               	.LM238:
 2049 0916 2632      		cpi r18,38
 2050 0918 3105      		cpc r19,__zero_reg__
 2051 091a 04F0      		brlt .L174
 2052               	.LM239:
 2053 091c 81E0      		ldi r24,lo8(1)
 2054 091e 8093 0000 		sts ovf_flag,r24
 2055 0922 25E2      		ldi r18,lo8(37)
 2056 0924 30E0      		ldi r19,hi8(37)
 2057               	.L174:
 2058               	.LM240:
 2059 0926 C901      		movw r24,r18
 2060               	.LVL172:
 2061               	/* epilogue start */
 2062 0928 0895      		ret
 2063               	.LFE51:
 2065               	.global	draw_chart
 2067               	draw_chart:
 2068               	.LFB52:
 2069               	.LM241:
 2070               	.LVL173:
 2071 092a EF92      		push r14
 2072 092c FF92      		push r15
 2073 092e 0F93      		push r16
 2074 0930 1F93      		push r17
 2075 0932 CF93      		push r28
 2076 0934 DF93      		push r29
 2077               	/* prologue: function */
 2078               	/* frame size = 0 */
 2079 0936 E82E      		mov r14,r24
 2080               	.LM242:
 2081 0938 C0E0      		ldi r28,lo8(values_for_chart)
 2082 093a D0E0      		ldi r29,hi8(values_for_chart)
 2083 093c 02E0      		ldi r16,lo8(2)
 2084               	.LVL174:
 2085               	.L178:
 2086               	.LBB248:
 2087               	.LM243:
 2088 093e 6881      		ld r22,Y
 2089 0940 7981      		ldd r23,Y+1
 2090 0942 8E2D      		mov r24,r14
 2091 0944 00D0      		rcall sc_top
 2092 0946 182F      		mov r17,r24
 2093 0948 F02E      		mov r15,r16
 2094 094a F394      		inc r15
 2095 094c 6A81      		ldd r22,Y+2
 2096 094e 7B81      		ldd r23,Y+3
 2097 0950 8E2D      		mov r24,r14
 2098 0952 00D0      		rcall sc_top
 2099 0954 282F      		mov r18,r24
 2100 0956 802F      		mov r24,r16
 2101 0958 612F      		mov r22,r17
 2102 095a 4F2D      		mov r20,r15
 2103 095c 01E0      		ldi r16,lo8(1)
 2104 095e 00D0      		rcall lcd_line
 2105 0960 2296      		adiw r28,2
 2106 0962 0F2D      		mov r16,r15
 2107               	.LM244:
 2108 0964 0A33      		cpi r16,lo8(58)
 2109 0966 01F4      		brne .L178
 2110               	/* epilogue start */
 2111               	.LBE248:
 2112               	.LM245:
 2113 0968 DF91      		pop r29
 2114 096a CF91      		pop r28
 2115 096c 1F91      		pop r17
 2116 096e 0F91      		pop r16
 2117 0970 FF90      		pop r15
 2118 0972 EF90      		pop r14
 2119               	.LVL175:
 2120 0974 0895      		ret
 2121               	.LFE52:
 2123               	.global	add_new_chart_value
 2125               	add_new_chart_value:
 2126               	.LFB53:
 2127               	.LM246:
 2128               	.LVL176:
 2129               	/* prologue: function */
 2130               	/* frame size = 0 */
 2131 0976 9C01      		movw r18,r24
 2132               	.LM247:
 2133 0978 E0E0      		ldi r30,lo8(values_for_chart)
 2134 097a F0E0      		ldi r31,hi8(values_for_chart)
 2135               	.LVL177:
 2136               	.L182:
 2137               	.LBB249:
 2138               	.LM248:
 2139 097c 8281      		ldd r24,Z+2
 2140 097e 9381      		ldd r25,Z+3
 2141 0980 8193      		st Z+,r24
 2142 0982 9193      		st Z+,r25
 2143               	.LM249:
 2144 0984 80E0      		ldi r24,hi8(values_for_chart+112)
 2145 0986 E030      		cpi r30,lo8(values_for_chart+112)
 2146 0988 F807      		cpc r31,r24
 2147 098a 01F4      		brne .L182
 2148               	.LBE249:
 2149               	.LM250:
 2150 098c 3183      		std Z+1,r19
 2151 098e 2083      		st Z,r18
 2152               	/* epilogue start */
 2153               	.LM251:
 2154 0990 0895      		ret
 2155               	.LFE53:
 2157               	.global	clear_chart
 2159               	clear_chart:
 2160               	.LFB54:
 2161               	.LM252:
 2162               	/* prologue: function */
 2163               	/* frame size = 0 */
 2164               	.LM253:
 2165 0992 E0E0      		ldi r30,lo8(values_for_chart)
 2166 0994 F0E0      		ldi r31,hi8(values_for_chart)
 2167               	.L186:
 2168               	.LBB250:
 2169               	.LM254:
 2170 0996 1192      		st Z+,__zero_reg__
 2171 0998 1192      		st Z+,__zero_reg__
 2172               	.LM255:
 2173 099a 80E0      		ldi r24,hi8(values_for_chart+114)
 2174 099c E030      		cpi r30,lo8(values_for_chart+114)
 2175 099e F807      		cpc r31,r24
 2176 09a0 01F4      		brne .L186
 2177               	/* epilogue start */
 2178               	.LBE250:
 2179               	.LM256:
 2180 09a2 0895      		ret
 2181               	.LFE54:
 2183               	.global	draw_bar
 2185               	draw_bar:
 2186               	.LFB55:
 2187               	.LM257:
 2188               	.LVL178:
 2189 09a4 0F93      		push r16
 2190 09a6 1F93      		push r17
 2191               	/* prologue: function */
 2192               	/* frame size = 0 */
 2193               	.LM258:
 2194 09a8 00D0      		rcall sc_top
 2195               	.LVL179:
 2196 09aa 182F      		mov r17,r24
 2197               	.LM259:
 2198 09ac 8EE4      		ldi r24,lo8(78)
 2199 09ae 612F      		mov r22,r17
 2200 09b0 4EE4      		ldi r20,lo8(78)
 2201 09b2 25E2      		ldi r18,lo8(37)
 2202 09b4 01E0      		ldi r16,lo8(1)
 2203 09b6 00D0      		rcall lcd_line
 2204               	.LM260:
 2205 09b8 8FE4      		ldi r24,lo8(79)
 2206 09ba 612F      		mov r22,r17
 2207 09bc 4FE4      		ldi r20,lo8(79)
 2208 09be 25E2      		ldi r18,lo8(37)
 2209 09c0 00D0      		rcall lcd_line
 2210               	/* epilogue start */
 2211               	.LM261:
 2212 09c2 1F91      		pop r17
 2213 09c4 0F91      		pop r16
 2214 09c6 0895      		ret
 2215               	.LFE55:
 2217               	.global	lcd_draw
 2219               	lcd_draw:
 2220               	.LFB19:
 2221               	.LM262:
 2222               	.LVL180:
 2223 09c8 2F92      		push r2
 2224 09ca 3F92      		push r3
 2225 09cc 4F92      		push r4
 2226 09ce 5F92      		push r5
 2227 09d0 6F92      		push r6
 2228 09d2 7F92      		push r7
 2229 09d4 8F92      		push r8
 2230 09d6 9F92      		push r9
 2231 09d8 AF92      		push r10
 2232 09da BF92      		push r11
 2233 09dc CF92      		push r12
 2234 09de DF92      		push r13
 2235 09e0 EF92      		push r14
 2236               	.LVL181:
 2237 09e2 FF92      		push r15
 2238 09e4 0F93      		push r16
 2239               	.LVL182:
 2240 09e6 1F93      		push r17
 2241 09e8 CF93      		push r28
 2242 09ea DF93      		push r29
 2243               	/* prologue: function */
 2244               	/* frame size = 0 */
 2245 09ec 3C01      		movw r6,r24
 2246 09ee 262E      		mov r2,r22
 2247 09f0 342E      		mov r3,r20
 2248 09f2 522E      		mov r5,r18
 2249 09f4 4E2C      		mov r4,r14
 2250               	.LVL183:
 2251               	.LM263:
 2252 09f6 EE24      		clr r14
 2253 09f8 FF24      		clr r15
 2254               	.LVL184:
 2255 09fa DD24      		clr r13
 2256               	.LBB251:
 2257               	.LM264:
 2258 09fc 802E      		mov r8,r16
 2259               	.LVL185:
 2260 09fe 9924      		clr r9
 2261               	.LVL186:
 2262               	.LBB252:
 2263               	.LM265:
 2264 0a00 A22E      		mov r10,r18
 2265 0a02 BB24      		clr r11
 2266 0a04 00C0      		rjmp .L192
 2267               	.LVL187:
 2268               	.L194:
 2269               	.LBE252:
 2270               	.LBE251:
 2271               	.LM266:
 2272 0a06 1C2F      		mov r17,r28
 2273               	.LVL188:
 2274 0a08 1D0D      		add r17,r13
 2275               	.LBB257:
 2276               	.LBB255:
 2277               	.LBB253:
 2278               	.LM267:
 2279 0a0a 812F      		mov r24,r17
 2280 0a0c 8695      		lsr r24
 2281 0a0e 8695      		lsr r24
 2282 0a10 8695      		lsr r24
 2283 0a12 9301      		movw r18,r6
 2284 0a14 280F      		add r18,r24
 2285 0a16 311D      		adc r19,__zero_reg__
 2286 0a18 C901      		movw r24,r18
 2287 0a1a 00D0      		rcall __eerd_byte_m8
 2288 0a1c 90E0      		ldi r25,lo8(0)
 2289 0a1e 1770      		andi r17,lo8(7)
 2290 0a20 00C0      		rjmp 2f
 2291 0a22 9595      	1:	asr r25
 2292 0a24 8795      		ror r24
 2293 0a26 1A95      	2:	dec r17
 2294 0a28 02F4      		brpl 1b
 2295 0a2a 80FF      		sbrs r24,0
 2296 0a2c 00C0      		rjmp .L193
 2297 0a2e 8C2F      		mov r24,r28
 2298 0a30 820D      		add r24,r2
 2299 0a32 6C2D      		mov r22,r12
 2300 0a34 442D      		mov r20,r4
 2301 0a36 00D0      		rcall lcd_pixel
 2302               	.L193:
 2303               	.LBE253:
 2304               	.LM268:
 2305 0a38 2196      		adiw r28,1
 2306               	.LVL189:
 2307               	.L196:
 2308 0a3a CA15      		cp r28,r10
 2309 0a3c DB05      		cpc r29,r11
 2310 0a3e 04F0      		brlt .L194
 2311               	.LBE255:
 2312               	.LM269:
 2313 0a40 0894      		sec
 2314 0a42 E11C      		adc r14,__zero_reg__
 2315 0a44 F11C      		adc r15,__zero_reg__
 2316 0a46 D50C      		add r13,r5
 2317               	.L192:
 2318 0a48 E814      		cp r14,r8
 2319 0a4a F904      		cpc r15,r9
 2320 0a4c 04F4      		brge .L197
 2321               	.LBB256:
 2322               	.LM270:
 2323 0a4e C0E0      		ldi r28,lo8(0)
 2324 0a50 D0E0      		ldi r29,hi8(0)
 2325               	.LBB254:
 2326               	.LM271:
 2327 0a52 C32C      		mov r12,r3
 2328 0a54 CE0C      		add r12,r14
 2329 0a56 00C0      		rjmp .L196
 2330               	.L197:
 2331               	/* epilogue start */
 2332               	.LBE254:
 2333               	.LBE256:
 2334               	.LBE257:
 2335               	.LM272:
 2336 0a58 DF91      		pop r29
 2337 0a5a CF91      		pop r28
 2338               	.LVL190:
 2339 0a5c 1F91      		pop r17
 2340               	.LVL191:
 2341 0a5e 0F91      		pop r16
 2342 0a60 FF90      		pop r15
 2343 0a62 EF90      		pop r14
 2344               	.LVL192:
 2345 0a64 DF90      		pop r13
 2346 0a66 CF90      		pop r12
 2347 0a68 BF90      		pop r11
 2348 0a6a AF90      		pop r10
 2349 0a6c 9F90      		pop r9
 2350               	.LVL193:
 2351 0a6e 8F90      		pop r8
 2352               	.LVL194:
 2353 0a70 7F90      		pop r7
 2354 0a72 6F90      		pop r6
 2355               	.LVL195:
 2356 0a74 5F90      		pop r5
 2357               	.LVL196:
 2358 0a76 4F90      		pop r4
 2359               	.LVL197:
 2360 0a78 3F90      		pop r3
 2361               	.LVL198:
 2362 0a7a 2F90      		pop r2
 2363               	.LVL199:
 2364 0a7c 0895      		ret
 2365               	.LFE19:
 2367               	.global	draw_interface
 2369               	draw_interface:
 2370               	.LFB59:
 2371               	.LM273:
 2372 0a7e EF92      		push r14
 2373 0a80 0F93      		push r16
 2374 0a82 1F93      		push r17
 2375 0a84 CF93      		push r28
 2376 0a86 DF93      		push r29
 2377               	/* prologue: function */
 2378               	/* frame size = 0 */
 2379               	.LM274:
 2380 0a88 81E0      		ldi r24,lo8(1)
 2381 0a8a 61E0      		ldi r22,lo8(1)
 2382 0a8c 4BE3      		ldi r20,lo8(59)
 2383 0a8e 21E0      		ldi r18,lo8(1)
 2384 0a90 01E0      		ldi r16,lo8(1)
 2385 0a92 00D0      		rcall lcd_line
 2386               	.LM275:
 2387 0a94 81E0      		ldi r24,lo8(1)
 2388 0a96 66E2      		ldi r22,lo8(38)
 2389 0a98 4BE3      		ldi r20,lo8(59)
 2390 0a9a 26E2      		ldi r18,lo8(38)
 2391 0a9c 00D0      		rcall lcd_line
 2392               	.LM276:
 2393 0a9e 81E0      		ldi r24,lo8(1)
 2394 0aa0 61E0      		ldi r22,lo8(1)
 2395 0aa2 41E0      		ldi r20,lo8(1)
 2396 0aa4 26E2      		ldi r18,lo8(38)
 2397 0aa6 00D0      		rcall lcd_line
 2398               	.LM277:
 2399 0aa8 8BE3      		ldi r24,lo8(59)
 2400 0aaa 61E0      		ldi r22,lo8(1)
 2401 0aac 4BE3      		ldi r20,lo8(59)
 2402 0aae 26E2      		ldi r18,lo8(38)
 2403 0ab0 00D0      		rcall lcd_line
 2404 0ab2 C1E0      		ldi r28,lo8(1)
 2405 0ab4 D0E0      		ldi r29,hi8(1)
 2406               	.LVL200:
 2407               	.L200:
 2408               	.LBB258:
 2409               	.LM278:
 2410 0ab6 C0FF      		sbrs r28,0
 2411 0ab8 00C0      		rjmp .L199
 2412 0aba 8C2F      		mov r24,r28
 2413 0abc 6AE1      		ldi r22,lo8(26)
 2414 0abe 41E0      		ldi r20,lo8(1)
 2415 0ac0 00D0      		rcall lcd_pixel
 2416               	.L199:
 2417               	.LM279:
 2418 0ac2 2196      		adiw r28,1
 2419 0ac4 CC33      		cpi r28,60
 2420 0ac6 D105      		cpc r29,__zero_reg__
 2421 0ac8 01F4      		brne .L200
 2422               	.LBE258:
 2423               	.LM280:
 2424 0aca 8DE4      		ldi r24,lo8(77)
 2425 0acc 62E0      		ldi r22,lo8(2)
 2426 0ace 4DE4      		ldi r20,lo8(77)
 2427 0ad0 26E2      		ldi r18,lo8(38)
 2428 0ad2 01E0      		ldi r16,lo8(1)
 2429 0ad4 00D0      		rcall lcd_line
 2430               	.LM281:
 2431 0ad6 80E5      		ldi r24,lo8(80)
 2432 0ad8 62E0      		ldi r22,lo8(2)
 2433 0ada 40E5      		ldi r20,lo8(80)
 2434 0adc 26E2      		ldi r18,lo8(38)
 2435 0ade 00D0      		rcall lcd_line
 2436               	.LM282:
 2437 0ae0 8EE4      		ldi r24,lo8(78)
 2438 0ae2 61E0      		ldi r22,lo8(1)
 2439 0ae4 4FE4      		ldi r20,lo8(79)
 2440 0ae6 21E0      		ldi r18,lo8(1)
 2441 0ae8 00D0      		rcall lcd_line
 2442               	.LM283:
 2443 0aea 8EE4      		ldi r24,lo8(78)
 2444 0aec 66E2      		ldi r22,lo8(38)
 2445 0aee 4FE4      		ldi r20,lo8(79)
 2446 0af0 26E2      		ldi r18,lo8(38)
 2447 0af2 00D0      		rcall lcd_line
 2448 0af4 C1E0      		ldi r28,lo8(1)
 2449 0af6 D0E0      		ldi r29,hi8(1)
 2450               	.LVL201:
 2451 0af8 16E0      		ldi r17,lo8(6)
 2452               	.L202:
 2453               	.LBB259:
 2454               	.LM284:
 2455 0afa 8CE4      		ldi r24,lo8(76)
 2456 0afc 612F      		mov r22,r17
 2457 0afe 41E0      		ldi r20,lo8(1)
 2458 0b00 00D0      		rcall lcd_pixel
 2459               	.LM285:
 2460 0b02 C0FD      		sbrc r28,0
 2461 0b04 00C0      		rjmp .L201
 2462 0b06 8BE4      		ldi r24,lo8(75)
 2463 0b08 612F      		mov r22,r17
 2464 0b0a 41E0      		ldi r20,lo8(1)
 2465 0b0c 00D0      		rcall lcd_pixel
 2466               	.L201:
 2467               	.LM286:
 2468 0b0e 2196      		adiw r28,1
 2469 0b10 1C5F      		subi r17,lo8(-(4))
 2470 0b12 1632      		cpi r17,lo8(38)
 2471 0b14 01F4      		brne .L202
 2472 0b16 18E0      		ldi r17,lo8(8)
 2473               	.L203:
 2474               	.LBE259:
 2475               	.LBB260:
 2476               	.LM287:
 2477 0b18 80E0      		ldi r24,lo8(small_zero)
 2478 0b1a 90E0      		ldi r25,hi8(small_zero)
 2479 0b1c 66E4      		ldi r22,lo8(70)
 2480 0b1e 412F      		mov r20,r17
 2481 0b20 24E0      		ldi r18,lo8(4)
 2482 0b22 05E0      		ldi r16,lo8(5)
 2483 0b24 EE24      		clr r14
 2484 0b26 E394      		inc r14
 2485 0b28 00D0      		rcall lcd_draw
 2486 0b2a 185F      		subi r17,lo8(-(8))
 2487               	.LM288:
 2488 0b2c 1832      		cpi r17,lo8(40)
 2489 0b2e 01F4      		brne .L203
 2490               	.LBE260:
 2491               	.LM289:
 2492 0b30 8EE3      		ldi r24,lo8(62)
 2493 0b32 62E2      		ldi r22,lo8(34)
 2494 0b34 40E4      		ldi r20,lo8(64)
 2495 0b36 22E2      		ldi r18,lo8(34)
 2496 0b38 01E0      		ldi r16,lo8(1)
 2497 0b3a 00D0      		rcall lcd_line
 2498               	.LM290:
 2499 0b3c 80E0      		ldi r24,lo8(ball)
 2500 0b3e 90E0      		ldi r25,hi8(ball)
 2501 0b40 6BE4      		ldi r22,lo8(75)
 2502 0b42 47E2      		ldi r20,lo8(39)
 2503 0b44 28E0      		ldi r18,lo8(8)
 2504 0b46 08E0      		ldi r16,lo8(8)
 2505 0b48 00D0      		rcall lcd_draw
 2506               	.LM291:
 2507 0b4a 80E0      		ldi r24,lo8(small_s)
 2508 0b4c 90E0      		ldi r25,hi8(small_s)
 2509 0b4e 66E3      		ldi r22,lo8(54)
 2510 0b50 49E2      		ldi r20,lo8(41)
 2511 0b52 23E0      		ldi r18,lo8(3)
 2512 0b54 05E0      		ldi r16,lo8(5)
 2513 0b56 00D0      		rcall lcd_draw
 2514               	.LM292:
 2515 0b58 80E0      		ldi r24,lo8(small_p)
 2516 0b5a 90E0      		ldi r25,hi8(small_p)
 2517 0b5c 6AE3      		ldi r22,lo8(58)
 2518 0b5e 49E2      		ldi r20,lo8(41)
 2519 0b60 23E0      		ldi r18,lo8(3)
 2520 0b62 00D0      		rcall lcd_draw
 2521               	.LM293:
 2522 0b64 8091 0000 		lds r24,ovf_flag
 2523 0b68 8823      		tst r24
 2524 0b6a 01F0      		breq .L206
 2525 0b6c 12E4      		ldi r17,lo8(66)
 2526               	.L205:
 2527               	.LBB261:
 2528               	.LM294:
 2529 0b6e 812F      		mov r24,r17
 2530 0b70 61E0      		ldi r22,lo8(1)
 2531 0b72 412F      		mov r20,r17
 2532 0b74 26E0      		ldi r18,lo8(6)
 2533 0b76 01E0      		ldi r16,lo8(1)
 2534 0b78 00D0      		rcall lcd_line
 2535 0b7a 1F5F      		subi r17,lo8(-(1))
 2536               	.LM295:
 2537 0b7c 1734      		cpi r17,lo8(71)
 2538 0b7e 01F4      		brne .L205
 2539               	.LBE261:
 2540               	.LM296:
 2541 0b80 84E4      		ldi r24,lo8(68)
 2542 0b82 62E0      		ldi r22,lo8(2)
 2543 0b84 44E4      		ldi r20,lo8(68)
 2544 0b86 25E0      		ldi r18,lo8(5)
 2545 0b88 00E0      		ldi r16,lo8(0)
 2546 0b8a 00D0      		rcall lcd_line
 2547               	.LM297:
 2548 0b8c 84E4      		ldi r24,lo8(68)
 2549 0b8e 64E0      		ldi r22,lo8(4)
 2550 0b90 41E0      		ldi r20,lo8(1)
 2551 0b92 00D0      		rcall lcd_pixel
 2552               	.L206:
 2553               	/* epilogue start */
 2554               	.LM298:
 2555 0b94 DF91      		pop r29
 2556 0b96 CF91      		pop r28
 2557               	.LVL202:
 2558 0b98 1F91      		pop r17
 2559 0b9a 0F91      		pop r16
 2560 0b9c EF90      		pop r14
 2561 0b9e 0895      		ret
 2562               	.LFE59:
 2564               	.global	draw_values_line
 2566               	draw_values_line:
 2567               	.LFB58:
 2568               	.LM299:
 2569               	.LVL203:
 2570 0ba0 EF92      		push r14
 2571 0ba2 0F93      		push r16
 2572               	/* prologue: function */
 2573               	/* frame size = 0 */
 2574               	.LM300:
 2575 0ba4 8431      		cpi r24,lo8(20)
 2576 0ba6 01F0      		breq .L213
 2577 0ba8 8035      		cpi r24,lo8(80)
 2578 0baa 01F4      		brne .L217
 2579 0bac 00C0      		rjmp .L220
 2580               	.L213:
 2581               	.LM301:
 2582 0bae 80E0      		ldi r24,lo8(small_two)
 2583 0bb0 90E0      		ldi r25,hi8(small_two)
 2584               	.LVL204:
 2585 0bb2 62E4      		ldi r22,lo8(66)
 2586 0bb4 48E0      		ldi r20,lo8(8)
 2587 0bb6 23E0      		ldi r18,lo8(3)
 2588 0bb8 05E0      		ldi r16,lo8(5)
 2589 0bba EE24      		clr r14
 2590 0bbc E394      		inc r14
 2591 0bbe 00D0      		rcall lcd_draw
 2592               	.LM302:
 2593 0bc0 80E0      		ldi r24,lo8(small_one)
 2594 0bc2 90E0      		ldi r25,hi8(small_one)
 2595 0bc4 62E4      		ldi r22,lo8(66)
 2596 0bc6 40E1      		ldi r20,lo8(16)
 2597 0bc8 22E0      		ldi r18,lo8(2)
 2598 0bca 00D0      		rcall lcd_draw
 2599               	.LM303:
 2600 0bcc 80E0      		ldi r24,lo8(small_one)
 2601 0bce 90E0      		ldi r25,hi8(small_one)
 2602 0bd0 62E4      		ldi r22,lo8(66)
 2603 0bd2 40E2      		ldi r20,lo8(32)
 2604 0bd4 22E0      		ldi r18,lo8(2)
 2605 0bd6 00C0      		rjmp .L218
 2606               	.LVL205:
 2607               	.L220:
 2608               	.LM304:
 2609 0bd8 80E0      		ldi r24,lo8(small_eight)
 2610 0bda 90E0      		ldi r25,hi8(small_eight)
 2611               	.LVL206:
 2612 0bdc 62E4      		ldi r22,lo8(66)
 2613 0bde 48E0      		ldi r20,lo8(8)
 2614 0be0 23E0      		ldi r18,lo8(3)
 2615 0be2 05E0      		ldi r16,lo8(5)
 2616 0be4 EE24      		clr r14
 2617 0be6 E394      		inc r14
 2618 0be8 00D0      		rcall lcd_draw
 2619               	.LM305:
 2620 0bea 80E0      		ldi r24,lo8(small_four)
 2621 0bec 90E0      		ldi r25,hi8(small_four)
 2622 0bee 62E4      		ldi r22,lo8(66)
 2623 0bf0 40E1      		ldi r20,lo8(16)
 2624 0bf2 23E0      		ldi r18,lo8(3)
 2625 0bf4 00D0      		rcall lcd_draw
 2626               	.LM306:
 2627 0bf6 80E0      		ldi r24,lo8(small_four)
 2628 0bf8 90E0      		ldi r25,hi8(small_four)
 2629 0bfa 00C0      		rjmp .L219
 2630               	.LVL207:
 2631               	.L217:
 2632               	.LM307:
 2633 0bfc 80E0      		ldi r24,lo8(small_four)
 2634 0bfe 90E0      		ldi r25,hi8(small_four)
 2635               	.LVL208:
 2636 0c00 62E4      		ldi r22,lo8(66)
 2637 0c02 48E0      		ldi r20,lo8(8)
 2638 0c04 23E0      		ldi r18,lo8(3)
 2639 0c06 05E0      		ldi r16,lo8(5)
 2640 0c08 EE24      		clr r14
 2641 0c0a E394      		inc r14
 2642 0c0c 00D0      		rcall lcd_draw
 2643               	.LM308:
 2644 0c0e 80E0      		ldi r24,lo8(small_two)
 2645 0c10 90E0      		ldi r25,hi8(small_two)
 2646 0c12 62E4      		ldi r22,lo8(66)
 2647 0c14 40E1      		ldi r20,lo8(16)
 2648 0c16 23E0      		ldi r18,lo8(3)
 2649 0c18 00D0      		rcall lcd_draw
 2650               	.LM309:
 2651 0c1a 80E0      		ldi r24,lo8(small_two)
 2652 0c1c 90E0      		ldi r25,hi8(small_two)
 2653               	.L219:
 2654 0c1e 62E4      		ldi r22,lo8(66)
 2655 0c20 40E2      		ldi r20,lo8(32)
 2656 0c22 23E0      		ldi r18,lo8(3)
 2657               	.L218:
 2658 0c24 00D0      		rcall lcd_draw
 2659               	/* epilogue start */
 2660               	.LM310:
 2661 0c26 0F91      		pop r16
 2662 0c28 EF90      		pop r14
 2663 0c2a 0895      		ret
 2664               	.LFE58:
 2666               	.global	draw_update_speed_indicator
 2668               	draw_update_speed_indicator:
 2669               	.LFB57:
 2670               	.LM311:
 2671               	.LVL209:
 2672 0c2c EF92      		push r14
 2673 0c2e 0F93      		push r16
 2674 0c30 1F93      		push r17
 2675               	/* prologue: function */
 2676               	/* frame size = 0 */
 2677 0c32 182F      		mov r17,r24
 2678               	.LM312:
 2679 0c34 8430      		cpi r24,lo8(4)
 2680 0c36 01F4      		brne .L222
 2681               	.LM313:
 2682 0c38 80E0      		ldi r24,lo8(small_h)
 2683 0c3a 90E0      		ldi r25,hi8(small_h)
 2684               	.LVL210:
 2685 0c3c 6EE3      		ldi r22,lo8(62)
 2686 0c3e 49E2      		ldi r20,lo8(41)
 2687 0c40 23E0      		ldi r18,lo8(3)
 2688 0c42 00C0      		rjmp .L226
 2689               	.LVL211:
 2690               	.L222:
 2691               	.LM314:
 2692 0c44 8330      		cpi r24,lo8(3)
 2693 0c46 01F4      		brne .L224
 2694               	.LM315:
 2695 0c48 80E0      		ldi r24,lo8(small_m)
 2696 0c4a 90E0      		ldi r25,hi8(small_m)
 2697               	.LVL212:
 2698 0c4c 6EE3      		ldi r22,lo8(62)
 2699 0c4e 49E2      		ldi r20,lo8(41)
 2700 0c50 25E0      		ldi r18,lo8(5)
 2701               	.L226:
 2702 0c52 05E0      		ldi r16,lo8(5)
 2703 0c54 EE24      		clr r14
 2704 0c56 E394      		inc r14
 2705 0c58 00D0      		rcall lcd_draw
 2706 0c5a 00C0      		rjmp .L225
 2707               	.LVL213:
 2708               	.L224:
 2709               	.LM316:
 2710 0c5c 8EE3      		ldi r24,lo8(62)
 2711               	.LVL214:
 2712 0c5e 6BE2      		ldi r22,lo8(43)
 2713 0c60 4EE3      		ldi r20,lo8(62)
 2714 0c62 2DE2      		ldi r18,lo8(45)
 2715 0c64 01E0      		ldi r16,lo8(1)
 2716 0c66 00D0      		rcall lcd_line
 2717               	.LM317:
 2718 0c68 8FE3      		ldi r24,lo8(63)
 2719 0c6a 6BE2      		ldi r22,lo8(43)
 2720 0c6c 4FE3      		ldi r20,lo8(63)
 2721 0c6e 2DE2      		ldi r18,lo8(45)
 2722 0c70 00D0      		rcall lcd_line
 2723               	.LM318:
 2724 0c72 1123      		tst r17
 2725 0c74 01F0      		breq .L225
 2726               	.LM319:
 2727 0c76 81E4      		ldi r24,lo8(65)
 2728 0c78 6AE2      		ldi r22,lo8(42)
 2729 0c7a 41E4      		ldi r20,lo8(65)
 2730 0c7c 2DE2      		ldi r18,lo8(45)
 2731 0c7e 00D0      		rcall lcd_line
 2732               	.LM320:
 2733 0c80 82E4      		ldi r24,lo8(66)
 2734 0c82 6AE2      		ldi r22,lo8(42)
 2735 0c84 42E4      		ldi r20,lo8(66)
 2736 0c86 2DE2      		ldi r18,lo8(45)
 2737 0c88 00D0      		rcall lcd_line
 2738               	.LM321:
 2739 0c8a 1130      		cpi r17,lo8(1)
 2740 0c8c 01F0      		breq .L225
 2741               	.LM322:
 2742 0c8e 84E4      		ldi r24,lo8(68)
 2743 0c90 69E2      		ldi r22,lo8(41)
 2744 0c92 44E4      		ldi r20,lo8(68)
 2745 0c94 2DE2      		ldi r18,lo8(45)
 2746 0c96 00D0      		rcall lcd_line
 2747               	.LM323:
 2748 0c98 85E4      		ldi r24,lo8(69)
 2749 0c9a 69E2      		ldi r22,lo8(41)
 2750 0c9c 45E4      		ldi r20,lo8(69)
 2751 0c9e 2DE2      		ldi r18,lo8(45)
 2752 0ca0 00D0      		rcall lcd_line
 2753               	.L225:
 2754               	/* epilogue start */
 2755               	.LM324:
 2756 0ca2 1F91      		pop r17
 2757               	.LVL215:
 2758 0ca4 0F91      		pop r16
 2759 0ca6 EF90      		pop r14
 2760 0ca8 0895      		ret
 2761               	.LFE57:
 2763               	.global	lcd_put_char
 2765               	lcd_put_char:
 2766               	.LFB17:
 2767               	.LM325:
 2768               	.LVL216:
 2769 0caa 9F92      		push r9
 2770 0cac AF92      		push r10
 2771 0cae BF92      		push r11
 2772 0cb0 CF92      		push r12
 2773 0cb2 DF92      		push r13
 2774 0cb4 EF92      		push r14
 2775 0cb6 FF92      		push r15
 2776 0cb8 0F93      		push r16
 2777 0cba 1F93      		push r17
 2778 0cbc CF93      		push r28
 2779 0cbe DF93      		push r29
 2780               	/* prologue: function */
 2781               	/* frame size = 0 */
 2782 0cc0 F82E      		mov r15,r24
 2783 0cc2 962E      		mov r9,r22
 2784 0cc4 A22E      		mov r10,r18
 2785               	.LBB262:
 2786               	.LBB263:
 2787               	.LM326:
 2788 0cc6 85E0      		ldi r24,lo8(5)
 2789               	.LVL217:
 2790 0cc8 489F      		mul r20,r24
 2791 0cca A001      		movw r20,r0
 2792 0ccc 1124      		clr r1
 2793               	.LVL218:
 2794 0cce 8A01      		movw r16,r20
 2795 0cd0 0050      		subi r16,lo8(-(CHARS_TABLE-160))
 2796 0cd2 1040      		sbci r17,hi8(-(CHARS_TABLE-160))
 2797               	.LBE263:
 2798               	.LM327:
 2799 0cd4 70E0      		ldi r23,lo8(CHARS_TABLE-155)
 2800 0cd6 C72E      		mov r12,r23
 2801 0cd8 70E0      		ldi r23,hi8(CHARS_TABLE-155)
 2802 0cda D72E      		mov r13,r23
 2803 0cdc C40E      		add r12,r20
 2804 0cde D51E      		adc r13,r21
 2805 0ce0 00C0      		rjmp .L228
 2806               	.LVL219:
 2807               	.L230:
 2808               	.LBB264:
 2809               	.LM328:
 2810 0ce2 8B2D      		mov r24,r11
 2811 0ce4 9E2D      		mov r25,r14
 2812 0ce6 00D0      		rcall __eerd_byte_m8
 2813 0ce8 90E0      		ldi r25,lo8(0)
 2814 0cea 0C2E      		mov r0,r28
 2815 0cec 00C0      		rjmp 2f
 2816 0cee 9595      	1:	asr r25
 2817 0cf0 8795      		ror r24
 2818 0cf2 0A94      	2:	dec r0
 2819 0cf4 02F4      		brpl 1b
 2820 0cf6 80FF      		sbrs r24,0
 2821 0cf8 00C0      		rjmp .L229
 2822 0cfa 692D      		mov r22,r9
 2823 0cfc 6C0F      		add r22,r28
 2824 0cfe 8F2D      		mov r24,r15
 2825 0d00 4A2D      		mov r20,r10
 2826 0d02 00D0      		rcall lcd_pixel
 2827               	.L229:
 2828               	.LM329:
 2829 0d04 2196      		adiw r28,1
 2830 0d06 C830      		cpi r28,8
 2831 0d08 D105      		cpc r29,__zero_reg__
 2832 0d0a 01F4      		brne .L230
 2833 0d0c 0F5F      		subi r16,lo8(-(1))
 2834 0d0e 1F4F      		sbci r17,hi8(-(1))
 2835 0d10 F394      		inc r15
 2836               	.LBE264:
 2837               	.LM330:
 2838 0d12 0C15      		cp r16,r12
 2839 0d14 1D05      		cpc r17,r13
 2840 0d16 01F0      		breq .L232
 2841               	.LVL220:
 2842               	.L228:
 2843 0d18 B02E      		mov r11,r16
 2844 0d1a E12E      		mov r14,r17
 2845 0d1c C0E0      		ldi r28,lo8(0)
 2846 0d1e D0E0      		ldi r29,hi8(0)
 2847 0d20 00C0      		rjmp .L230
 2848               	.LVL221:
 2849               	.L232:
 2850               	/* epilogue start */
 2851               	.LBE262:
 2852               	.LM331:
 2853 0d22 DF91      		pop r29
 2854 0d24 CF91      		pop r28
 2855               	.LVL222:
 2856 0d26 1F91      		pop r17
 2857 0d28 0F91      		pop r16
 2858 0d2a FF90      		pop r15
 2859               	.LVL223:
 2860 0d2c EF90      		pop r14
 2861 0d2e DF90      		pop r13
 2862 0d30 CF90      		pop r12
 2863 0d32 BF90      		pop r11
 2864 0d34 AF90      		pop r10
 2865               	.LVL224:
 2866 0d36 9F90      		pop r9
 2867               	.LVL225:
 2868 0d38 0895      		ret
 2869               	.LFE17:
 2871               	.global	lcd_put_string
 2873               	lcd_put_string:
 2874               	.LFB18:
 2875               	.LM332:
 2876               	.LVL226:
 2877 0d3a BF92      		push r11
 2878 0d3c CF92      		push r12
 2879 0d3e DF92      		push r13
 2880 0d40 EF92      		push r14
 2881 0d42 FF92      		push r15
 2882 0d44 0F93      		push r16
 2883 0d46 1F93      		push r17
 2884 0d48 CF93      		push r28
 2885 0d4a DF93      		push r29
 2886               	/* prologue: function */
 2887               	/* frame size = 0 */
 2888 0d4c D82E      		mov r13,r24
 2889 0d4e B62E      		mov r11,r22
 2890 0d50 7A01      		movw r14,r20
 2891 0d52 C22E      		mov r12,r18
 2892               	.LM333:
 2893 0d54 EA01      		movw r28,r20
 2894               	.LVL227:
 2895 0d56 0990      		ld __tmp_reg__,Y+
 2896 0d58 0020      		tst __tmp_reg__
 2897 0d5a 01F4      		brne .-6
 2898 0d5c 2197      		sbiw r28,1
 2899 0d5e C41B      		sub r28,r20
 2900 0d60 D50B      		sbc r29,r21
 2901 0d62 00E0      		ldi r16,lo8(0)
 2902 0d64 10E0      		ldi r17,hi8(0)
 2903               	.LVL228:
 2904 0d66 00C0      		rjmp .L235
 2905               	.LVL229:
 2906               	.L236:
 2907               	.LBB265:
 2908               	.LM334:
 2909 0d68 F701      		movw r30,r14
 2910 0d6a E00F      		add r30,r16
 2911 0d6c F11F      		adc r31,r17
 2912 0d6e 8D2D      		mov r24,r13
 2913 0d70 6B2D      		mov r22,r11
 2914 0d72 4081      		ld r20,Z
 2915               	.LVL230:
 2916 0d74 2C2D      		mov r18,r12
 2917 0d76 00D0      		rcall lcd_put_char
 2918               	.LM335:
 2919 0d78 0F5F      		subi r16,lo8(-(1))
 2920 0d7a 1F4F      		sbci r17,hi8(-(1))
 2921 0d7c 86E0      		ldi r24,lo8(6)
 2922 0d7e D80E      		add r13,r24
 2923               	.LVL231:
 2924               	.L235:
 2925 0d80 0C17      		cp r16,r28
 2926 0d82 1D07      		cpc r17,r29
 2927 0d84 04F0      		brlt .L236
 2928               	.LVL232:
 2929               	.LBE265:
 2930               	.LM336:
 2931 0d86 CE01      		movw r24,r28
 2932               	.LVL233:
 2933               	/* epilogue start */
 2934 0d88 DF91      		pop r29
 2935 0d8a CF91      		pop r28
 2936 0d8c 1F91      		pop r17
 2937 0d8e 0F91      		pop r16
 2938               	.LVL234:
 2939 0d90 FF90      		pop r15
 2940 0d92 EF90      		pop r14
 2941 0d94 DF90      		pop r13
 2942               	.LVL235:
 2943 0d96 CF90      		pop r12
 2944               	.LVL236:
 2945 0d98 BF90      		pop r11
 2946               	.LVL237:
 2947 0d9a 0895      		ret
 2948               	.LFE18:
 2950               		.data
 2951               	.LC0:
 2952 0000 3000      		.string	"0"
 2953               		.text
 2954               	.global	draw_current_value
 2956               	draw_current_value:
 2957               	.LFB56:
 2958               	.LM337:
 2959               	.LVL238:
 2960 0d9c EF92      		push r14
 2961 0d9e 0F93      		push r16
 2962 0da0 1F93      		push r17
 2963 0da2 DF93      		push r29
 2964 0da4 CF93      		push r28
 2965 0da6 00D0      		rcall .
 2966 0da8 00D0      		rcall .
 2967 0daa 0F92      		push __tmp_reg__
 2968 0dac CDB7      		in r28,__SP_L__
 2969 0dae DEB7      		in r29,__SP_H__
 2970               	/* prologue: function */
 2971               	/* frame size = 5 */
 2972 0db0 8C01      		movw r16,r24
 2973               	.LM338:
 2974 0db2 17FD      		sbrc r17,7
 2975 0db4 00C0      		rjmp .L239
 2976               	.LVL239:
 2977 0db6 EE24      		clr r14
 2978 0db8 E394      		inc r14
 2979               	.LVL240:
 2980 0dba 00C0      		rjmp .L240
 2981               	.LVL241:
 2982               	.L239:
 2983               	.LM339:
 2984 0dbc 81E0      		ldi r24,lo8(1)
 2985 0dbe 68E2      		ldi r22,lo8(40)
 2986 0dc0 4DE2      		ldi r20,lo8(45)
 2987 0dc2 21E0      		ldi r18,lo8(1)
 2988 0dc4 00D0      		rcall lcd_put_char
 2989               	.LM340:
 2990 0dc6 C801      		movw r24,r16
 2991               	.LVL242:
 2992 0dc8 8095      		com r24
 2993 0dca 9095      		com r25
 2994 0dcc A7E0      		ldi r26,lo8(7)
 2995 0dce EA2E      		mov r14,r26
 2996               	.LVL243:
 2997               	.L240:
 2998               	.LM341:
 2999 0dd0 292F      		mov r18,r25
 3000 0dd2 3327      		clr r19
 3001 0dd4 27FD      		sbrc r18,7
 3002 0dd6 3A95      		dec r19
 3003 0dd8 30E0      		ldi r19,lo8(0)
 3004 0dda 2770      		andi r18,lo8(7)
 3005 0ddc 3070      		andi r19,hi8(7)
 3006 0dde E4E0      		ldi r30,4
 3007 0de0 220F      	1:	lsl r18
 3008 0de2 331F      		rol r19
 3009 0de4 EA95      		dec r30
 3010 0de6 01F4      		brne 1b
 3011 0de8 8295      		swap r24
 3012               	.LVL244:
 3013 0dea 8F70      		andi r24,lo8(15)
 3014 0dec 822B      		or r24,r18
 3015 0dee 90E0      		ldi r25,lo8(0)
 3016 0df0 8E01      		movw r16,r28
 3017               	.LVL245:
 3018 0df2 0F5F      		subi r16,lo8(-(1))
 3019 0df4 1F4F      		sbci r17,hi8(-(1))
 3020 0df6 B801      		movw r22,r16
 3021 0df8 4AE0      		ldi r20,lo8(10)
 3022 0dfa 50E0      		ldi r21,hi8(10)
 3023 0dfc 00D0      		rcall itoa
 3024               	.LM342:
 3025 0dfe 8E2D      		mov r24,r14
 3026 0e00 68E2      		ldi r22,lo8(40)
 3027 0e02 A801      		movw r20,r16
 3028 0e04 21E0      		ldi r18,lo8(1)
 3029 0e06 00D0      		rcall lcd_put_string
 3030               	.LM343:
 3031 0e08 06E0      		ldi r16,lo8(6)
 3032 0e0a 809F      		mul r24,r16
 3033 0e0c C001      		movw r24,r0
 3034 0e0e 1124      		clr r1
 3035 0e10 1E2D      		mov r17,r14
 3036               	.LVL246:
 3037 0e12 180F      		add r17,r24
 3038               	.LVL247:
 3039               	.LM344:
 3040 0e14 812F      		mov r24,r17
 3041 0e16 68E2      		ldi r22,lo8(40)
 3042 0e18 4EE2      		ldi r20,lo8(46)
 3043 0e1a 21E0      		ldi r18,lo8(1)
 3044 0e1c 00D0      		rcall lcd_put_char
 3045               	.LM345:
 3046 0e1e 1A5F      		subi r17,lo8(-(6))
 3047               	.LVL248:
 3048               	.LM346:
 3049 0e20 812F      		mov r24,r17
 3050 0e22 68E2      		ldi r22,lo8(40)
 3051 0e24 40E0      		ldi r20,lo8(.LC0)
 3052 0e26 50E0      		ldi r21,hi8(.LC0)
 3053 0e28 21E0      		ldi r18,lo8(1)
 3054 0e2a 00D0      		rcall lcd_put_string
 3055               	.LM347:
 3056 0e2c 809F      		mul r24,r16
 3057 0e2e C001      		movw r24,r0
 3058 0e30 1124      		clr r1
 3059 0e32 180F      		add r17,r24
 3060               	.LVL249:
 3061               	.LM348:
 3062 0e34 80E0      		ldi r24,lo8(deg_char)
 3063 0e36 90E0      		ldi r25,hi8(deg_char)
 3064 0e38 612F      		mov r22,r17
 3065 0e3a 48E2      		ldi r20,lo8(40)
 3066 0e3c 25E0      		ldi r18,lo8(5)
 3067 0e3e 03E0      		ldi r16,lo8(3)
 3068 0e40 EE24      		clr r14
 3069 0e42 E394      		inc r14
 3070 0e44 00D0      		rcall lcd_draw
 3071               	.LM349:
 3072 0e46 812F      		mov r24,r17
 3073 0e48 8A5F      		subi r24,lo8(-(6))
 3074 0e4a 68E2      		ldi r22,lo8(40)
 3075 0e4c 43E4      		ldi r20,lo8(67)
 3076 0e4e 21E0      		ldi r18,lo8(1)
 3077 0e50 00D0      		rcall lcd_put_char
 3078               	/* epilogue start */
 3079               	.LM350:
 3080 0e52 0F90      		pop __tmp_reg__
 3081 0e54 0F90      		pop __tmp_reg__
 3082 0e56 0F90      		pop __tmp_reg__
 3083 0e58 0F90      		pop __tmp_reg__
 3084 0e5a 0F90      		pop __tmp_reg__
 3085 0e5c CF91      		pop r28
 3086 0e5e DF91      		pop r29
 3087 0e60 1F91      		pop r17
 3088               	.LVL250:
 3089 0e62 0F91      		pop r16
 3090 0e64 EF90      		pop r14
 3091 0e66 0895      		ret
 3092               	.LFE56:
 3094               	.global	print_hook
 3096               	print_hook:
 3097               	.LFB50:
 3098               	.LM351:
 3099               	.LVL251:
 3100 0e68 DF92      		push r13
 3101 0e6a EF92      		push r14
 3102 0e6c FF92      		push r15
 3103 0e6e 0F93      		push r16
 3104 0e70 1F93      		push r17
 3105 0e72 DF93      		push r29
 3106 0e74 CF93      		push r28
 3107 0e76 00D0      		rcall .
 3108 0e78 00D0      		rcall .
 3109 0e7a 0F92      		push __tmp_reg__
 3110 0e7c CDB7      		in r28,__SP_L__
 3111 0e7e DEB7      		in r29,__SP_H__
 3112               	/* prologue: function */
 3113               	/* frame size = 5 */
 3114               	.LM352:
 3115 0e80 AC01      		movw r20,r24
 3116 0e82 4F5F      		subi r20,lo8(-(1))
 3117 0e84 5F4F      		sbci r21,hi8(-(1))
 3118 0e86 9A01      		movw r18,r20
 3119 0e88 63E0      		ldi r22,3
 3120 0e8a 220F      	1:	lsl r18
 3121 0e8c 331F      		rol r19
 3122 0e8e 6A95      		dec r22
 3123 0e90 01F4      		brne 1b
 3124 0e92 240F      		add r18,r20
 3125 0e94 351F      		adc r19,r21
 3126 0e96 33E0      		ldi r19,lo8(3)
 3127 0e98 D32E      		mov r13,r19
 3128               	.LVL252:
 3129 0e9a D20E      		add r13,r18
 3130               	.LM353:
 3131 0e9c 7C01      		movw r14,r24
 3132 0e9e EE0C      		lsl r14
 3133 0ea0 FF1C      		rol r15
 3134 0ea2 EE0C      		lsl r14
 3135 0ea4 FF1C      		rol r15
 3136 0ea6 E80E      		add r14,r24
 3137 0ea8 F91E      		adc r15,r25
 3138 0eaa 80E0      		ldi r24,lo8(hooks)
 3139 0eac 90E0      		ldi r25,hi8(hooks)
 3140               	.LVL253:
 3141 0eae E80E      		add r14,r24
 3142 0eb0 F91E      		adc r15,r25
 3143 0eb2 D701      		movw r26,r14
 3144 0eb4 EC91      		ld r30,X
 3145 0eb6 F0E0      		ldi r31,lo8(0)
 3146 0eb8 EE0F      		lsl r30
 3147 0eba FF1F      		rol r31
 3148 0ebc E050      		subi r30,lo8(-(cmps))
 3149 0ebe F040      		sbci r31,hi8(-(cmps))
 3150 0ec0 4081      		ld r20,Z
 3151 0ec2 5181      		ldd r21,Z+1
 3152 0ec4 81E0      		ldi r24,lo8(1)
 3153 0ec6 6D2D      		mov r22,r13
 3154 0ec8 21E0      		ldi r18,lo8(1)
 3155 0eca 00D0      		rcall lcd_put_string
 3156               	.LM354:
 3157 0ecc F701      		movw r30,r14
 3158 0ece 8181      		ldd r24,Z+1
 3159 0ed0 9281      		ldd r25,Z+2
 3160 0ed2 8E01      		movw r16,r28
 3161 0ed4 0F5F      		subi r16,lo8(-(1))
 3162 0ed6 1F4F      		sbci r17,hi8(-(1))
 3163 0ed8 B801      		movw r22,r16
 3164 0eda 4AE0      		ldi r20,lo8(10)
 3165 0edc 50E0      		ldi r21,hi8(10)
 3166 0ede 00D0      		rcall itoa
 3167               	.LM355:
 3168 0ee0 82E1      		ldi r24,lo8(18)
 3169 0ee2 6D2D      		mov r22,r13
 3170 0ee4 A801      		movw r20,r16
 3171 0ee6 21E0      		ldi r18,lo8(1)
 3172 0ee8 00D0      		rcall lcd_put_string
 3173               	.LM356:
 3174 0eea D701      		movw r26,r14
 3175 0eec 1396      		adiw r26,3
 3176 0eee EC91      		ld r30,X
 3177 0ef0 F0E0      		ldi r31,lo8(0)
 3178 0ef2 EE0F      		lsl r30
 3179 0ef4 FF1F      		rol r31
 3180 0ef6 E050      		subi r30,lo8(-(acts))
 3181 0ef8 F040      		sbci r31,hi8(-(acts))
 3182 0efa 4081      		ld r20,Z
 3183 0efc 5181      		ldd r21,Z+1
 3184 0efe 8AE2      		ldi r24,lo8(42)
 3185 0f00 6D2D      		mov r22,r13
 3186 0f02 21E0      		ldi r18,lo8(1)
 3187 0f04 00D0      		rcall lcd_put_string
 3188               	.LM357:
 3189 0f06 F701      		movw r30,r14
 3190 0f08 8381      		ldd r24,Z+3
 3191 0f0a 8823      		tst r24
 3192 0f0c 01F0      		breq .L244
 3193               	.LM358:
 3194 0f0e E481      		ldd r30,Z+4
 3195 0f10 F0E0      		ldi r31,lo8(0)
 3196 0f12 EE0F      		lsl r30
 3197 0f14 FF1F      		rol r31
 3198 0f16 E050      		subi r30,lo8(-(ports-8))
 3199 0f18 F040      		sbci r31,hi8(-(ports-8))
 3200 0f1a 4081      		ld r20,Z
 3201 0f1c 5181      		ldd r21,Z+1
 3202 0f1e 84E4      		ldi r24,lo8(68)
 3203 0f20 6D2D      		mov r22,r13
 3204 0f22 21E0      		ldi r18,lo8(1)
 3205 0f24 00D0      		rcall lcd_put_string
 3206               	.L244:
 3207               	/* epilogue start */
 3208               	.LM359:
 3209 0f26 0F90      		pop __tmp_reg__
 3210 0f28 0F90      		pop __tmp_reg__
 3211 0f2a 0F90      		pop __tmp_reg__
 3212 0f2c 0F90      		pop __tmp_reg__
 3213 0f2e 0F90      		pop __tmp_reg__
 3214 0f30 CF91      		pop r28
 3215 0f32 DF91      		pop r29
 3216 0f34 1F91      		pop r17
 3217 0f36 0F91      		pop r16
 3218 0f38 FF90      		pop r15
 3219 0f3a EF90      		pop r14
 3220 0f3c DF90      		pop r13
 3221               	.LVL254:
 3222 0f3e 0895      		ret
 3223               	.LFE50:
 3225               	.global	lcd_clear
 3227               	lcd_clear:
 3228               	.LFB8:
 3229               	.LM360:
 3230               	/* prologue: function */
 3231               	/* frame size = 0 */
 3232               	.LM361:
 3233 0f40 88EF      		ldi r24,lo8(504)
 3234 0f42 91E0      		ldi r25,hi8(504)
 3235 0f44 E0E0      		ldi r30,lo8(LCD_CACHE)
 3236 0f46 F0E0      		ldi r31,hi8(LCD_CACHE)
 3237 0f48 DF01      		movw r26,r30
 3238 0f4a 9C01      		movw r18,r24
 3239 0f4c 1D92      		st X+,__zero_reg__
 3240 0f4e 2150      		subi r18,1
 3241 0f50 3040      		sbci r19,0
 3242 0f52 01F4      		brne .-8
 3243               	.LM362:
 3244 0f54 1092 0000 		sts (LWM)+1,__zero_reg__
 3245 0f58 1092 0000 		sts LWM,__zero_reg__
 3246               	.LM363:
 3247 0f5c 87EF      		ldi r24,lo8(503)
 3248 0f5e 91E0      		ldi r25,hi8(503)
 3249 0f60 9093 0000 		sts (HWM)+1,r25
 3250 0f64 8093 0000 		sts HWM,r24
 3251               	/* epilogue start */
 3252               	.LM364:
 3253 0f68 0895      		ret
 3254               	.LFE8:
 3256               	.global	lcd_init
 3258               	lcd_init:
 3259               	.LFB10:
 3260               	.LM365:
 3261               	/* prologue: function */
 3262               	/* frame size = 0 */
 3263               	.LM366:
 3264 0f6a C49A      		sbi 56-32,4
 3265               	.LM367:
 3266 0f6c 87B3      		in r24,55-32
 3267 0f6e 8E63      		ori r24,lo8(62)
 3268 0f70 87BB      		out 55-32,r24
 3269               	.LM368:
 3270 0f72 C498      		cbi 56-32,4
 3271               	.LM369:
 3272 0f74 C49A      		sbi 56-32,4
 3273               	.LM370:
 3274 0f76 80E5      		ldi r24,lo8(80)
 3275 0f78 8DB9      		out 45-32,r24
 3276               	.LM371:
 3277 0f7a C29A      		sbi 56-32,2
 3278               	.LM372:
 3279 0f7c 81E2      		ldi r24,lo8(33)
 3280 0f7e 00D0      		rcall lcd_send_cmd
 3281               	.LM373:
 3282 0f80 88EC      		ldi r24,lo8(-56)
 3283 0f82 00D0      		rcall lcd_send_cmd
 3284               	.LM374:
 3285 0f84 86E0      		ldi r24,lo8(6)
 3286 0f86 00D0      		rcall lcd_send_cmd
 3287               	.LM375:
 3288 0f88 83E1      		ldi r24,lo8(19)
 3289 0f8a 00D0      		rcall lcd_send_cmd
 3290               	.LM376:
 3291 0f8c 80E2      		ldi r24,lo8(32)
 3292 0f8e 00D0      		rcall lcd_send_cmd
 3293               	.LM377:
 3294 0f90 8CE0      		ldi r24,lo8(12)
 3295 0f92 00D0      		rcall lcd_send_cmd
 3296               	.LM378:
 3297 0f94 00D0      		rcall lcd_clear
 3298               	.LM379:
 3299 0f96 00D0      		rcall lcd_update
 3300               	/* epilogue start */
 3301               	.LM380:
 3302 0f98 0895      		ret
 3303               	.LFE10:
 3305               		.data
 3306               	.LC1:
 3307 0002 4F6E 6520 		.string	"One moment"
 3307      6D6F 6D65 
 3307      6E74 00
 3308               	.LC2:
 3309 000d 486F 6F6B 		.string	"Hooks"
 3309      7300 
 3310               	.LC3:
 3311 0013 4372 6564 		.string	"Credits"
 3311      6974 7300 
 3312               	.LC4:
 3313 001b 4976 616E 		.string	"Ivanov Vlad"
 3313      6F76 2056 
 3313      6C61 6400 
 3314               	.LC5:
 3315 0027 4B75 7261 		.string	"Kurapov Ivan"
 3315      706F 7620 
 3315      4976 616E 
 3315      00
 3316               	.LC6:
 3317 0034 4954 4D4F 		.string	"ITMO, 2020"
 3317      2C20 3230 
 3317      3230 00
 3318               		.text
 3319               	.global	main
 3321               	main:
 3322               	.LFB48:
 3323               	.LM381:
 3324 0f9a 2F92      		push r2
 3325 0f9c 3F92      		push r3
 3326 0f9e 4F92      		push r4
 3327 0fa0 5F92      		push r5
 3328 0fa2 6F92      		push r6
 3329 0fa4 7F92      		push r7
 3330 0fa6 8F92      		push r8
 3331 0fa8 9F92      		push r9
 3332 0faa AF92      		push r10
 3333 0fac BF92      		push r11
 3334 0fae CF92      		push r12
 3335 0fb0 DF92      		push r13
 3336 0fb2 EF92      		push r14
 3337 0fb4 FF92      		push r15
 3338 0fb6 0F93      		push r16
 3339 0fb8 1F93      		push r17
 3340 0fba DF93      		push r29
 3341 0fbc CF93      		push r28
 3342 0fbe 00D0      		rcall .
 3343 0fc0 0F92      		push __tmp_reg__
 3344 0fc2 CDB7      		in r28,__SP_L__
 3345 0fc4 DEB7      		in r29,__SP_H__
 3346               	/* prologue: function */
 3347               	/* frame size = 3 */
 3348               	.LM382:
 3349 0fc6 00D0      		rcall dt_init
 3350               	.LM383:
 3351 0fc8 00D0      		rcall lcd_init
 3352               	.LBB266:
 3353               	.LBB267:
 3354               	.LM384:
 3355 0fca 14BA      		out 52-32,__zero_reg__
 3356               	.LM385:
 3357 0fcc 80EF      		ldi r24,lo8(-16)
 3358 0fce 81BB      		out 49-32,r24
 3359               	.LBE267:
 3360               	.LBE266:
 3361               	.LBB268:
 3362               	.LBB269:
 3363               	.LM386:
 3364 0fd0 84E0      		ldi r24,lo8(4)
 3365 0fd2 83BF      		out 83-32,r24
 3366               	.LM387:
 3367 0fd4 89B7      		in r24,89-32
 3368 0fd6 8160      		ori r24,lo8(1)
 3369 0fd8 89BF      		out 89-32,r24
 3370               	.LM388:
 3371               	/* #APP */
 3372               	 ;  25 "include/clock.h" 1
 3373 0fda 7894      		sei
 3374               	 ;  0 "" 2
 3375               	/* #NOAPP */
 3376               	.LBE269:
 3377               	.LBE268:
 3378               	.LBB270:
 3379               	.LBB271:
 3380               	.LBB272:
 3381               	.LM389:
 3382 0fdc 84E0      		ldi r24,lo8(4)
 3383 0fde 8093 0000 		sts hooks+4,r24
 3384 0fe2 8093 0000 		sts hooks+9,r24
 3385 0fe6 8093 0000 		sts hooks+14,r24
 3386 0fea 8093 0000 		sts hooks+19,r24
 3387               	.LBE272:
 3388               	.LBE271:
 3389               	.LBE270:
 3390               	.LM390:
 3391 0fee 00D0      		rcall dt_convert
 3392               	.LM391:
 3393 0ff0 00D0      		rcall lcd_clear
 3394               	.LM392:
 3395 0ff2 86E1      		ldi r24,lo8(22)
 3396 0ff4 6CE1      		ldi r22,lo8(28)
 3397 0ff6 4DE3      		ldi r20,lo8(61)
 3398 0ff8 2CE1      		ldi r18,lo8(28)
 3399 0ffa 01E0      		ldi r16,lo8(1)
 3400 0ffc 00D0      		rcall lcd_line
 3401               	.LM393:
 3402 0ffe 86E1      		ldi r24,lo8(22)
 3403 1000 6FE1      		ldi r22,lo8(31)
 3404 1002 4DE3      		ldi r20,lo8(61)
 3405 1004 2FE1      		ldi r18,lo8(31)
 3406 1006 00D0      		rcall lcd_line
 3407               	.LM394:
 3408 1008 86E1      		ldi r24,lo8(22)
 3409 100a 6CE1      		ldi r22,lo8(28)
 3410 100c 46E1      		ldi r20,lo8(22)
 3411 100e 2FE1      		ldi r18,lo8(31)
 3412 1010 00D0      		rcall lcd_line
 3413               	.LM395:
 3414 1012 8DE3      		ldi r24,lo8(61)
 3415 1014 6CE1      		ldi r22,lo8(28)
 3416 1016 4DE3      		ldi r20,lo8(61)
 3417 1018 2FE1      		ldi r18,lo8(31)
 3418 101a 00D0      		rcall lcd_line
 3419               	.LM396:
 3420 101c 8CE0      		ldi r24,lo8(12)
 3421 101e 60E1      		ldi r22,lo8(16)
 3422 1020 40E0      		ldi r20,lo8(.LC1)
 3423 1022 50E0      		ldi r21,hi8(.LC1)
 3424 1024 21E0      		ldi r18,lo8(1)
 3425 1026 00D0      		rcall lcd_put_string
 3426 1028 16E1      		ldi r17,lo8(22)
 3427               	.LBB273:
 3428               	.LBB274:
 3429               	.LBB275:
 3430               	.LBB276:
 3431               	.LBB277:
 3432               	.LM397:
 3433 102a E12C      		mov r14,__zero_reg__
 3434 102c BDE7      		ldi r27,hi8(32000)
 3435 102e FB2E      		mov r15,r27
 3436               	.L250:
 3437               	.LBE277:
 3438               	.LBE276:
 3439               	.LBE275:
 3440               	.LBE274:
 3441               	.LM398:
 3442 1030 812F      		mov r24,r17
 3443 1032 6DE1      		ldi r22,lo8(29)
 3444 1034 412F      		mov r20,r17
 3445 1036 2EE1      		ldi r18,lo8(30)
 3446 1038 01E0      		ldi r16,lo8(1)
 3447 103a 00D0      		rcall lcd_line
 3448               	.LM399:
 3449 103c 00D0      		rcall lcd_update
 3450               	.LBB281:
 3451               	.LBB280:
 3452               	.LBB279:
 3453               	.LBB278:
 3454               	.LM400:
 3455 103e C701      		movw r24,r14
 3456               	.LVL255:
 3457               	/* #APP */
 3458               	 ;  105 "c:/winavr-20100110/lib/gcc/../../avr/include/util/delay_basic.h" 1
 3459 1040 0197      		1: sbiw r24,1
 3460 1042 01F4      		brne 1b
 3461               	 ;  0 "" 2
 3462               	/* #NOAPP */
 3463 1044 1F5F      		subi r17,lo8(-(1))
 3464               	.LBE278:
 3465               	.LBE279:
 3466               	.LBE280:
 3467               	.LBE281:
 3468               	.LM401:
 3469 1046 1E33      		cpi r17,lo8(62)
 3470 1048 01F4      		brne .L250
 3471               	.LVL256:
 3472               	.L415:
 3473               	.LBE273:
 3474               	.LBB282:
 3475               	.LBB283:
 3476               	.LBB284:
 3477               	.LBB285:
 3478               	.LM402:
 3479 104a 80E2      		ldi r24,lo8(20000)
 3480 104c 9EE4      		ldi r25,hi8(20000)
 3481               	.LVL257:
 3482               	/* #APP */
 3483               	 ;  105 "c:/winavr-20100110/lib/gcc/../../avr/include/util/delay_basic.h" 1
 3484 104e 0197      		1: sbiw r24,1
 3485 1050 01F4      		brne 1b
 3486               	 ;  0 "" 2
 3487               	/* #NOAPP */
 3488               	.LBE285:
 3489               	.LBE284:
 3490               	.LBE283:
 3491               	.LBE282:
 3492               	.LM403:
 3493 1052 8091 0000 		lds r24,shown_value
 3494 1056 9091 0000 		lds r25,(shown_value)+1
 3495               	.LVL258:
 3496 105a 00D0      		rcall handle_hooks
 3497               	.LM404:
 3498 105c 8091 0000 		lds r24,conversion
 3499 1060 8823      		tst r24
 3500 1062 01F4      		brne .L251
 3501               	.LM405:
 3502 1064 00D0      		rcall dt_convert
 3503               	.LM406:
 3504 1066 21E0      		ldi r18,lo8(1)
 3505 1068 2093 0000 		sts conversion,r18
 3506               	.LM407:
 3507 106c 8091 0000 		lds r24,__clock__
 3508 1070 8093 0000 		sts conversion_start,r24
 3509 1074 8091 0000 		lds r24,__clock__+1
 3510 1078 8093 0000 		sts conversion_start+1,r24
 3511 107c 8091 0000 		lds r24,__clock__+2
 3512 1080 8093 0000 		sts conversion_start+2,r24
 3513 1084 8091 0000 		lds r24,__clock__+3
 3514 1088 8093 0000 		sts conversion_start+3,r24
 3515 108c 8091 0000 		lds r24,__clock__+4
 3516 1090 8093 0000 		sts conversion_start+4,r24
 3517 1094 8091 0000 		lds r24,__clock__+5
 3518 1098 8093 0000 		sts conversion_start+5,r24
 3519 109c 8091 0000 		lds r24,__clock__+6
 3520 10a0 8093 0000 		sts conversion_start+6,r24
 3521 10a4 8091 0000 		lds r24,__clock__+7
 3522 10a8 8093 0000 		sts conversion_start+7,r24
 3523               	.L251:
 3524               	.LM408:
 3525 10ac 9091 0000 		lds r25,__clock__
 3526 10b0 4091 0000 		lds r20,__clock__+1
 3527 10b4 6091 0000 		lds r22,__clock__+2
 3528 10b8 E091 0000 		lds r30,__clock__+3
 3529 10bc A091 0000 		lds r26,__clock__+4
 3530 10c0 1091 0000 		lds r17,__clock__+5
 3531 10c4 F090 0000 		lds r15,__clock__+6
 3532 10c8 5091 0000 		lds r21,__clock__+7
 3533 10cc 8091 0000 		lds r24,conversion_start
 3534 10d0 2091 0000 		lds r18,conversion_start+1
 3535 10d4 7091 0000 		lds r23,conversion_start+2
 3536 10d8 F091 0000 		lds r31,conversion_start+3
 3537 10dc 0091 0000 		lds r16,conversion_start+4
 3538               	.LVL259:
 3539 10e0 D090 0000 		lds r13,conversion_start+5
 3540 10e4 B090 0000 		lds r11,conversion_start+6
 3541 10e8 A090 0000 		lds r10,conversion_start+7
 3542 10ec C92E      		mov r12,r25
 3543 10ee C81A      		sub r12,r24
 3544 10f0 31E0      		ldi r19,lo8(1)
 3545 10f2 9C15      		cp r25,r12
 3546 10f4 00F0      		brlo .L253
 3547 10f6 30E0      		ldi r19,lo8(0)
 3548               	.L253:
 3549 10f8 842F      		mov r24,r20
 3550 10fa 821B      		sub r24,r18
 3551 10fc 21E0      		ldi r18,lo8(1)
 3552 10fe 4817      		cp r20,r24
 3553 1100 00F0      		brlo .L254
 3554 1102 20E0      		ldi r18,lo8(0)
 3555               	.L254:
 3556 1104 E82E      		mov r14,r24
 3557 1106 E31A      		sub r14,r19
 3558 1108 91E0      		ldi r25,lo8(1)
 3559 110a 8E15      		cp r24,r14
 3560 110c 00F0      		brlo .L255
 3561 110e 90E0      		ldi r25,lo8(0)
 3562               	.L255:
 3563 1110 292B      		or r18,r25
 3564 1112 862F      		mov r24,r22
 3565 1114 871B      		sub r24,r23
 3566 1116 31E0      		ldi r19,lo8(1)
 3567 1118 6817      		cp r22,r24
 3568 111a 00F0      		brlo .L256
 3569 111c 30E0      		ldi r19,lo8(0)
 3570               	.L256:
 3571 111e B82F      		mov r27,r24
 3572 1120 B21B      		sub r27,r18
 3573 1122 91E0      		ldi r25,lo8(1)
 3574 1124 8B17      		cp r24,r27
 3575 1126 00F0      		brlo .L257
 3576 1128 90E0      		ldi r25,lo8(0)
 3577               	.L257:
 3578 112a 392B      		or r19,r25
 3579 112c 8E2F      		mov r24,r30
 3580 112e 8F1B      		sub r24,r31
 3581 1130 21E0      		ldi r18,lo8(1)
 3582 1132 E817      		cp r30,r24
 3583 1134 00F0      		brlo .L258
 3584 1136 20E0      		ldi r18,lo8(0)
 3585               	.L258:
 3586 1138 782F      		mov r23,r24
 3587 113a 731B      		sub r23,r19
 3588 113c 91E0      		ldi r25,lo8(1)
 3589 113e 8717      		cp r24,r23
 3590 1140 00F0      		brlo .L259
 3591 1142 90E0      		ldi r25,lo8(0)
 3592               	.L259:
 3593 1144 292B      		or r18,r25
 3594 1146 8A2F      		mov r24,r26
 3595 1148 801B      		sub r24,r16
 3596 114a 31E0      		ldi r19,lo8(1)
 3597 114c A817      		cp r26,r24
 3598 114e 00F0      		brlo .L260
 3599 1150 30E0      		ldi r19,lo8(0)
 3600               	.L260:
 3601 1152 682F      		mov r22,r24
 3602 1154 621B      		sub r22,r18
 3603 1156 91E0      		ldi r25,lo8(1)
 3604 1158 8617      		cp r24,r22
 3605 115a 00F0      		brlo .L261
 3606 115c 90E0      		ldi r25,lo8(0)
 3607               	.L261:
 3608 115e 392B      		or r19,r25
 3609 1160 812F      		mov r24,r17
 3610 1162 8D19      		sub r24,r13
 3611 1164 21E0      		ldi r18,lo8(1)
 3612 1166 1817      		cp r17,r24
 3613 1168 00F0      		brlo .L262
 3614 116a 20E0      		ldi r18,lo8(0)
 3615               	.L262:
 3616 116c 482F      		mov r20,r24
 3617 116e 431B      		sub r20,r19
 3618 1170 91E0      		ldi r25,lo8(1)
 3619 1172 8417      		cp r24,r20
 3620 1174 00F0      		brlo .L263
 3621 1176 90E0      		ldi r25,lo8(0)
 3622               	.L263:
 3623 1178 292B      		or r18,r25
 3624 117a 8F2D      		mov r24,r15
 3625 117c 8B19      		sub r24,r11
 3626 117e 91E0      		ldi r25,lo8(1)
 3627 1180 F816      		cp r15,r24
 3628 1182 00F0      		brlo .L264
 3629 1184 90E0      		ldi r25,lo8(0)
 3630               	.L264:
 3631 1186 382F      		mov r19,r24
 3632 1188 321B      		sub r19,r18
 3633 118a 21E0      		ldi r18,lo8(1)
 3634 118c 8317      		cp r24,r19
 3635 118e 00F0      		brlo .L265
 3636 1190 20E0      		ldi r18,lo8(0)
 3637               	.L265:
 3638 1192 922B      		or r25,r18
 3639 1194 5A19      		sub r21,r10
 3640 1196 5917      		cp r21,r25
 3641 1198 01F4      		brne .L404
 3642 119a 3323      		tst r19
 3643 119c 01F4      		brne .L404
 3644 119e 4423      		tst r20
 3645 11a0 01F4      		brne .L404
 3646 11a2 6623      		tst r22
 3647 11a4 01F4      		brne .L404
 3648 11a6 7723      		tst r23
 3649 11a8 01F4      		brne .L404
 3650 11aa BB23      		tst r27
 3651 11ac 01F4      		brne .L404
 3652 11ae EE20      		tst r14
 3653 11b0 01F4      		brne .L404
 3654 11b2 64E6      		ldi r22,lo8(100)
 3655 11b4 6C15      		cp r22,r12
 3656 11b6 00F4      		brsh .L252
 3657               	.L404:
 3658               	.LM409:
 3659 11b8 00D0      		rcall dt_read
 3660 11ba 9093 0000 		sts (actual_t)+1,r25
 3661 11be 8093 0000 		sts actual_t,r24
 3662               	.LM410:
 3663 11c2 1092 0000 		sts conversion,__zero_reg__
 3664               	.L252:
 3665               	.LBB286:
 3666               	.LBB287:
 3667               	.LM411:
 3668 11c6 C090 0000 		lds r12,__clock__
 3669 11ca B090 0000 		lds r11,__clock__+1
 3670 11ce A090 0000 		lds r10,__clock__+2
 3671 11d2 9090 0000 		lds r9,__clock__+3
 3672 11d6 8090 0000 		lds r8,__clock__+4
 3673 11da 7090 0000 		lds r7,__clock__+5
 3674 11de 6090 0000 		lds r6,__clock__+6
 3675 11e2 8091 0000 		lds r24,__clock__+7
 3676 11e6 8983      		std Y+1,r24
 3677               	.LBE287:
 3678               	.LBE286:
 3679               	.LM412:
 3680 11e8 E091 0000 		lds r30,usp
 3681 11ec F0E0      		ldi r31,lo8(0)
 3682 11ee A3E0      		ldi r26,3
 3683 11f0 EE0F      	1:	lsl r30
 3684 11f2 FF1F      		rol r31
 3685 11f4 AA95      		dec r26
 3686 11f6 01F4      		brne 1b
 3687 11f8 E050      		subi r30,lo8(-(delays))
 3688 11fa F040      		sbci r31,hi8(-(delays))
 3689 11fc 8081      		ld r24,Z
 3690 11fe 3181      		ldd r19,Z+1
 3691 1200 4281      		ldd r20,Z+2
 3692 1202 5381      		ldd r21,Z+3
 3693 1204 6481      		ldd r22,Z+4
 3694 1206 7581      		ldd r23,Z+5
 3695 1208 A681      		ldd r26,Z+6
 3696 120a E781      		ldd r30,Z+7
 3697 120c FCE9      		ldi r31,lo8(-100)
 3698 120e 2F2E      		mov r2,r31
 3699 1210 280E      		add r2,r24
 3700 1212 91E0      		ldi r25,lo8(1)
 3701 1214 2816      		cp r2,r24
 3702 1216 00F0      		brlo .L268
 3703 1218 90E0      		ldi r25,lo8(0)
 3704               	.L268:
 3705 121a 832F      		mov r24,r19
 3706 121c 8150      		subi r24,lo8(-(-1))
 3707 121e 21E0      		ldi r18,lo8(1)
 3708 1220 8317      		cp r24,r19
 3709 1222 00F0      		brlo .L269
 3710 1224 20E0      		ldi r18,lo8(0)
 3711               	.L269:
 3712 1226 E92E      		mov r14,r25
 3713 1228 E80E      		add r14,r24
 3714 122a 91E0      		ldi r25,lo8(1)
 3715 122c E816      		cp r14,r24
 3716 122e 00F0      		brlo .L270
 3717 1230 90E0      		ldi r25,lo8(0)
 3718               	.L270:
 3719 1232 292B      		or r18,r25
 3720 1234 842F      		mov r24,r20
 3721 1236 8150      		subi r24,lo8(-(-1))
 3722 1238 31E0      		ldi r19,lo8(1)
 3723 123a 8417      		cp r24,r20
 3724 123c 00F0      		brlo .L271
 3725 123e 30E0      		ldi r19,lo8(0)
 3726               	.L271:
 3727 1240 F22E      		mov r15,r18
 3728 1242 F80E      		add r15,r24
 3729 1244 91E0      		ldi r25,lo8(1)
 3730 1246 F816      		cp r15,r24
 3731 1248 00F0      		brlo .L272
 3732 124a 90E0      		ldi r25,lo8(0)
 3733               	.L272:
 3734 124c 392B      		or r19,r25
 3735 124e 852F      		mov r24,r21
 3736 1250 8150      		subi r24,lo8(-(-1))
 3737 1252 21E0      		ldi r18,lo8(1)
 3738 1254 8517      		cp r24,r21
 3739 1256 00F0      		brlo .L273
 3740 1258 20E0      		ldi r18,lo8(0)
 3741               	.L273:
 3742 125a 032F      		mov r16,r19
 3743 125c 080F      		add r16,r24
 3744 125e 91E0      		ldi r25,lo8(1)
 3745 1260 0817      		cp r16,r24
 3746 1262 00F0      		brlo .L274
 3747 1264 90E0      		ldi r25,lo8(0)
 3748               	.L274:
 3749 1266 292B      		or r18,r25
 3750 1268 862F      		mov r24,r22
 3751 126a 8150      		subi r24,lo8(-(-1))
 3752 126c 31E0      		ldi r19,lo8(1)
 3753 126e 8617      		cp r24,r22
 3754 1270 00F0      		brlo .L275
 3755 1272 30E0      		ldi r19,lo8(0)
 3756               	.L275:
 3757 1274 122F      		mov r17,r18
 3758 1276 180F      		add r17,r24
 3759 1278 91E0      		ldi r25,lo8(1)
 3760 127a 1817      		cp r17,r24
 3761 127c 00F0      		brlo .L276
 3762 127e 90E0      		ldi r25,lo8(0)
 3763               	.L276:
 3764 1280 392B      		or r19,r25
 3765 1282 872F      		mov r24,r23
 3766 1284 8150      		subi r24,lo8(-(-1))
 3767 1286 21E0      		ldi r18,lo8(1)
 3768 1288 8717      		cp r24,r23
 3769 128a 00F0      		brlo .L277
 3770 128c 20E0      		ldi r18,lo8(0)
 3771               	.L277:
 3772 128e B32F      		mov r27,r19
 3773 1290 B80F      		add r27,r24
 3774 1292 91E0      		ldi r25,lo8(1)
 3775 1294 B817      		cp r27,r24
 3776 1296 00F0      		brlo .L278
 3777 1298 90E0      		ldi r25,lo8(0)
 3778               	.L278:
 3779 129a 292B      		or r18,r25
 3780 129c 8A2F      		mov r24,r26
 3781 129e 8150      		subi r24,lo8(-(-1))
 3782 12a0 91E0      		ldi r25,lo8(1)
 3783 12a2 8A17      		cp r24,r26
 3784 12a4 00F0      		brlo .L279
 3785 12a6 90E0      		ldi r25,lo8(0)
 3786               	.L279:
 3787 12a8 A22F      		mov r26,r18
 3788 12aa A80F      		add r26,r24
 3789 12ac 21E0      		ldi r18,lo8(1)
 3790 12ae A817      		cp r26,r24
 3791 12b0 00F0      		brlo .L280
 3792 12b2 20E0      		ldi r18,lo8(0)
 3793               	.L280:
 3794 12b4 922B      		or r25,r18
 3795 12b6 7E2F      		mov r23,r30
 3796 12b8 7150      		subi r23,lo8(-(-1))
 3797 12ba 790F      		add r23,r25
 3798 12bc 8091 0000 		lds r24,last_upd
 3799 12c0 2091 0000 		lds r18,last_upd+1
 3800 12c4 3091 0000 		lds r19,last_upd+2
 3801 12c8 4091 0000 		lds r20,last_upd+3
 3802 12cc 5091 0000 		lds r21,last_upd+4
 3803 12d0 D090 0000 		lds r13,last_upd+5
 3804 12d4 5090 0000 		lds r5,last_upd+6
 3805 12d8 3090 0000 		lds r3,last_upd+7
 3806 12dc 4C2C      		mov r4,r12
 3807 12de 481A      		sub r4,r24
 3808 12e0 91E0      		ldi r25,lo8(1)
 3809 12e2 C414      		cp r12,r4
 3810 12e4 00F0      		brlo .L281
 3811 12e6 90E0      		ldi r25,lo8(0)
 3812               	.L281:
 3813 12e8 8B2D      		mov r24,r11
 3814 12ea 821B      		sub r24,r18
 3815 12ec 21E0      		ldi r18,lo8(1)
 3816 12ee B816      		cp r11,r24
 3817 12f0 00F0      		brlo .L282
 3818 12f2 20E0      		ldi r18,lo8(0)
 3819               	.L282:
 3820 12f4 E82F      		mov r30,r24
 3821 12f6 E91B      		sub r30,r25
 3822 12f8 EA83      		std Y+2,r30
 3823 12fa 91E0      		ldi r25,lo8(1)
 3824 12fc 8E17      		cp r24,r30
 3825 12fe 00F0      		brlo .L283
 3826 1300 90E0      		ldi r25,lo8(0)
 3827               	.L283:
 3828 1302 292B      		or r18,r25
 3829 1304 8A2D      		mov r24,r10
 3830 1306 831B      		sub r24,r19
 3831 1308 31E0      		ldi r19,lo8(1)
 3832 130a A816      		cp r10,r24
 3833 130c 00F0      		brlo .L284
 3834 130e 30E0      		ldi r19,lo8(0)
 3835               	.L284:
 3836 1310 F82F      		mov r31,r24
 3837 1312 F21B      		sub r31,r18
 3838 1314 FB83      		std Y+3,r31
 3839 1316 91E0      		ldi r25,lo8(1)
 3840 1318 8F17      		cp r24,r31
 3841 131a 00F0      		brlo .L285
 3842 131c 90E0      		ldi r25,lo8(0)
 3843               	.L285:
 3844 131e 392B      		or r19,r25
 3845 1320 892D      		mov r24,r9
 3846 1322 841B      		sub r24,r20
 3847 1324 21E0      		ldi r18,lo8(1)
 3848 1326 9816      		cp r9,r24
 3849 1328 00F0      		brlo .L286
 3850 132a 20E0      		ldi r18,lo8(0)
 3851               	.L286:
 3852 132c 682F      		mov r22,r24
 3853 132e 631B      		sub r22,r19
 3854 1330 91E0      		ldi r25,lo8(1)
 3855 1332 8617      		cp r24,r22
 3856 1334 00F0      		brlo .L287
 3857 1336 90E0      		ldi r25,lo8(0)
 3858               	.L287:
 3859 1338 292B      		or r18,r25
 3860 133a 882D      		mov r24,r8
 3861 133c 851B      		sub r24,r21
 3862 133e 31E0      		ldi r19,lo8(1)
 3863 1340 8816      		cp r8,r24
 3864 1342 00F0      		brlo .L288
 3865 1344 30E0      		ldi r19,lo8(0)
 3866               	.L288:
 3867 1346 582F      		mov r21,r24
 3868 1348 521B      		sub r21,r18
 3869 134a 91E0      		ldi r25,lo8(1)
 3870 134c 8517      		cp r24,r21
 3871 134e 00F0      		brlo .L289
 3872 1350 90E0      		ldi r25,lo8(0)
 3873               	.L289:
 3874 1352 392B      		or r19,r25
 3875 1354 872D      		mov r24,r7
 3876 1356 8D19      		sub r24,r13
 3877 1358 21E0      		ldi r18,lo8(1)
 3878 135a 7816      		cp r7,r24
 3879 135c 00F0      		brlo .L290
 3880 135e 20E0      		ldi r18,lo8(0)
 3881               	.L290:
 3882 1360 482F      		mov r20,r24
 3883 1362 431B      		sub r20,r19
 3884 1364 91E0      		ldi r25,lo8(1)
 3885 1366 8417      		cp r24,r20
 3886 1368 00F0      		brlo .L291
 3887 136a 90E0      		ldi r25,lo8(0)
 3888               	.L291:
 3889 136c 292B      		or r18,r25
 3890 136e 862D      		mov r24,r6
 3891 1370 8519      		sub r24,r5
 3892 1372 91E0      		ldi r25,lo8(1)
 3893 1374 6816      		cp r6,r24
 3894 1376 00F0      		brlo .L292
 3895 1378 90E0      		ldi r25,lo8(0)
 3896               	.L292:
 3897 137a 382F      		mov r19,r24
 3898 137c 321B      		sub r19,r18
 3899 137e 21E0      		ldi r18,lo8(1)
 3900 1380 8317      		cp r24,r19
 3901 1382 00F0      		brlo .L293
 3902 1384 20E0      		ldi r18,lo8(0)
 3903               	.L293:
 3904 1386 922B      		or r25,r18
 3905 1388 8981      		ldd r24,Y+1
 3906 138a 8319      		sub r24,r3
 3907 138c 891B      		sub r24,r25
 3908 138e 8717      		cp r24,r23
 3909 1390 00F4      		brsh .+2
 3910 1392 00C0      		rjmp .L267
 3911 1394 7817      		cp r23,r24
 3912 1396 01F4      		brne .L405
 3913 1398 3A17      		cp r19,r26
 3914 139a 00F4      		brsh .+2
 3915 139c 00C0      		rjmp .L267
 3916 139e A317      		cp r26,r19
 3917 13a0 01F4      		brne .L405
 3918 13a2 4B17      		cp r20,r27
 3919 13a4 00F0      		brlo .L267
 3920 13a6 B417      		cp r27,r20
 3921 13a8 01F4      		brne .L405
 3922 13aa 5117      		cp r21,r17
 3923 13ac 00F0      		brlo .L267
 3924 13ae 1517      		cp r17,r21
 3925 13b0 01F4      		brne .L405
 3926 13b2 6017      		cp r22,r16
 3927 13b4 00F0      		brlo .L267
 3928 13b6 0617      		cp r16,r22
 3929 13b8 01F4      		brne .L405
 3930 13ba 2B81      		ldd r18,Y+3
 3931 13bc 2F15      		cp r18,r15
 3932 13be 00F0      		brlo .L267
 3933 13c0 F216      		cp r15,r18
 3934 13c2 01F4      		brne .L405
 3935 13c4 6A81      		ldd r22,Y+2
 3936 13c6 6E15      		cp r22,r14
 3937 13c8 00F0      		brlo .L267
 3938 13ca E616      		cp r14,r22
 3939 13cc 01F4      		brne .L405
 3940 13ce 4214      		cp r4,r2
 3941 13d0 00F0      		brlo .L267
 3942               	.L405:
 3943               	.LM413:
 3944 13d2 2091 0000 		lds r18,actual_t
 3945 13d6 3091 0000 		lds r19,(actual_t)+1
 3946 13da 3093 0000 		sts (shown_value)+1,r19
 3947 13de 2093 0000 		sts shown_value,r18
 3948 13e2 E0E0      		ldi r30,lo8(values_for_chart)
 3949 13e4 F0E0      		ldi r31,hi8(values_for_chart)
 3950               	.L295:
 3951               	.LBB288:
 3952               	.LBB289:
 3953               	.LBB290:
 3954               	.LM414:
 3955 13e6 8281      		ldd r24,Z+2
 3956 13e8 9381      		ldd r25,Z+3
 3957 13ea 8193      		st Z+,r24
 3958 13ec 9193      		st Z+,r25
 3959               	.LM415:
 3960 13ee 80E0      		ldi r24,hi8(values_for_chart+112)
 3961 13f0 E030      		cpi r30,lo8(values_for_chart+112)
 3962 13f2 F807      		cpc r31,r24
 3963 13f4 01F4      		brne .L295
 3964               	.LBE290:
 3965               	.LM416:
 3966 13f6 3183      		std Z+1,r19
 3967 13f8 2083      		st Z,r18
 3968               	.LBE289:
 3969               	.LBE288:
 3970               	.LM417:
 3971 13fa C092 0000 		sts last_upd,r12
 3972 13fe B092 0000 		sts last_upd+1,r11
 3973 1402 A092 0000 		sts last_upd+2,r10
 3974 1406 9092 0000 		sts last_upd+3,r9
 3975 140a 8092 0000 		sts last_upd+4,r8
 3976 140e 7092 0000 		sts last_upd+5,r7
 3977 1412 6092 0000 		sts last_upd+6,r6
 3978 1416 9981      		ldd r25,Y+1
 3979 1418 9093 0000 		sts last_upd+7,r25
 3980               	.L267:
 3981               	.LM418:
 3982 141c 00D0      		rcall lcd_clear
 3983               	.LM419:
 3984 141e 9B9B      		sbis 51-32,3
 3985 1420 00C0      		rjmp .L296
 3986 1422 9091 0000 		lds r25,__clock__
 3987 1426 4091 0000 		lds r20,__clock__+1
 3988 142a 6091 0000 		lds r22,__clock__+2
 3989 142e E091 0000 		lds r30,__clock__+3
 3990 1432 A091 0000 		lds r26,__clock__+4
 3991 1436 1091 0000 		lds r17,__clock__+5
 3992 143a F090 0000 		lds r15,__clock__+6
 3993 143e 5091 0000 		lds r21,__clock__+7
 3994 1442 8091 0000 		lds r24,debounce_d
 3995 1446 2091 0000 		lds r18,debounce_d+1
 3996 144a 7091 0000 		lds r23,debounce_d+2
 3997 144e F091 0000 		lds r31,debounce_d+3
 3998 1452 0091 0000 		lds r16,debounce_d+4
 3999 1456 D090 0000 		lds r13,debounce_d+5
 4000 145a B090 0000 		lds r11,debounce_d+6
 4001 145e A090 0000 		lds r10,debounce_d+7
 4002 1462 C92E      		mov r12,r25
 4003 1464 C81A      		sub r12,r24
 4004 1466 31E0      		ldi r19,lo8(1)
 4005 1468 9C15      		cp r25,r12
 4006 146a 00F0      		brlo .L297
 4007 146c 30E0      		ldi r19,lo8(0)
 4008               	.L297:
 4009 146e 842F      		mov r24,r20
 4010 1470 821B      		sub r24,r18
 4011 1472 21E0      		ldi r18,lo8(1)
 4012 1474 4817      		cp r20,r24
 4013 1476 00F0      		brlo .L298
 4014 1478 20E0      		ldi r18,lo8(0)
 4015               	.L298:
 4016 147a E82E      		mov r14,r24
 4017 147c E31A      		sub r14,r19
 4018 147e 91E0      		ldi r25,lo8(1)
 4019 1480 8E15      		cp r24,r14
 4020 1482 00F0      		brlo .L299
 4021 1484 90E0      		ldi r25,lo8(0)
 4022               	.L299:
 4023 1486 292B      		or r18,r25
 4024 1488 862F      		mov r24,r22
 4025 148a 871B      		sub r24,r23
 4026 148c 31E0      		ldi r19,lo8(1)
 4027 148e 6817      		cp r22,r24
 4028 1490 00F0      		brlo .L300
 4029 1492 30E0      		ldi r19,lo8(0)
 4030               	.L300:
 4031 1494 B82F      		mov r27,r24
 4032 1496 B21B      		sub r27,r18
 4033 1498 91E0      		ldi r25,lo8(1)
 4034 149a 8B17      		cp r24,r27
 4035 149c 00F0      		brlo .L301
 4036 149e 90E0      		ldi r25,lo8(0)
 4037               	.L301:
 4038 14a0 392B      		or r19,r25
 4039 14a2 8E2F      		mov r24,r30
 4040 14a4 8F1B      		sub r24,r31
 4041 14a6 21E0      		ldi r18,lo8(1)
 4042 14a8 E817      		cp r30,r24
 4043 14aa 00F0      		brlo .L302
 4044 14ac 20E0      		ldi r18,lo8(0)
 4045               	.L302:
 4046 14ae 782F      		mov r23,r24
 4047 14b0 731B      		sub r23,r19
 4048 14b2 91E0      		ldi r25,lo8(1)
 4049 14b4 8717      		cp r24,r23
 4050 14b6 00F0      		brlo .L303
 4051 14b8 90E0      		ldi r25,lo8(0)
 4052               	.L303:
 4053 14ba 292B      		or r18,r25
 4054 14bc 8A2F      		mov r24,r26
 4055 14be 801B      		sub r24,r16
 4056 14c0 31E0      		ldi r19,lo8(1)
 4057 14c2 A817      		cp r26,r24
 4058 14c4 00F0      		brlo .L304
 4059 14c6 30E0      		ldi r19,lo8(0)
 4060               	.L304:
 4061 14c8 682F      		mov r22,r24
 4062 14ca 621B      		sub r22,r18
 4063 14cc 91E0      		ldi r25,lo8(1)
 4064 14ce 8617      		cp r24,r22
 4065 14d0 00F0      		brlo .L305
 4066 14d2 90E0      		ldi r25,lo8(0)
 4067               	.L305:
 4068 14d4 392B      		or r19,r25
 4069 14d6 812F      		mov r24,r17
 4070 14d8 8D19      		sub r24,r13
 4071 14da 21E0      		ldi r18,lo8(1)
 4072 14dc 1817      		cp r17,r24
 4073 14de 00F0      		brlo .L306
 4074 14e0 20E0      		ldi r18,lo8(0)
 4075               	.L306:
 4076 14e2 482F      		mov r20,r24
 4077 14e4 431B      		sub r20,r19
 4078 14e6 91E0      		ldi r25,lo8(1)
 4079 14e8 8417      		cp r24,r20
 4080 14ea 00F0      		brlo .L307
 4081 14ec 90E0      		ldi r25,lo8(0)
 4082               	.L307:
 4083 14ee 292B      		or r18,r25
 4084 14f0 8F2D      		mov r24,r15
 4085 14f2 8B19      		sub r24,r11
 4086 14f4 91E0      		ldi r25,lo8(1)
 4087 14f6 F816      		cp r15,r24
 4088 14f8 00F0      		brlo .L308
 4089 14fa 90E0      		ldi r25,lo8(0)
 4090               	.L308:
 4091 14fc 382F      		mov r19,r24
 4092 14fe 321B      		sub r19,r18
 4093 1500 21E0      		ldi r18,lo8(1)
 4094 1502 8317      		cp r24,r19
 4095 1504 00F0      		brlo .L309
 4096 1506 20E0      		ldi r18,lo8(0)
 4097               	.L309:
 4098 1508 922B      		or r25,r18
 4099 150a 5A19      		sub r21,r10
 4100 150c 5917      		cp r21,r25
 4101 150e 01F4      		brne .L406
 4102 1510 3323      		tst r19
 4103 1512 01F4      		brne .L406
 4104 1514 4423      		tst r20
 4105 1516 01F4      		brne .L406
 4106 1518 6623      		tst r22
 4107 151a 01F4      		brne .L406
 4108 151c 7723      		tst r23
 4109 151e 01F4      		brne .L406
 4110 1520 BB23      		tst r27
 4111 1522 01F4      		brne .L406
 4112 1524 EE20      		tst r14
 4113 1526 01F4      		brne .L406
 4114 1528 EAEF      		ldi r30,lo8(-6)
 4115 152a EC15      		cp r30,r12
 4116 152c 00F4      		brsh .L296
 4117               	.L406:
 4118               	.LM420:
 4119 152e 00D0      		rcall change_view_mode
 4120               	.LM421:
 4121 1530 8091 0000 		lds r24,__clock__
 4122 1534 8093 0000 		sts debounce_d,r24
 4123 1538 8091 0000 		lds r24,__clock__+1
 4124 153c 8093 0000 		sts debounce_d+1,r24
 4125 1540 8091 0000 		lds r24,__clock__+2
 4126 1544 8093 0000 		sts debounce_d+2,r24
 4127 1548 8091 0000 		lds r24,__clock__+3
 4128 154c 8093 0000 		sts debounce_d+3,r24
 4129 1550 8091 0000 		lds r24,__clock__+4
 4130 1554 8093 0000 		sts debounce_d+4,r24
 4131 1558 8091 0000 		lds r24,__clock__+5
 4132 155c 8093 0000 		sts debounce_d+5,r24
 4133 1560 8091 0000 		lds r24,__clock__+6
 4134 1564 8093 0000 		sts debounce_d+6,r24
 4135 1568 8091 0000 		lds r24,__clock__+7
 4136 156c 8093 0000 		sts debounce_d+7,r24
 4137               	.L296:
 4138               	.LM422:
 4139 1570 8091 0000 		lds r24,vm
 4140 1574 8823      		tst r24
 4141 1576 01F0      		breq .+2
 4142 1578 00C0      		rjmp .L311
 4143               	.LM423:
 4144 157a 989B      		sbis 51-32,0
 4145 157c 00C0      		rjmp .L312
 4146 157e 9091 0000 		lds r25,__clock__
 4147 1582 4091 0000 		lds r20,__clock__+1
 4148 1586 6091 0000 		lds r22,__clock__+2
 4149 158a E091 0000 		lds r30,__clock__+3
 4150 158e A091 0000 		lds r26,__clock__+4
 4151 1592 1091 0000 		lds r17,__clock__+5
 4152 1596 F090 0000 		lds r15,__clock__+6
 4153 159a 5091 0000 		lds r21,__clock__+7
 4154 159e 8091 0000 		lds r24,debounce_a
 4155 15a2 2091 0000 		lds r18,debounce_a+1
 4156 15a6 7091 0000 		lds r23,debounce_a+2
 4157 15aa F091 0000 		lds r31,debounce_a+3
 4158 15ae 0091 0000 		lds r16,debounce_a+4
 4159 15b2 D090 0000 		lds r13,debounce_a+5
 4160 15b6 B090 0000 		lds r11,debounce_a+6
 4161 15ba A090 0000 		lds r10,debounce_a+7
 4162 15be C92E      		mov r12,r25
 4163 15c0 C81A      		sub r12,r24
 4164 15c2 31E0      		ldi r19,lo8(1)
 4165 15c4 9C15      		cp r25,r12
 4166 15c6 00F0      		brlo .L313
 4167 15c8 30E0      		ldi r19,lo8(0)
 4168               	.L313:
 4169 15ca 842F      		mov r24,r20
 4170 15cc 821B      		sub r24,r18
 4171 15ce 21E0      		ldi r18,lo8(1)
 4172 15d0 4817      		cp r20,r24
 4173 15d2 00F0      		brlo .L314
 4174 15d4 20E0      		ldi r18,lo8(0)
 4175               	.L314:
 4176 15d6 E82E      		mov r14,r24
 4177 15d8 E31A      		sub r14,r19
 4178 15da 91E0      		ldi r25,lo8(1)
 4179 15dc 8E15      		cp r24,r14
 4180 15de 00F0      		brlo .L315
 4181 15e0 90E0      		ldi r25,lo8(0)
 4182               	.L315:
 4183 15e2 292B      		or r18,r25
 4184 15e4 862F      		mov r24,r22
 4185 15e6 871B      		sub r24,r23
 4186 15e8 31E0      		ldi r19,lo8(1)
 4187 15ea 6817      		cp r22,r24
 4188 15ec 00F0      		brlo .L316
 4189 15ee 30E0      		ldi r19,lo8(0)
 4190               	.L316:
 4191 15f0 B82F      		mov r27,r24
 4192 15f2 B21B      		sub r27,r18
 4193 15f4 91E0      		ldi r25,lo8(1)
 4194 15f6 8B17      		cp r24,r27
 4195 15f8 00F0      		brlo .L317
 4196 15fa 90E0      		ldi r25,lo8(0)
 4197               	.L317:
 4198 15fc 392B      		or r19,r25
 4199 15fe 8E2F      		mov r24,r30
 4200 1600 8F1B      		sub r24,r31
 4201 1602 21E0      		ldi r18,lo8(1)
 4202 1604 E817      		cp r30,r24
 4203 1606 00F0      		brlo .L318
 4204 1608 20E0      		ldi r18,lo8(0)
 4205               	.L318:
 4206 160a 782F      		mov r23,r24
 4207 160c 731B      		sub r23,r19
 4208 160e 91E0      		ldi r25,lo8(1)
 4209 1610 8717      		cp r24,r23
 4210 1612 00F0      		brlo .L319
 4211 1614 90E0      		ldi r25,lo8(0)
 4212               	.L319:
 4213 1616 292B      		or r18,r25
 4214 1618 8A2F      		mov r24,r26
 4215 161a 801B      		sub r24,r16
 4216 161c 31E0      		ldi r19,lo8(1)
 4217 161e A817      		cp r26,r24
 4218 1620 00F0      		brlo .L320
 4219 1622 30E0      		ldi r19,lo8(0)
 4220               	.L320:
 4221 1624 682F      		mov r22,r24
 4222 1626 621B      		sub r22,r18
 4223 1628 91E0      		ldi r25,lo8(1)
 4224 162a 8617      		cp r24,r22
 4225 162c 00F0      		brlo .L321
 4226 162e 90E0      		ldi r25,lo8(0)
 4227               	.L321:
 4228 1630 392B      		or r19,r25
 4229 1632 812F      		mov r24,r17
 4230 1634 8D19      		sub r24,r13
 4231 1636 21E0      		ldi r18,lo8(1)
 4232 1638 1817      		cp r17,r24
 4233 163a 00F0      		brlo .L322
 4234 163c 20E0      		ldi r18,lo8(0)
 4235               	.L322:
 4236 163e 482F      		mov r20,r24
 4237 1640 431B      		sub r20,r19
 4238 1642 91E0      		ldi r25,lo8(1)
 4239 1644 8417      		cp r24,r20
 4240 1646 00F0      		brlo .L323
 4241 1648 90E0      		ldi r25,lo8(0)
 4242               	.L323:
 4243 164a 292B      		or r18,r25
 4244 164c 8F2D      		mov r24,r15
 4245 164e 8B19      		sub r24,r11
 4246 1650 91E0      		ldi r25,lo8(1)
 4247 1652 F816      		cp r15,r24
 4248 1654 00F0      		brlo .L324
 4249 1656 90E0      		ldi r25,lo8(0)
 4250               	.L324:
 4251 1658 382F      		mov r19,r24
 4252 165a 321B      		sub r19,r18
 4253 165c 21E0      		ldi r18,lo8(1)
 4254 165e 8317      		cp r24,r19
 4255 1660 00F0      		brlo .L325
 4256 1662 20E0      		ldi r18,lo8(0)
 4257               	.L325:
 4258 1664 922B      		or r25,r18
 4259 1666 5A19      		sub r21,r10
 4260 1668 5917      		cp r21,r25
 4261 166a 01F4      		brne .L407
 4262 166c 3323      		tst r19
 4263 166e 01F4      		brne .L407
 4264 1670 4423      		tst r20
 4265 1672 01F4      		brne .L407
 4266 1674 6623      		tst r22
 4267 1676 01F4      		brne .L407
 4268 1678 7723      		tst r23
 4269 167a 01F4      		brne .L407
 4270 167c BB23      		tst r27
 4271 167e 01F4      		brne .L407
 4272 1680 EE20      		tst r14
 4273 1682 01F4      		brne .L407
 4274 1684 FAEF      		ldi r31,lo8(-6)
 4275 1686 FC15      		cp r31,r12
 4276 1688 00F4      		brsh .L312
 4277               	.L407:
 4278               	.LM424:
 4279 168a 00D0      		rcall change_upd_speed
 4280               	.LM425:
 4281 168c 8091 0000 		lds r24,__clock__
 4282 1690 8093 0000 		sts debounce_a,r24
 4283 1694 8091 0000 		lds r24,__clock__+1
 4284 1698 8093 0000 		sts debounce_a+1,r24
 4285 169c 8091 0000 		lds r24,__clock__+2
 4286 16a0 8093 0000 		sts debounce_a+2,r24
 4287 16a4 8091 0000 		lds r24,__clock__+3
 4288 16a8 8093 0000 		sts debounce_a+3,r24
 4289 16ac 8091 0000 		lds r24,__clock__+4
 4290 16b0 8093 0000 		sts debounce_a+4,r24
 4291 16b4 8091 0000 		lds r24,__clock__+5
 4292 16b8 8093 0000 		sts debounce_a+5,r24
 4293 16bc 8091 0000 		lds r24,__clock__+6
 4294 16c0 8093 0000 		sts debounce_a+6,r24
 4295 16c4 8091 0000 		lds r24,__clock__+7
 4296 16c8 8093 0000 		sts debounce_a+7,r24
 4297               	.L312:
 4298               	.LM426:
 4299 16cc 999B      		sbis 51-32,1
 4300 16ce 00C0      		rjmp .L327
 4301 16d0 9091 0000 		lds r25,__clock__
 4302 16d4 4091 0000 		lds r20,__clock__+1
 4303 16d8 6091 0000 		lds r22,__clock__+2
 4304 16dc E091 0000 		lds r30,__clock__+3
 4305 16e0 A091 0000 		lds r26,__clock__+4
 4306 16e4 1091 0000 		lds r17,__clock__+5
 4307 16e8 F090 0000 		lds r15,__clock__+6
 4308 16ec 5091 0000 		lds r21,__clock__+7
 4309 16f0 8091 0000 		lds r24,debounce_b
 4310 16f4 2091 0000 		lds r18,debounce_b+1
 4311 16f8 7091 0000 		lds r23,debounce_b+2
 4312 16fc F091 0000 		lds r31,debounce_b+3
 4313 1700 0091 0000 		lds r16,debounce_b+4
 4314 1704 D090 0000 		lds r13,debounce_b+5
 4315 1708 B090 0000 		lds r11,debounce_b+6
 4316 170c A090 0000 		lds r10,debounce_b+7
 4317 1710 C92E      		mov r12,r25
 4318 1712 C81A      		sub r12,r24
 4319 1714 31E0      		ldi r19,lo8(1)
 4320 1716 9C15      		cp r25,r12
 4321 1718 00F0      		brlo .L328
 4322 171a 30E0      		ldi r19,lo8(0)
 4323               	.L328:
 4324 171c 842F      		mov r24,r20
 4325 171e 821B      		sub r24,r18
 4326 1720 21E0      		ldi r18,lo8(1)
 4327 1722 4817      		cp r20,r24
 4328 1724 00F0      		brlo .L329
 4329 1726 20E0      		ldi r18,lo8(0)
 4330               	.L329:
 4331 1728 E82E      		mov r14,r24
 4332 172a E31A      		sub r14,r19
 4333 172c 91E0      		ldi r25,lo8(1)
 4334 172e 8E15      		cp r24,r14
 4335 1730 00F0      		brlo .L330
 4336 1732 90E0      		ldi r25,lo8(0)
 4337               	.L330:
 4338 1734 292B      		or r18,r25
 4339 1736 862F      		mov r24,r22
 4340 1738 871B      		sub r24,r23
 4341 173a 31E0      		ldi r19,lo8(1)
 4342 173c 6817      		cp r22,r24
 4343 173e 00F0      		brlo .L331
 4344 1740 30E0      		ldi r19,lo8(0)
 4345               	.L331:
 4346 1742 B82F      		mov r27,r24
 4347 1744 B21B      		sub r27,r18
 4348 1746 91E0      		ldi r25,lo8(1)
 4349 1748 8B17      		cp r24,r27
 4350 174a 00F0      		brlo .L332
 4351 174c 90E0      		ldi r25,lo8(0)
 4352               	.L332:
 4353 174e 392B      		or r19,r25
 4354 1750 8E2F      		mov r24,r30
 4355 1752 8F1B      		sub r24,r31
 4356 1754 21E0      		ldi r18,lo8(1)
 4357 1756 E817      		cp r30,r24
 4358 1758 00F0      		brlo .L333
 4359 175a 20E0      		ldi r18,lo8(0)
 4360               	.L333:
 4361 175c 782F      		mov r23,r24
 4362 175e 731B      		sub r23,r19
 4363 1760 91E0      		ldi r25,lo8(1)
 4364 1762 8717      		cp r24,r23
 4365 1764 00F0      		brlo .L334
 4366 1766 90E0      		ldi r25,lo8(0)
 4367               	.L334:
 4368 1768 292B      		or r18,r25
 4369 176a 8A2F      		mov r24,r26
 4370 176c 801B      		sub r24,r16
 4371 176e 31E0      		ldi r19,lo8(1)
 4372 1770 A817      		cp r26,r24
 4373 1772 00F0      		brlo .L335
 4374 1774 30E0      		ldi r19,lo8(0)
 4375               	.L335:
 4376 1776 682F      		mov r22,r24
 4377 1778 621B      		sub r22,r18
 4378 177a 91E0      		ldi r25,lo8(1)
 4379 177c 8617      		cp r24,r22
 4380 177e 00F0      		brlo .L336
 4381 1780 90E0      		ldi r25,lo8(0)
 4382               	.L336:
 4383 1782 392B      		or r19,r25
 4384 1784 812F      		mov r24,r17
 4385 1786 8D19      		sub r24,r13
 4386 1788 21E0      		ldi r18,lo8(1)
 4387 178a 1817      		cp r17,r24
 4388 178c 00F0      		brlo .L337
 4389 178e 20E0      		ldi r18,lo8(0)
 4390               	.L337:
 4391 1790 482F      		mov r20,r24
 4392 1792 431B      		sub r20,r19
 4393 1794 91E0      		ldi r25,lo8(1)
 4394 1796 8417      		cp r24,r20
 4395 1798 00F0      		brlo .L338
 4396 179a 90E0      		ldi r25,lo8(0)
 4397               	.L338:
 4398 179c 292B      		or r18,r25
 4399 179e 8F2D      		mov r24,r15
 4400 17a0 8B19      		sub r24,r11
 4401 17a2 91E0      		ldi r25,lo8(1)
 4402 17a4 F816      		cp r15,r24
 4403 17a6 00F0      		brlo .L339
 4404 17a8 90E0      		ldi r25,lo8(0)
 4405               	.L339:
 4406 17aa 382F      		mov r19,r24
 4407 17ac 321B      		sub r19,r18
 4408 17ae 21E0      		ldi r18,lo8(1)
 4409 17b0 8317      		cp r24,r19
 4410 17b2 00F0      		brlo .L340
 4411 17b4 20E0      		ldi r18,lo8(0)
 4412               	.L340:
 4413 17b6 922B      		or r25,r18
 4414 17b8 5A19      		sub r21,r10
 4415 17ba 5917      		cp r21,r25
 4416 17bc 01F4      		brne .L408
 4417 17be 3323      		tst r19
 4418 17c0 01F4      		brne .L408
 4419 17c2 4423      		tst r20
 4420 17c4 01F4      		brne .L408
 4421 17c6 6623      		tst r22
 4422 17c8 01F4      		brne .L408
 4423 17ca 7723      		tst r23
 4424 17cc 01F4      		brne .L408
 4425 17ce BB23      		tst r27
 4426 17d0 01F4      		brne .L408
 4427 17d2 EE20      		tst r14
 4428 17d4 01F4      		brne .L408
 4429 17d6 2AEF      		ldi r18,lo8(-6)
 4430 17d8 2C15      		cp r18,r12
 4431 17da 00F4      		brsh .L327
 4432               	.L408:
 4433               	.LM427:
 4434 17dc 00D0      		rcall change_line_type
 4435               	.LM428:
 4436 17de 8091 0000 		lds r24,__clock__
 4437 17e2 8093 0000 		sts debounce_b,r24
 4438 17e6 8091 0000 		lds r24,__clock__+1
 4439 17ea 8093 0000 		sts debounce_b+1,r24
 4440 17ee 8091 0000 		lds r24,__clock__+2
 4441 17f2 8093 0000 		sts debounce_b+2,r24
 4442 17f6 8091 0000 		lds r24,__clock__+3
 4443 17fa 8093 0000 		sts debounce_b+3,r24
 4444 17fe 8091 0000 		lds r24,__clock__+4
 4445 1802 8093 0000 		sts debounce_b+4,r24
 4446 1806 8091 0000 		lds r24,__clock__+5
 4447 180a 8093 0000 		sts debounce_b+5,r24
 4448 180e 8091 0000 		lds r24,__clock__+6
 4449 1812 8093 0000 		sts debounce_b+6,r24
 4450 1816 8091 0000 		lds r24,__clock__+7
 4451 181a 8093 0000 		sts debounce_b+7,r24
 4452               	.L327:
 4453               	.LM429:
 4454 181e 00D0      		rcall draw_interface
 4455               	.LM430:
 4456 1820 8091 0000 		lds r24,ltp
 4457 1824 00D0      		rcall draw_values_line
 4458               	.LM431:
 4459 1826 8091 0000 		lds r24,usp
 4460 182a 00D0      		rcall draw_update_speed_indicator
 4461               	.LM432:
 4462 182c 6091 0000 		lds r22,shown_value
 4463 1830 7091 0000 		lds r23,(shown_value)+1
 4464 1834 8091 0000 		lds r24,ltp
 4465 1838 00D0      		rcall draw_bar
 4466               	.LM433:
 4467 183a 8091 0000 		lds r24,shown_value
 4468 183e 9091 0000 		lds r25,(shown_value)+1
 4469 1842 00D0      		rcall draw_current_value
 4470               	.LM434:
 4471 1844 8091 0000 		lds r24,ltp
 4472 1848 00D0      		rcall draw_chart
 4473               	.L311:
 4474               	.LM435:
 4475 184a 8091 0000 		lds r24,vm
 4476 184e 8130      		cpi r24,lo8(1)
 4477 1850 01F0      		breq .+2
 4478 1852 00C0      		rjmp .L342
 4479               	.LM436:
 4480 1854 61E0      		ldi r22,lo8(1)
 4481 1856 40E0      		ldi r20,lo8(.LC2)
 4482 1858 50E0      		ldi r21,hi8(.LC2)
 4483 185a 21E0      		ldi r18,lo8(1)
 4484 185c 00D0      		rcall lcd_put_string
 4485 185e 00E0      		ldi r16,lo8(0)
 4486 1860 10E0      		ldi r17,hi8(0)
 4487               	.LVL260:
 4488               	.L343:
 4489               	.LBB291:
 4490               	.LM437:
 4491 1862 C801      		movw r24,r16
 4492 1864 00D0      		rcall print_hook
 4493               	.LM438:
 4494 1866 0F5F      		subi r16,lo8(-(1))
 4495 1868 1F4F      		sbci r17,hi8(-(1))
 4496 186a 0430      		cpi r16,4
 4497 186c 1105      		cpc r17,__zero_reg__
 4498 186e 01F4      		brne .L343
 4499               	.LBE291:
 4500               	.LM439:
 4501 1870 989B      		sbis 51-32,0
 4502 1872 00C0      		rjmp .L344
 4503               	.LBB292:
 4504               	.LBB293:
 4505               	.LM440:
 4506 1874 7091 0000 		lds r23,__clock__
 4507 1878 A091 0000 		lds r26,__clock__+1
 4508 187c B091 0000 		lds r27,__clock__+2
 4509 1880 1091 0000 		lds r17,__clock__+3
 4510 1884 0091 0000 		lds r16,__clock__+4
 4511               	.LVL261:
 4512 1888 F090 0000 		lds r15,__clock__+5
 4513 188c E090 0000 		lds r14,__clock__+6
 4514 1890 9090 0000 		lds r9,__clock__+7
 4515               	.LBE293:
 4516               	.LBE292:
 4517               	.LM441:
 4518 1894 8091 0000 		lds r24,debounce_a
 4519 1898 2091 0000 		lds r18,debounce_a+1
 4520 189c 3091 0000 		lds r19,debounce_a+2
 4521 18a0 4091 0000 		lds r20,debounce_a+3
 4522 18a4 5091 0000 		lds r21,debounce_a+4
 4523 18a8 D090 0000 		lds r13,debounce_a+5
 4524 18ac B090 0000 		lds r11,debounce_a+6
 4525 18b0 A090 0000 		lds r10,debounce_a+7
 4526 18b4 C72E      		mov r12,r23
 4527 18b6 C81A      		sub r12,r24
 4528 18b8 91E0      		ldi r25,lo8(1)
 4529 18ba 7C15      		cp r23,r12
 4530 18bc 00F0      		brlo .L345
 4531 18be 90E0      		ldi r25,lo8(0)
 4532               	.L345:
 4533 18c0 8A2F      		mov r24,r26
 4534 18c2 821B      		sub r24,r18
 4535 18c4 21E0      		ldi r18,lo8(1)
 4536 18c6 A817      		cp r26,r24
 4537 18c8 00F0      		brlo .L346
 4538 18ca 20E0      		ldi r18,lo8(0)
 4539               	.L346:
 4540 18cc F82F      		mov r31,r24
 4541 18ce F91B      		sub r31,r25
 4542 18d0 91E0      		ldi r25,lo8(1)
 4543 18d2 8F17      		cp r24,r31
 4544 18d4 00F0      		brlo .L347
 4545 18d6 90E0      		ldi r25,lo8(0)
 4546               	.L347:
 4547 18d8 292B      		or r18,r25
 4548 18da 8B2F      		mov r24,r27
 4549 18dc 831B      		sub r24,r19
 4550 18de 31E0      		ldi r19,lo8(1)
 4551 18e0 B817      		cp r27,r24
 4552 18e2 00F0      		brlo .L348
 4553 18e4 30E0      		ldi r19,lo8(0)
 4554               	.L348:
 4555 18e6 E82F      		mov r30,r24
 4556 18e8 E21B      		sub r30,r18
 4557 18ea 91E0      		ldi r25,lo8(1)
 4558 18ec 8E17      		cp r24,r30
 4559 18ee 00F0      		brlo .L349
 4560 18f0 90E0      		ldi r25,lo8(0)
 4561               	.L349:
 4562 18f2 392B      		or r19,r25
 4563 18f4 812F      		mov r24,r17
 4564 18f6 841B      		sub r24,r20
 4565 18f8 21E0      		ldi r18,lo8(1)
 4566 18fa 1817      		cp r17,r24
 4567 18fc 00F0      		brlo .L350
 4568 18fe 20E0      		ldi r18,lo8(0)
 4569               	.L350:
 4570 1900 682F      		mov r22,r24
 4571 1902 631B      		sub r22,r19
 4572 1904 91E0      		ldi r25,lo8(1)
 4573 1906 8617      		cp r24,r22
 4574 1908 00F0      		brlo .L351
 4575 190a 90E0      		ldi r25,lo8(0)
 4576               	.L351:
 4577 190c 292B      		or r18,r25
 4578 190e 802F      		mov r24,r16
 4579 1910 851B      		sub r24,r21
 4580 1912 31E0      		ldi r19,lo8(1)
 4581 1914 0817      		cp r16,r24
 4582 1916 00F0      		brlo .L352
 4583 1918 30E0      		ldi r19,lo8(0)
 4584               	.L352:
 4585 191a 582F      		mov r21,r24
 4586 191c 521B      		sub r21,r18
 4587 191e 91E0      		ldi r25,lo8(1)
 4588 1920 8517      		cp r24,r21
 4589 1922 00F0      		brlo .L353
 4590 1924 90E0      		ldi r25,lo8(0)
 4591               	.L353:
 4592 1926 392B      		or r19,r25
 4593 1928 8F2D      		mov r24,r15
 4594 192a 8D19      		sub r24,r13
 4595 192c 21E0      		ldi r18,lo8(1)
 4596 192e F816      		cp r15,r24
 4597 1930 00F0      		brlo .L354
 4598 1932 20E0      		ldi r18,lo8(0)
 4599               	.L354:
 4600 1934 482F      		mov r20,r24
 4601 1936 431B      		sub r20,r19
 4602 1938 91E0      		ldi r25,lo8(1)
 4603 193a 8417      		cp r24,r20
 4604 193c 00F0      		brlo .L355
 4605 193e 90E0      		ldi r25,lo8(0)
 4606               	.L355:
 4607 1940 292B      		or r18,r25
 4608 1942 8E2D      		mov r24,r14
 4609 1944 8B19      		sub r24,r11
 4610 1946 91E0      		ldi r25,lo8(1)
 4611 1948 E816      		cp r14,r24
 4612 194a 00F0      		brlo .L356
 4613 194c 90E0      		ldi r25,lo8(0)
 4614               	.L356:
 4615 194e 382F      		mov r19,r24
 4616 1950 321B      		sub r19,r18
 4617 1952 21E0      		ldi r18,lo8(1)
 4618 1954 8317      		cp r24,r19
 4619 1956 00F0      		brlo .L357
 4620 1958 20E0      		ldi r18,lo8(0)
 4621               	.L357:
 4622 195a 922B      		or r25,r18
 4623 195c 892D      		mov r24,r9
 4624 195e 8A19      		sub r24,r10
 4625 1960 8917      		cp r24,r25
 4626 1962 01F4      		brne .L409
 4627 1964 3323      		tst r19
 4628 1966 01F4      		brne .L409
 4629 1968 4423      		tst r20
 4630 196a 01F4      		brne .L409
 4631 196c 5523      		tst r21
 4632 196e 01F4      		brne .L409
 4633 1970 6623      		tst r22
 4634 1972 01F4      		brne .L409
 4635 1974 EE23      		tst r30
 4636 1976 01F4      		brne .L409
 4637 1978 FF23      		tst r31
 4638 197a 01F4      		brne .L409
 4639 197c 6AEF      		ldi r22,lo8(-6)
 4640 197e 6C15      		cp r22,r12
 4641 1980 00F0      		brlo .+2
 4642 1982 00C0      		rjmp .L344
 4643               	.L409:
 4644               	.LM442:
 4645 1984 8091 0000 		lds r24,hook_edit_stage
 4646 1988 8823      		tst r24
 4647 198a 01F4      		brne .L359
 4648               	.LM443:
 4649 198c 8091 0000 		lds r24,hook_m_ptr
 4650 1990 8823      		tst r24
 4651 1992 01F0      		breq .L359
 4652 1994 8150      		subi r24,lo8(-(-1))
 4653 1996 8093 0000 		sts hook_m_ptr,r24
 4654               	.L359:
 4655               	.LM444:
 4656 199a 8091 0000 		lds r24,hook_edit_stage
 4657 199e 8130      		cpi r24,lo8(1)
 4658 19a0 01F4      		brne .L360
 4659               	.LM445:
 4660 19a2 8091 0000 		lds r24,hook_m_ptr
 4661 19a6 90E0      		ldi r25,lo8(0)
 4662 19a8 FC01      		movw r30,r24
 4663 19aa EE0F      		lsl r30
 4664 19ac FF1F      		rol r31
 4665 19ae EE0F      		lsl r30
 4666 19b0 FF1F      		rol r31
 4667 19b2 E80F      		add r30,r24
 4668 19b4 F91F      		adc r31,r25
 4669 19b6 E050      		subi r30,lo8(-(hooks))
 4670 19b8 F040      		sbci r31,hi8(-(hooks))
 4671 19ba 8081      		ld r24,Z
 4672 19bc 8430      		cpi r24,lo8(4)
 4673 19be 00F4      		brsh .L360
 4674 19c0 8F5F      		subi r24,lo8(-(1))
 4675 19c2 8083      		st Z,r24
 4676               	.L360:
 4677               	.LM446:
 4678 19c4 8091 0000 		lds r24,hook_edit_stage
 4679 19c8 8230      		cpi r24,lo8(2)
 4680 19ca 01F4      		brne .L361
 4681               	.LM447:
 4682 19cc 8091 0000 		lds r24,hook_m_ptr
 4683 19d0 90E0      		ldi r25,lo8(0)
 4684 19d2 FC01      		movw r30,r24
 4685 19d4 EE0F      		lsl r30
 4686 19d6 FF1F      		rol r31
 4687 19d8 EE0F      		lsl r30
 4688 19da FF1F      		rol r31
 4689 19dc E80F      		add r30,r24
 4690 19de F91F      		adc r31,r25
 4691 19e0 E050      		subi r30,lo8(-(hooks))
 4692 19e2 F040      		sbci r31,hi8(-(hooks))
 4693 19e4 8181      		ldd r24,Z+1
 4694 19e6 9281      		ldd r25,Z+2
 4695 19e8 8336      		cpi r24,99
 4696 19ea 9105      		cpc r25,__zero_reg__
 4697 19ec 04F4      		brge .L361
 4698 19ee 0196      		adiw r24,1
 4699 19f0 9283      		std Z+2,r25
 4700 19f2 8183      		std Z+1,r24
 4701               	.L361:
 4702               	.LM448:
 4703 19f4 8091 0000 		lds r24,hook_edit_stage
 4704 19f8 8330      		cpi r24,lo8(3)
 4705 19fa 01F4      		brne .L362
 4706               	.LM449:
 4707 19fc 8091 0000 		lds r24,hook_m_ptr
 4708 1a00 90E0      		ldi r25,lo8(0)
 4709 1a02 FC01      		movw r30,r24
 4710 1a04 EE0F      		lsl r30
 4711 1a06 FF1F      		rol r31
 4712 1a08 EE0F      		lsl r30
 4713 1a0a FF1F      		rol r31
 4714 1a0c E80F      		add r30,r24
 4715 1a0e F91F      		adc r31,r25
 4716 1a10 E050      		subi r30,lo8(-(hooks))
 4717 1a12 F040      		sbci r31,hi8(-(hooks))
 4718 1a14 8381      		ldd r24,Z+3
 4719 1a16 8230      		cpi r24,lo8(2)
 4720 1a18 00F4      		brsh .L362
 4721 1a1a 8F5F      		subi r24,lo8(-(1))
 4722 1a1c 8383      		std Z+3,r24
 4723               	.L362:
 4724               	.LM450:
 4725 1a1e 8091 0000 		lds r24,hook_edit_stage
 4726 1a22 8430      		cpi r24,lo8(4)
 4727 1a24 01F4      		brne .L363
 4728               	.LM451:
 4729 1a26 8091 0000 		lds r24,hook_m_ptr
 4730 1a2a 90E0      		ldi r25,lo8(0)
 4731 1a2c FC01      		movw r30,r24
 4732 1a2e EE0F      		lsl r30
 4733 1a30 FF1F      		rol r31
 4734 1a32 EE0F      		lsl r30
 4735 1a34 FF1F      		rol r31
 4736 1a36 E80F      		add r30,r24
 4737 1a38 F91F      		adc r31,r25
 4738 1a3a E050      		subi r30,lo8(-(hooks))
 4739 1a3c F040      		sbci r31,hi8(-(hooks))
 4740 1a3e 8481      		ldd r24,Z+4
 4741 1a40 8730      		cpi r24,lo8(7)
 4742 1a42 00F4      		brsh .L363
 4743 1a44 8F5F      		subi r24,lo8(-(1))
 4744 1a46 8483      		std Z+4,r24
 4745               	.L363:
 4746               	.LM452:
 4747 1a48 7093 0000 		sts debounce_a,r23
 4748 1a4c A093 0000 		sts debounce_a+1,r26
 4749 1a50 B093 0000 		sts debounce_a+2,r27
 4750 1a54 1093 0000 		sts debounce_a+3,r17
 4751 1a58 0093 0000 		sts debounce_a+4,r16
 4752 1a5c F092 0000 		sts debounce_a+5,r15
 4753 1a60 E092 0000 		sts debounce_a+6,r14
 4754 1a64 9092 0000 		sts debounce_a+7,r9
 4755               	.LVL262:
 4756               	.L344:
 4757               	.LM453:
 4758 1a68 999B      		sbis 51-32,1
 4759 1a6a 00C0      		rjmp .L364
 4760               	.LBB294:
 4761               	.LBB295:
 4762               	.LM454:
 4763 1a6c 7091 0000 		lds r23,__clock__
 4764 1a70 A091 0000 		lds r26,__clock__+1
 4765 1a74 B091 0000 		lds r27,__clock__+2
 4766 1a78 1091 0000 		lds r17,__clock__+3
 4767 1a7c 0091 0000 		lds r16,__clock__+4
 4768               	.LVL263:
 4769 1a80 F090 0000 		lds r15,__clock__+5
 4770 1a84 E090 0000 		lds r14,__clock__+6
 4771 1a88 9090 0000 		lds r9,__clock__+7
 4772               	.LBE295:
 4773               	.LBE294:
 4774               	.LM455:
 4775 1a8c 8091 0000 		lds r24,debounce_b
 4776 1a90 2091 0000 		lds r18,debounce_b+1
 4777 1a94 3091 0000 		lds r19,debounce_b+2
 4778 1a98 4091 0000 		lds r20,debounce_b+3
 4779 1a9c 5091 0000 		lds r21,debounce_b+4
 4780 1aa0 D090 0000 		lds r13,debounce_b+5
 4781 1aa4 B090 0000 		lds r11,debounce_b+6
 4782 1aa8 A090 0000 		lds r10,debounce_b+7
 4783 1aac C72E      		mov r12,r23
 4784 1aae C81A      		sub r12,r24
 4785 1ab0 91E0      		ldi r25,lo8(1)
 4786 1ab2 7C15      		cp r23,r12
 4787 1ab4 00F0      		brlo .L365
 4788 1ab6 90E0      		ldi r25,lo8(0)
 4789               	.L365:
 4790 1ab8 8A2F      		mov r24,r26
 4791 1aba 821B      		sub r24,r18
 4792 1abc 21E0      		ldi r18,lo8(1)
 4793 1abe A817      		cp r26,r24
 4794 1ac0 00F0      		brlo .L366
 4795 1ac2 20E0      		ldi r18,lo8(0)
 4796               	.L366:
 4797 1ac4 F82F      		mov r31,r24
 4798 1ac6 F91B      		sub r31,r25
 4799 1ac8 91E0      		ldi r25,lo8(1)
 4800 1aca 8F17      		cp r24,r31
 4801 1acc 00F0      		brlo .L367
 4802 1ace 90E0      		ldi r25,lo8(0)
 4803               	.L367:
 4804 1ad0 292B      		or r18,r25
 4805 1ad2 8B2F      		mov r24,r27
 4806 1ad4 831B      		sub r24,r19
 4807 1ad6 31E0      		ldi r19,lo8(1)
 4808 1ad8 B817      		cp r27,r24
 4809 1ada 00F0      		brlo .L368
 4810 1adc 30E0      		ldi r19,lo8(0)
 4811               	.L368:
 4812 1ade E82F      		mov r30,r24
 4813 1ae0 E21B      		sub r30,r18
 4814 1ae2 91E0      		ldi r25,lo8(1)
 4815 1ae4 8E17      		cp r24,r30
 4816 1ae6 00F0      		brlo .L369
 4817 1ae8 90E0      		ldi r25,lo8(0)
 4818               	.L369:
 4819 1aea 392B      		or r19,r25
 4820 1aec 812F      		mov r24,r17
 4821 1aee 841B      		sub r24,r20
 4822 1af0 21E0      		ldi r18,lo8(1)
 4823 1af2 1817      		cp r17,r24
 4824 1af4 00F0      		brlo .L370
 4825 1af6 20E0      		ldi r18,lo8(0)
 4826               	.L370:
 4827 1af8 682F      		mov r22,r24
 4828 1afa 631B      		sub r22,r19
 4829 1afc 91E0      		ldi r25,lo8(1)
 4830 1afe 8617      		cp r24,r22
 4831 1b00 00F0      		brlo .L371
 4832 1b02 90E0      		ldi r25,lo8(0)
 4833               	.L371:
 4834 1b04 292B      		or r18,r25
 4835 1b06 802F      		mov r24,r16
 4836 1b08 851B      		sub r24,r21
 4837 1b0a 31E0      		ldi r19,lo8(1)
 4838 1b0c 0817      		cp r16,r24
 4839 1b0e 00F0      		brlo .L372
 4840 1b10 30E0      		ldi r19,lo8(0)
 4841               	.L372:
 4842 1b12 582F      		mov r21,r24
 4843 1b14 521B      		sub r21,r18
 4844 1b16 91E0      		ldi r25,lo8(1)
 4845 1b18 8517      		cp r24,r21
 4846 1b1a 00F0      		brlo .L373
 4847 1b1c 90E0      		ldi r25,lo8(0)
 4848               	.L373:
 4849 1b1e 392B      		or r19,r25
 4850 1b20 8F2D      		mov r24,r15
 4851 1b22 8D19      		sub r24,r13
 4852 1b24 21E0      		ldi r18,lo8(1)
 4853 1b26 F816      		cp r15,r24
 4854 1b28 00F0      		brlo .L374
 4855 1b2a 20E0      		ldi r18,lo8(0)
 4856               	.L374:
 4857 1b2c 482F      		mov r20,r24
 4858 1b2e 431B      		sub r20,r19
 4859 1b30 91E0      		ldi r25,lo8(1)
 4860 1b32 8417      		cp r24,r20
 4861 1b34 00F0      		brlo .L375
 4862 1b36 90E0      		ldi r25,lo8(0)
 4863               	.L375:
 4864 1b38 292B      		or r18,r25
 4865 1b3a 8E2D      		mov r24,r14
 4866 1b3c 8B19      		sub r24,r11
 4867 1b3e 91E0      		ldi r25,lo8(1)
 4868 1b40 E816      		cp r14,r24
 4869 1b42 00F0      		brlo .L376
 4870 1b44 90E0      		ldi r25,lo8(0)
 4871               	.L376:
 4872 1b46 382F      		mov r19,r24
 4873 1b48 321B      		sub r19,r18
 4874 1b4a 21E0      		ldi r18,lo8(1)
 4875 1b4c 8317      		cp r24,r19
 4876 1b4e 00F0      		brlo .L377
 4877 1b50 20E0      		ldi r18,lo8(0)
 4878               	.L377:
 4879 1b52 922B      		or r25,r18
 4880 1b54 892D      		mov r24,r9
 4881 1b56 8A19      		sub r24,r10
 4882 1b58 8917      		cp r24,r25
 4883 1b5a 01F4      		brne .L410
 4884 1b5c 3323      		tst r19
 4885 1b5e 01F4      		brne .L410
 4886 1b60 4423      		tst r20
 4887 1b62 01F4      		brne .L410
 4888 1b64 5523      		tst r21
 4889 1b66 01F4      		brne .L410
 4890 1b68 6623      		tst r22
 4891 1b6a 01F4      		brne .L410
 4892 1b6c EE23      		tst r30
 4893 1b6e 01F4      		brne .L410
 4894 1b70 FF23      		tst r31
 4895 1b72 01F4      		brne .L410
 4896 1b74 8AEF      		ldi r24,lo8(-6)
 4897 1b76 8C15      		cp r24,r12
 4898 1b78 00F0      		brlo .+2
 4899 1b7a 00C0      		rjmp .L364
 4900               	.L410:
 4901               	.LM456:
 4902 1b7c 8091 0000 		lds r24,hook_edit_stage
 4903 1b80 8823      		tst r24
 4904 1b82 01F4      		brne .L379
 4905               	.LM457:
 4906 1b84 8091 0000 		lds r24,hook_m_ptr
 4907 1b88 8330      		cpi r24,lo8(3)
 4908 1b8a 00F4      		brsh .L379
 4909 1b8c 8F5F      		subi r24,lo8(-(1))
 4910 1b8e 8093 0000 		sts hook_m_ptr,r24
 4911               	.L379:
 4912               	.LM458:
 4913 1b92 8091 0000 		lds r24,hook_edit_stage
 4914 1b96 8130      		cpi r24,lo8(1)
 4915 1b98 01F4      		brne .L380
 4916               	.LM459:
 4917 1b9a 8091 0000 		lds r24,hook_m_ptr
 4918 1b9e 90E0      		ldi r25,lo8(0)
 4919 1ba0 FC01      		movw r30,r24
 4920 1ba2 EE0F      		lsl r30
 4921 1ba4 FF1F      		rol r31
 4922 1ba6 EE0F      		lsl r30
 4923 1ba8 FF1F      		rol r31
 4924 1baa E80F      		add r30,r24
 4925 1bac F91F      		adc r31,r25
 4926 1bae E050      		subi r30,lo8(-(hooks))
 4927 1bb0 F040      		sbci r31,hi8(-(hooks))
 4928 1bb2 8081      		ld r24,Z
 4929 1bb4 8823      		tst r24
 4930 1bb6 01F0      		breq .L380
 4931 1bb8 8150      		subi r24,lo8(-(-1))
 4932 1bba 8083      		st Z,r24
 4933               	.L380:
 4934               	.LM460:
 4935 1bbc 8091 0000 		lds r24,hook_edit_stage
 4936 1bc0 8230      		cpi r24,lo8(2)
 4937 1bc2 01F4      		brne .L381
 4938               	.LM461:
 4939 1bc4 8091 0000 		lds r24,hook_m_ptr
 4940 1bc8 90E0      		ldi r25,lo8(0)
 4941 1bca FC01      		movw r30,r24
 4942 1bcc EE0F      		lsl r30
 4943 1bce FF1F      		rol r31
 4944 1bd0 EE0F      		lsl r30
 4945 1bd2 FF1F      		rol r31
 4946 1bd4 E80F      		add r30,r24
 4947 1bd6 F91F      		adc r31,r25
 4948 1bd8 E050      		subi r30,lo8(-(hooks))
 4949 1bda F040      		sbci r31,hi8(-(hooks))
 4950 1bdc 8181      		ldd r24,Z+1
 4951 1bde 9281      		ldd r25,Z+2
 4952 1be0 2FEF      		ldi r18,hi8(-54)
 4953 1be2 8A3C      		cpi r24,lo8(-54)
 4954 1be4 9207      		cpc r25,r18
 4955 1be6 04F0      		brlt .L381
 4956 1be8 0197      		sbiw r24,1
 4957 1bea 9283      		std Z+2,r25
 4958 1bec 8183      		std Z+1,r24
 4959               	.L381:
 4960               	.LM462:
 4961 1bee 8091 0000 		lds r24,hook_edit_stage
 4962 1bf2 8330      		cpi r24,lo8(3)
 4963 1bf4 01F4      		brne .L382
 4964               	.LM463:
 4965 1bf6 8091 0000 		lds r24,hook_m_ptr
 4966 1bfa 90E0      		ldi r25,lo8(0)
 4967 1bfc FC01      		movw r30,r24
 4968 1bfe EE0F      		lsl r30
 4969 1c00 FF1F      		rol r31
 4970 1c02 EE0F      		lsl r30
 4971 1c04 FF1F      		rol r31
 4972 1c06 E80F      		add r30,r24
 4973 1c08 F91F      		adc r31,r25
 4974 1c0a E050      		subi r30,lo8(-(hooks))
 4975 1c0c F040      		sbci r31,hi8(-(hooks))
 4976 1c0e 8381      		ldd r24,Z+3
 4977 1c10 8823      		tst r24
 4978 1c12 01F0      		breq .L382
 4979 1c14 8150      		subi r24,lo8(-(-1))
 4980 1c16 8383      		std Z+3,r24
 4981               	.L382:
 4982               	.LM464:
 4983 1c18 8091 0000 		lds r24,hook_edit_stage
 4984 1c1c 8430      		cpi r24,lo8(4)
 4985 1c1e 01F4      		brne .L383
 4986               	.LM465:
 4987 1c20 8091 0000 		lds r24,hook_m_ptr
 4988 1c24 90E0      		ldi r25,lo8(0)
 4989 1c26 FC01      		movw r30,r24
 4990 1c28 EE0F      		lsl r30
 4991 1c2a FF1F      		rol r31
 4992 1c2c EE0F      		lsl r30
 4993 1c2e FF1F      		rol r31
 4994 1c30 E80F      		add r30,r24
 4995 1c32 F91F      		adc r31,r25
 4996 1c34 E050      		subi r30,lo8(-(hooks))
 4997 1c36 F040      		sbci r31,hi8(-(hooks))
 4998 1c38 8481      		ldd r24,Z+4
 4999 1c3a 8530      		cpi r24,lo8(5)
 5000 1c3c 00F0      		brlo .L383
 5001 1c3e 8150      		subi r24,lo8(-(-1))
 5002 1c40 8483      		std Z+4,r24
 5003               	.L383:
 5004               	.LM466:
 5005 1c42 7093 0000 		sts debounce_b,r23
 5006 1c46 A093 0000 		sts debounce_b+1,r26
 5007 1c4a B093 0000 		sts debounce_b+2,r27
 5008 1c4e 1093 0000 		sts debounce_b+3,r17
 5009 1c52 0093 0000 		sts debounce_b+4,r16
 5010 1c56 F092 0000 		sts debounce_b+5,r15
 5011 1c5a E092 0000 		sts debounce_b+6,r14
 5012 1c5e 9092 0000 		sts debounce_b+7,r9
 5013               	.LVL264:
 5014               	.L364:
 5015               	.LM467:
 5016 1c62 9A9B      		sbis 51-32,2
 5017 1c64 00C0      		rjmp .L384
 5018               	.LBB296:
 5019               	.LBB297:
 5020               	.LM468:
 5021 1c66 6091 0000 		lds r22,__clock__
 5022 1c6a 7091 0000 		lds r23,__clock__+1
 5023 1c6e A091 0000 		lds r26,__clock__+2
 5024 1c72 B091 0000 		lds r27,__clock__+3
 5025 1c76 1091 0000 		lds r17,__clock__+4
 5026 1c7a 0091 0000 		lds r16,__clock__+5
 5027               	.LVL265:
 5028 1c7e F090 0000 		lds r15,__clock__+6
 5029 1c82 9090 0000 		lds r9,__clock__+7
 5030               	.LBE297:
 5031               	.LBE296:
 5032               	.LM469:
 5033 1c86 8091 0000 		lds r24,debounce_c
 5034 1c8a 2091 0000 		lds r18,debounce_c+1
 5035 1c8e 3091 0000 		lds r19,debounce_c+2
 5036 1c92 4091 0000 		lds r20,debounce_c+3
 5037 1c96 5091 0000 		lds r21,debounce_c+4
 5038 1c9a D090 0000 		lds r13,debounce_c+5
 5039 1c9e B090 0000 		lds r11,debounce_c+6
 5040 1ca2 A090 0000 		lds r10,debounce_c+7
 5041 1ca6 C62E      		mov r12,r22
 5042 1ca8 C81A      		sub r12,r24
 5043 1caa 91E0      		ldi r25,lo8(1)
 5044 1cac 6C15      		cp r22,r12
 5045 1cae 00F0      		brlo .L385
 5046 1cb0 90E0      		ldi r25,lo8(0)
 5047               	.L385:
 5048 1cb2 872F      		mov r24,r23
 5049 1cb4 821B      		sub r24,r18
 5050 1cb6 21E0      		ldi r18,lo8(1)
 5051 1cb8 7817      		cp r23,r24
 5052 1cba 00F0      		brlo .L386
 5053 1cbc 20E0      		ldi r18,lo8(0)
 5054               	.L386:
 5055 1cbe E82E      		mov r14,r24
 5056 1cc0 E91A      		sub r14,r25
 5057 1cc2 91E0      		ldi r25,lo8(1)
 5058 1cc4 8E15      		cp r24,r14
 5059 1cc6 00F0      		brlo .L387
 5060 1cc8 90E0      		ldi r25,lo8(0)
 5061               	.L387:
 5062 1cca 292B      		or r18,r25
 5063 1ccc 8A2F      		mov r24,r26
 5064 1cce 831B      		sub r24,r19
 5065 1cd0 31E0      		ldi r19,lo8(1)
 5066 1cd2 A817      		cp r26,r24
 5067 1cd4 00F0      		brlo .L388
 5068 1cd6 30E0      		ldi r19,lo8(0)
 5069               	.L388:
 5070 1cd8 F82F      		mov r31,r24
 5071 1cda F21B      		sub r31,r18
 5072 1cdc 91E0      		ldi r25,lo8(1)
 5073 1cde 8F17      		cp r24,r31
 5074 1ce0 00F0      		brlo .L389
 5075 1ce2 90E0      		ldi r25,lo8(0)
 5076               	.L389:
 5077 1ce4 392B      		or r19,r25
 5078 1ce6 8B2F      		mov r24,r27
 5079 1ce8 841B      		sub r24,r20
 5080 1cea 21E0      		ldi r18,lo8(1)
 5081 1cec B817      		cp r27,r24
 5082 1cee 00F0      		brlo .L390
 5083 1cf0 20E0      		ldi r18,lo8(0)
 5084               	.L390:
 5085 1cf2 E82F      		mov r30,r24
 5086 1cf4 E31B      		sub r30,r19
 5087 1cf6 91E0      		ldi r25,lo8(1)
 5088 1cf8 8E17      		cp r24,r30
 5089 1cfa 00F0      		brlo .L391
 5090 1cfc 90E0      		ldi r25,lo8(0)
 5091               	.L391:
 5092 1cfe 292B      		or r18,r25
 5093 1d00 812F      		mov r24,r17
 5094 1d02 851B      		sub r24,r21
 5095 1d04 31E0      		ldi r19,lo8(1)
 5096 1d06 1817      		cp r17,r24
 5097 1d08 00F0      		brlo .L392
 5098 1d0a 30E0      		ldi r19,lo8(0)
 5099               	.L392:
 5100 1d0c 582F      		mov r21,r24
 5101 1d0e 521B      		sub r21,r18
 5102 1d10 91E0      		ldi r25,lo8(1)
 5103 1d12 8517      		cp r24,r21
 5104 1d14 00F0      		brlo .L393
 5105 1d16 90E0      		ldi r25,lo8(0)
 5106               	.L393:
 5107 1d18 392B      		or r19,r25
 5108 1d1a 802F      		mov r24,r16
 5109 1d1c 8D19      		sub r24,r13
 5110 1d1e 21E0      		ldi r18,lo8(1)
 5111 1d20 0817      		cp r16,r24
 5112 1d22 00F0      		brlo .L394
 5113 1d24 20E0      		ldi r18,lo8(0)
 5114               	.L394:
 5115 1d26 482F      		mov r20,r24
 5116 1d28 431B      		sub r20,r19
 5117 1d2a 91E0      		ldi r25,lo8(1)
 5118 1d2c 8417      		cp r24,r20
 5119 1d2e 00F0      		brlo .L395
 5120 1d30 90E0      		ldi r25,lo8(0)
 5121               	.L395:
 5122 1d32 292B      		or r18,r25
 5123 1d34 8F2D      		mov r24,r15
 5124 1d36 8B19      		sub r24,r11
 5125 1d38 91E0      		ldi r25,lo8(1)
 5126 1d3a F816      		cp r15,r24
 5127 1d3c 00F0      		brlo .L396
 5128 1d3e 90E0      		ldi r25,lo8(0)
 5129               	.L396:
 5130 1d40 382F      		mov r19,r24
 5131 1d42 321B      		sub r19,r18
 5132 1d44 21E0      		ldi r18,lo8(1)
 5133 1d46 8317      		cp r24,r19
 5134 1d48 00F0      		brlo .L397
 5135 1d4a 20E0      		ldi r18,lo8(0)
 5136               	.L397:
 5137 1d4c 922B      		or r25,r18
 5138 1d4e 892D      		mov r24,r9
 5139 1d50 8A19      		sub r24,r10
 5140 1d52 8917      		cp r24,r25
 5141 1d54 01F4      		brne .L411
 5142 1d56 3323      		tst r19
 5143 1d58 01F4      		brne .L411
 5144 1d5a 4423      		tst r20
 5145 1d5c 01F4      		brne .L411
 5146 1d5e 5523      		tst r21
 5147 1d60 01F4      		brne .L411
 5148 1d62 EE23      		tst r30
 5149 1d64 01F4      		brne .L411
 5150 1d66 FF23      		tst r31
 5151 1d68 01F4      		brne .L411
 5152 1d6a EE20      		tst r14
 5153 1d6c 01F4      		brne .L411
 5154 1d6e 8AEF      		ldi r24,lo8(-6)
 5155 1d70 8C15      		cp r24,r12
 5156 1d72 00F4      		brsh .L384
 5157               	.L411:
 5158               	.LM470:
 5159 1d74 2091 0000 		lds r18,hook_edit_stage
 5160 1d78 2F5F      		subi r18,lo8(-(1))
 5161 1d7a 2093 0000 		sts hook_edit_stage,r18
 5162               	.LM471:
 5163 1d7e 2430      		cpi r18,lo8(4)
 5164 1d80 00F0      		brlo .L399
 5165 1d82 8091 0000 		lds r24,hook_m_ptr
 5166 1d86 90E0      		ldi r25,lo8(0)
 5167 1d88 FC01      		movw r30,r24
 5168 1d8a EE0F      		lsl r30
 5169 1d8c FF1F      		rol r31
 5170 1d8e EE0F      		lsl r30
 5171 1d90 FF1F      		rol r31
 5172 1d92 E80F      		add r30,r24
 5173 1d94 F91F      		adc r31,r25
 5174 1d96 E050      		subi r30,lo8(-(hooks))
 5175 1d98 F040      		sbci r31,hi8(-(hooks))
 5176 1d9a 8381      		ldd r24,Z+3
 5177 1d9c 8823      		tst r24
 5178 1d9e 01F0      		breq .L400
 5179 1da0 2530      		cpi r18,lo8(5)
 5180 1da2 00F0      		brlo .L399
 5181               	.L400:
 5182 1da4 1092 0000 		sts hook_edit_stage,__zero_reg__
 5183               	.L399:
 5184               	.LM472:
 5185 1da8 6093 0000 		sts debounce_c,r22
 5186 1dac 7093 0000 		sts debounce_c+1,r23
 5187 1db0 A093 0000 		sts debounce_c+2,r26
 5188 1db4 B093 0000 		sts debounce_c+3,r27
 5189 1db8 1093 0000 		sts debounce_c+4,r17
 5190 1dbc 0093 0000 		sts debounce_c+5,r16
 5191 1dc0 F092 0000 		sts debounce_c+6,r15
 5192 1dc4 9092 0000 		sts debounce_c+7,r9
 5193               	.LVL266:
 5194               	.L384:
 5195               	.LM473:
 5196 1dc8 8091 0000 		lds r24,hook_m_ptr
 5197 1dcc 8F5F      		subi r24,lo8(-(1))
 5198 1dce 6091 0000 		lds r22,hook_edit_stage
 5199 1dd2 00D0      		rcall draw_hook_ptr
 5200               	.L342:
 5201               	.LM474:
 5202 1dd4 8091 0000 		lds r24,vm
 5203 1dd8 8230      		cpi r24,lo8(2)
 5204 1dda 01F4      		brne .L401
 5205               	.LM475:
 5206 1ddc 81E0      		ldi r24,lo8(1)
 5207 1dde 61E0      		ldi r22,lo8(1)
 5208 1de0 40E0      		ldi r20,lo8(.LC3)
 5209 1de2 50E0      		ldi r21,hi8(.LC3)
 5210 1de4 21E0      		ldi r18,lo8(1)
 5211 1de6 00D0      		rcall lcd_put_string
 5212               	.LM476:
 5213 1de8 81E0      		ldi r24,lo8(1)
 5214 1dea 60E1      		ldi r22,lo8(16)
 5215 1dec 40E0      		ldi r20,lo8(.LC4)
 5216 1dee 50E0      		ldi r21,hi8(.LC4)
 5217 1df0 21E0      		ldi r18,lo8(1)
 5218 1df2 00D0      		rcall lcd_put_string
 5219               	.LM477:
 5220 1df4 81E0      		ldi r24,lo8(1)
 5221 1df6 69E1      		ldi r22,lo8(25)
 5222 1df8 40E0      		ldi r20,lo8(.LC5)
 5223 1dfa 50E0      		ldi r21,hi8(.LC5)
 5224 1dfc 21E0      		ldi r18,lo8(1)
 5225 1dfe 00D0      		rcall lcd_put_string
 5226               	.LM478:
 5227 1e00 81E0      		ldi r24,lo8(1)
 5228 1e02 68E2      		ldi r22,lo8(40)
 5229 1e04 40E0      		ldi r20,lo8(.LC6)
 5230 1e06 50E0      		ldi r21,hi8(.LC6)
 5231 1e08 21E0      		ldi r18,lo8(1)
 5232 1e0a 00D0      		rcall lcd_put_string
 5233               	.L401:
 5234               	.LM479:
 5235 1e0c 00D0      		rcall lcd_update
 5236 1e0e 00C0      		rjmp .L415
 5237               	.LFE48:
 5239               	.global	CHARS_TABLE
 5240               		.section	.eeprom,"a",@progbits
 5243               	CHARS_TABLE:
 5244 0000 00        		.byte	0
 5245 0001 00        		.byte	0
 5246 0002 00        		.byte	0
 5247 0003 00        		.byte	0
 5248 0004 00        		.byte	0
 5249 0005 00        		.byte	0
 5250 0006 00        		.byte	0
 5251 0007 5F        		.byte	95
 5252 0008 00        		.byte	0
 5253 0009 00        		.byte	0
 5254 000a 00        		.byte	0
 5255 000b 07        		.byte	7
 5256 000c 00        		.byte	0
 5257 000d 07        		.byte	7
 5258 000e 00        		.byte	0
 5259 000f 14        		.byte	20
 5260 0010 7F        		.byte	127
 5261 0011 14        		.byte	20
 5262 0012 7F        		.byte	127
 5263 0013 14        		.byte	20
 5264 0014 24        		.byte	36
 5265 0015 2A        		.byte	42
 5266 0016 7F        		.byte	127
 5267 0017 2A        		.byte	42
 5268 0018 12        		.byte	18
 5269 0019 23        		.byte	35
 5270 001a 13        		.byte	19
 5271 001b 08        		.byte	8
 5272 001c 64        		.byte	100
 5273 001d 62        		.byte	98
 5274 001e 36        		.byte	54
 5275 001f 49        		.byte	73
 5276 0020 55        		.byte	85
 5277 0021 22        		.byte	34
 5278 0022 50        		.byte	80
 5279 0023 00        		.byte	0
 5280 0024 05        		.byte	5
 5281 0025 03        		.byte	3
 5282 0026 00        		.byte	0
 5283 0027 00        		.byte	0
 5284 0028 00        		.byte	0
 5285 0029 1C        		.byte	28
 5286 002a 22        		.byte	34
 5287 002b 41        		.byte	65
 5288 002c 00        		.byte	0
 5289 002d 00        		.byte	0
 5290 002e 41        		.byte	65
 5291 002f 22        		.byte	34
 5292 0030 1C        		.byte	28
 5293 0031 00        		.byte	0
 5294 0032 08        		.byte	8
 5295 0033 2A        		.byte	42
 5296 0034 1C        		.byte	28
 5297 0035 2A        		.byte	42
 5298 0036 08        		.byte	8
 5299 0037 08        		.byte	8
 5300 0038 08        		.byte	8
 5301 0039 3E        		.byte	62
 5302 003a 08        		.byte	8
 5303 003b 08        		.byte	8
 5304 003c 00        		.byte	0
 5305 003d 50        		.byte	80
 5306 003e 30        		.byte	48
 5307 003f 00        		.byte	0
 5308 0040 00        		.byte	0
 5309 0041 08        		.byte	8
 5310 0042 08        		.byte	8
 5311 0043 08        		.byte	8
 5312 0044 08        		.byte	8
 5313 0045 08        		.byte	8
 5314 0046 00        		.byte	0
 5315 0047 60        		.byte	96
 5316 0048 60        		.byte	96
 5317 0049 00        		.byte	0
 5318 004a 00        		.byte	0
 5319 004b 20        		.byte	32
 5320 004c 10        		.byte	16
 5321 004d 08        		.byte	8
 5322 004e 04        		.byte	4
 5323 004f 02        		.byte	2
 5324 0050 3E        		.byte	62
 5325 0051 51        		.byte	81
 5326 0052 49        		.byte	73
 5327 0053 45        		.byte	69
 5328 0054 3E        		.byte	62
 5329 0055 00        		.byte	0
 5330 0056 42        		.byte	66
 5331 0057 7F        		.byte	127
 5332 0058 40        		.byte	64
 5333 0059 00        		.byte	0
 5334 005a 42        		.byte	66
 5335 005b 61        		.byte	97
 5336 005c 51        		.byte	81
 5337 005d 49        		.byte	73
 5338 005e 46        		.byte	70
 5339 005f 21        		.byte	33
 5340 0060 41        		.byte	65
 5341 0061 45        		.byte	69
 5342 0062 4B        		.byte	75
 5343 0063 31        		.byte	49
 5344 0064 18        		.byte	24
 5345 0065 14        		.byte	20
 5346 0066 12        		.byte	18
 5347 0067 7F        		.byte	127
 5348 0068 10        		.byte	16
 5349 0069 27        		.byte	39
 5350 006a 45        		.byte	69
 5351 006b 45        		.byte	69
 5352 006c 45        		.byte	69
 5353 006d 39        		.byte	57
 5354 006e 3C        		.byte	60
 5355 006f 4A        		.byte	74
 5356 0070 49        		.byte	73
 5357 0071 49        		.byte	73
 5358 0072 30        		.byte	48
 5359 0073 01        		.byte	1
 5360 0074 71        		.byte	113
 5361 0075 09        		.byte	9
 5362 0076 05        		.byte	5
 5363 0077 03        		.byte	3
 5364 0078 36        		.byte	54
 5365 0079 49        		.byte	73
 5366 007a 49        		.byte	73
 5367 007b 49        		.byte	73
 5368 007c 36        		.byte	54
 5369 007d 06        		.byte	6
 5370 007e 49        		.byte	73
 5371 007f 49        		.byte	73
 5372 0080 29        		.byte	41
 5373 0081 1E        		.byte	30
 5374 0082 00        		.byte	0
 5375 0083 36        		.byte	54
 5376 0084 36        		.byte	54
 5377 0085 00        		.byte	0
 5378 0086 00        		.byte	0
 5379 0087 00        		.byte	0
 5380 0088 56        		.byte	86
 5381 0089 36        		.byte	54
 5382 008a 00        		.byte	0
 5383 008b 00        		.byte	0
 5384 008c 00        		.byte	0
 5385 008d 08        		.byte	8
 5386 008e 14        		.byte	20
 5387 008f 22        		.byte	34
 5388 0090 41        		.byte	65
 5389 0091 14        		.byte	20
 5390 0092 14        		.byte	20
 5391 0093 14        		.byte	20
 5392 0094 14        		.byte	20
 5393 0095 14        		.byte	20
 5394 0096 41        		.byte	65
 5395 0097 22        		.byte	34
 5396 0098 14        		.byte	20
 5397 0099 08        		.byte	8
 5398 009a 00        		.byte	0
 5399 009b 02        		.byte	2
 5400 009c 01        		.byte	1
 5401 009d 51        		.byte	81
 5402 009e 09        		.byte	9
 5403 009f 06        		.byte	6
 5404 00a0 32        		.byte	50
 5405 00a1 49        		.byte	73
 5406 00a2 79        		.byte	121
 5407 00a3 41        		.byte	65
 5408 00a4 3E        		.byte	62
 5409 00a5 7E        		.byte	126
 5410 00a6 11        		.byte	17
 5411 00a7 11        		.byte	17
 5412 00a8 11        		.byte	17
 5413 00a9 7E        		.byte	126
 5414 00aa 7F        		.byte	127
 5415 00ab 49        		.byte	73
 5416 00ac 49        		.byte	73
 5417 00ad 49        		.byte	73
 5418 00ae 36        		.byte	54
 5419 00af 3E        		.byte	62
 5420 00b0 41        		.byte	65
 5421 00b1 41        		.byte	65
 5422 00b2 41        		.byte	65
 5423 00b3 22        		.byte	34
 5424 00b4 7F        		.byte	127
 5425 00b5 41        		.byte	65
 5426 00b6 41        		.byte	65
 5427 00b7 22        		.byte	34
 5428 00b8 1C        		.byte	28
 5429 00b9 7F        		.byte	127
 5430 00ba 49        		.byte	73
 5431 00bb 49        		.byte	73
 5432 00bc 49        		.byte	73
 5433 00bd 41        		.byte	65
 5434 00be 7F        		.byte	127
 5435 00bf 09        		.byte	9
 5436 00c0 09        		.byte	9
 5437 00c1 01        		.byte	1
 5438 00c2 01        		.byte	1
 5439 00c3 3E        		.byte	62
 5440 00c4 41        		.byte	65
 5441 00c5 41        		.byte	65
 5442 00c6 51        		.byte	81
 5443 00c7 32        		.byte	50
 5444 00c8 7F        		.byte	127
 5445 00c9 08        		.byte	8
 5446 00ca 08        		.byte	8
 5447 00cb 08        		.byte	8
 5448 00cc 7F        		.byte	127
 5449 00cd 00        		.byte	0
 5450 00ce 41        		.byte	65
 5451 00cf 7F        		.byte	127
 5452 00d0 41        		.byte	65
 5453 00d1 00        		.byte	0
 5454 00d2 20        		.byte	32
 5455 00d3 40        		.byte	64
 5456 00d4 41        		.byte	65
 5457 00d5 3F        		.byte	63
 5458 00d6 01        		.byte	1
 5459 00d7 7F        		.byte	127
 5460 00d8 08        		.byte	8
 5461 00d9 14        		.byte	20
 5462 00da 22        		.byte	34
 5463 00db 41        		.byte	65
 5464 00dc 7F        		.byte	127
 5465 00dd 40        		.byte	64
 5466 00de 40        		.byte	64
 5467 00df 40        		.byte	64
 5468 00e0 40        		.byte	64
 5469 00e1 7F        		.byte	127
 5470 00e2 02        		.byte	2
 5471 00e3 04        		.byte	4
 5472 00e4 02        		.byte	2
 5473 00e5 7F        		.byte	127
 5474 00e6 7F        		.byte	127
 5475 00e7 04        		.byte	4
 5476 00e8 08        		.byte	8
 5477 00e9 10        		.byte	16
 5478 00ea 7F        		.byte	127
 5479 00eb 3E        		.byte	62
 5480 00ec 41        		.byte	65
 5481 00ed 41        		.byte	65
 5482 00ee 41        		.byte	65
 5483 00ef 3E        		.byte	62
 5484 00f0 7F        		.byte	127
 5485 00f1 09        		.byte	9
 5486 00f2 09        		.byte	9
 5487 00f3 09        		.byte	9
 5488 00f4 06        		.byte	6
 5489 00f5 3E        		.byte	62
 5490 00f6 41        		.byte	65
 5491 00f7 51        		.byte	81
 5492 00f8 21        		.byte	33
 5493 00f9 5E        		.byte	94
 5494 00fa 7F        		.byte	127
 5495 00fb 09        		.byte	9
 5496 00fc 19        		.byte	25
 5497 00fd 29        		.byte	41
 5498 00fe 46        		.byte	70
 5499 00ff 46        		.byte	70
 5500 0100 49        		.byte	73
 5501 0101 49        		.byte	73
 5502 0102 49        		.byte	73
 5503 0103 31        		.byte	49
 5504 0104 01        		.byte	1
 5505 0105 01        		.byte	1
 5506 0106 7F        		.byte	127
 5507 0107 01        		.byte	1
 5508 0108 01        		.byte	1
 5509 0109 3F        		.byte	63
 5510 010a 40        		.byte	64
 5511 010b 40        		.byte	64
 5512 010c 40        		.byte	64
 5513 010d 3F        		.byte	63
 5514 010e 1F        		.byte	31
 5515 010f 20        		.byte	32
 5516 0110 40        		.byte	64
 5517 0111 20        		.byte	32
 5518 0112 1F        		.byte	31
 5519 0113 7F        		.byte	127
 5520 0114 20        		.byte	32
 5521 0115 18        		.byte	24
 5522 0116 20        		.byte	32
 5523 0117 7F        		.byte	127
 5524 0118 63        		.byte	99
 5525 0119 14        		.byte	20
 5526 011a 08        		.byte	8
 5527 011b 14        		.byte	20
 5528 011c 63        		.byte	99
 5529 011d 03        		.byte	3
 5530 011e 04        		.byte	4
 5531 011f 78        		.byte	120
 5532 0120 04        		.byte	4
 5533 0121 03        		.byte	3
 5534 0122 61        		.byte	97
 5535 0123 51        		.byte	81
 5536 0124 49        		.byte	73
 5537 0125 45        		.byte	69
 5538 0126 43        		.byte	67
 5539 0127 00        		.byte	0
 5540 0128 00        		.byte	0
 5541 0129 7F        		.byte	127
 5542 012a 41        		.byte	65
 5543 012b 41        		.byte	65
 5544 012c 02        		.byte	2
 5545 012d 04        		.byte	4
 5546 012e 08        		.byte	8
 5547 012f 10        		.byte	16
 5548 0130 20        		.byte	32
 5549 0131 41        		.byte	65
 5550 0132 41        		.byte	65
 5551 0133 7F        		.byte	127
 5552 0134 00        		.byte	0
 5553 0135 00        		.byte	0
 5554 0136 04        		.byte	4
 5555 0137 02        		.byte	2
 5556 0138 01        		.byte	1
 5557 0139 02        		.byte	2
 5558 013a 04        		.byte	4
 5559 013b 40        		.byte	64
 5560 013c 40        		.byte	64
 5561 013d 40        		.byte	64
 5562 013e 40        		.byte	64
 5563 013f 40        		.byte	64
 5564 0140 00        		.byte	0
 5565 0141 01        		.byte	1
 5566 0142 02        		.byte	2
 5567 0143 04        		.byte	4
 5568 0144 00        		.byte	0
 5569 0145 20        		.byte	32
 5570 0146 54        		.byte	84
 5571 0147 54        		.byte	84
 5572 0148 54        		.byte	84
 5573 0149 78        		.byte	120
 5574 014a 7F        		.byte	127
 5575 014b 48        		.byte	72
 5576 014c 44        		.byte	68
 5577 014d 44        		.byte	68
 5578 014e 38        		.byte	56
 5579 014f 38        		.byte	56
 5580 0150 44        		.byte	68
 5581 0151 44        		.byte	68
 5582 0152 44        		.byte	68
 5583 0153 20        		.byte	32
 5584 0154 38        		.byte	56
 5585 0155 44        		.byte	68
 5586 0156 44        		.byte	68
 5587 0157 48        		.byte	72
 5588 0158 7F        		.byte	127
 5589 0159 38        		.byte	56
 5590 015a 54        		.byte	84
 5591 015b 54        		.byte	84
 5592 015c 54        		.byte	84
 5593 015d 18        		.byte	24
 5594 015e 08        		.byte	8
 5595 015f 7E        		.byte	126
 5596 0160 09        		.byte	9
 5597 0161 01        		.byte	1
 5598 0162 02        		.byte	2
 5599 0163 08        		.byte	8
 5600 0164 14        		.byte	20
 5601 0165 54        		.byte	84
 5602 0166 54        		.byte	84
 5603 0167 3C        		.byte	60
 5604 0168 7F        		.byte	127
 5605 0169 08        		.byte	8
 5606 016a 04        		.byte	4
 5607 016b 04        		.byte	4
 5608 016c 78        		.byte	120
 5609 016d 00        		.byte	0
 5610 016e 44        		.byte	68
 5611 016f 7D        		.byte	125
 5612 0170 40        		.byte	64
 5613 0171 00        		.byte	0
 5614 0172 20        		.byte	32
 5615 0173 40        		.byte	64
 5616 0174 44        		.byte	68
 5617 0175 3D        		.byte	61
 5618 0176 00        		.byte	0
 5619 0177 00        		.byte	0
 5620 0178 7F        		.byte	127
 5621 0179 10        		.byte	16
 5622 017a 28        		.byte	40
 5623 017b 44        		.byte	68
 5624 017c 00        		.byte	0
 5625 017d 41        		.byte	65
 5626 017e 7F        		.byte	127
 5627 017f 40        		.byte	64
 5628 0180 00        		.byte	0
 5629 0181 7C        		.byte	124
 5630 0182 04        		.byte	4
 5631 0183 18        		.byte	24
 5632 0184 04        		.byte	4
 5633 0185 78        		.byte	120
 5634 0186 7C        		.byte	124
 5635 0187 08        		.byte	8
 5636 0188 04        		.byte	4
 5637 0189 04        		.byte	4
 5638 018a 78        		.byte	120
 5639 018b 38        		.byte	56
 5640 018c 44        		.byte	68
 5641 018d 44        		.byte	68
 5642 018e 44        		.byte	68
 5643 018f 38        		.byte	56
 5644 0190 7C        		.byte	124
 5645 0191 14        		.byte	20
 5646 0192 14        		.byte	20
 5647 0193 14        		.byte	20
 5648 0194 08        		.byte	8
 5649 0195 08        		.byte	8
 5650 0196 14        		.byte	20
 5651 0197 14        		.byte	20
 5652 0198 18        		.byte	24
 5653 0199 7C        		.byte	124
 5654 019a 7C        		.byte	124
 5655 019b 08        		.byte	8
 5656 019c 04        		.byte	4
 5657 019d 04        		.byte	4
 5658 019e 08        		.byte	8
 5659 019f 48        		.byte	72
 5660 01a0 54        		.byte	84
 5661 01a1 54        		.byte	84
 5662 01a2 54        		.byte	84
 5663 01a3 20        		.byte	32
 5664 01a4 04        		.byte	4
 5665 01a5 3F        		.byte	63
 5666 01a6 44        		.byte	68
 5667 01a7 40        		.byte	64
 5668 01a8 20        		.byte	32
 5669 01a9 3C        		.byte	60
 5670 01aa 40        		.byte	64
 5671 01ab 40        		.byte	64
 5672 01ac 20        		.byte	32
 5673 01ad 7C        		.byte	124
 5674 01ae 1C        		.byte	28
 5675 01af 20        		.byte	32
 5676 01b0 40        		.byte	64
 5677 01b1 20        		.byte	32
 5678 01b2 1C        		.byte	28
 5679 01b3 3C        		.byte	60
 5680 01b4 40        		.byte	64
 5681 01b5 30        		.byte	48
 5682 01b6 40        		.byte	64
 5683 01b7 3C        		.byte	60
 5684 01b8 44        		.byte	68
 5685 01b9 28        		.byte	40
 5686 01ba 10        		.byte	16
 5687 01bb 28        		.byte	40
 5688 01bc 44        		.byte	68
 5689 01bd 0C        		.byte	12
 5690 01be 50        		.byte	80
 5691 01bf 50        		.byte	80
 5692 01c0 50        		.byte	80
 5693 01c1 3C        		.byte	60
 5694 01c2 44        		.byte	68
 5695 01c3 64        		.byte	100
 5696 01c4 54        		.byte	84
 5697 01c5 4C        		.byte	76
 5698 01c6 44        		.byte	68
 5699 01c7 00        		.byte	0
 5700 01c8 08        		.byte	8
 5701 01c9 36        		.byte	54
 5702 01ca 41        		.byte	65
 5703 01cb 00        		.byte	0
 5704 01cc 00        		.byte	0
 5705 01cd 00        		.byte	0
 5706 01ce 7F        		.byte	127
 5707 01cf 00        		.byte	0
 5708 01d0 00        		.byte	0
 5709 01d1 00        		.byte	0
 5710 01d2 41        		.byte	65
 5711 01d3 36        		.byte	54
 5712 01d4 08        		.byte	8
 5713 01d5 00        		.byte	0
 5714               	.global	small_zero
 5717               	small_zero:
 5718 01d6 96        		.byte	-106
 5719 01d7 99        		.byte	-103
 5720 01d8 06        		.byte	6
 5721               	.global	small_two
 5724               	small_two:
 5725 01d9 E7        		.byte	-25
 5726 01da 73        		.byte	115
 5727               	.global	small_four
 5730               	small_four:
 5731 01db ED        		.byte	-19
 5732 01dc 49        		.byte	73
 5733               	.global	small_one
 5736               	small_one:
 5737 01dd AE        		.byte	-82
 5738 01de 02        		.byte	2
 5739               	.global	small_eight
 5742               	small_eight:
 5743 01df EF        		.byte	-17
 5744 01e0 7B        		.byte	123
 5745               	.global	small_s
 5748               	small_s:
 5749 01e1 CF        		.byte	-49
 5750 01e2 79        		.byte	121
 5751               	.global	small_p
 5754               	small_p:
 5755 01e3 EF        		.byte	-17
 5756 01e4 13        		.byte	19
 5757               	.global	ball
 5760               	ball:
 5761 01e5 3C        		.byte	60
 5762 01e6 7E        		.byte	126
 5763 01e7 FF        		.byte	-1
 5764 01e8 BF        		.byte	-65
 5765 01e9 BF        		.byte	-65
 5766 01ea DF        		.byte	-33
 5767 01eb 7E        		.byte	126
 5768 01ec 3C        		.byte	60
 5769               	.global	deg_char
 5772               	deg_char:
 5773 01ed 4E        		.byte	78
 5774 01ee 39        		.byte	57
 5775               	.global	small_h
 5778               	small_h:
 5779 01ef ED        		.byte	-19
 5780 01f0 5B        		.byte	91
 5781               	.global	small_m
 5784               	small_m:
 5785 01f1 BF        		.byte	-65
 5786 01f2 D6        		.byte	-42
 5787 01f3 5A        		.byte	90
 5788 01f4 15        		.byte	21
 5789               	.global	__clock__
 5790               	.global	__clock__
 5791               		.section .bss
 5794               	__clock__:
 5795 0000 0000 0000 		.skip 8,0
 5795      0000 0000 
 5796               	.global	delays
 5797               		.data
 5800               	delays:
 5801 003f E8        		.byte	-24
 5802 0040 03        		.byte	3
 5803 0041 00        		.byte	0
 5804 0042 00        		.byte	0
 5805 0043 00        		.byte	0
 5806 0044 00        		.byte	0
 5807 0045 00        		.byte	0
 5808 0046 00        		.byte	0
 5809 0047 F4        		.byte	-12
 5810 0048 01        		.byte	1
 5811 0049 00        		.byte	0
 5812 004a 00        		.byte	0
 5813 004b 00        		.byte	0
 5814 004c 00        		.byte	0
 5815 004d 00        		.byte	0
 5816 004e 00        		.byte	0
 5817 004f 64        		.byte	100
 5818 0050 00        		.byte	0
 5819 0051 00        		.byte	0
 5820 0052 00        		.byte	0
 5821 0053 00        		.byte	0
 5822 0054 00        		.byte	0
 5823 0055 00        		.byte	0
 5824 0056 00        		.byte	0
 5825 0057 60        		.byte	96
 5826 0058 EA        		.byte	-22
 5827 0059 00        		.byte	0
 5828 005a 00        		.byte	0
 5829 005b 00        		.byte	0
 5830 005c 00        		.byte	0
 5831 005d 00        		.byte	0
 5832 005e 00        		.byte	0
 5833 005f 80        		.byte	-128
 5834 0060 EE        		.byte	-18
 5835 0061 36        		.byte	54
 5836 0062 00        		.byte	0
 5837 0063 00        		.byte	0
 5838 0064 00        		.byte	0
 5839 0065 00        		.byte	0
 5840 0066 00        		.byte	0
 5841               	.global	debounce_a
 5842               	.global	debounce_a
 5843               		.section .bss
 5846               	debounce_a:
 5847 0008 0000 0000 		.skip 8,0
 5847      0000 0000 
 5848               	.global	debounce_b
 5849               	.global	debounce_b
 5852               	debounce_b:
 5853 0010 0000 0000 		.skip 8,0
 5853      0000 0000 
 5854               	.global	debounce_c
 5855               	.global	debounce_c
 5858               	debounce_c:
 5859 0018 0000 0000 		.skip 8,0
 5859      0000 0000 
 5860               	.global	debounce_d
 5861               	.global	debounce_d
 5864               	debounce_d:
 5865 0020 0000 0000 		.skip 8,0
 5865      0000 0000 
 5866               	.global	usp
 5867               	.global	usp
 5870               	usp:
 5871 0028 00        		.skip 1,0
 5872               	.global	ltp
 5873               		.data
 5876               	ltp:
 5877 0067 28        		.byte	40
 5878               	.global	conversion_start
 5879               	.global	conversion_start
 5880               		.section .bss
 5883               	conversion_start:
 5884 0029 0000 0000 		.skip 8,0
 5884      0000 0000 
 5885               	.global	conversion
 5886               	.global	conversion
 5889               	conversion:
 5890 0031 00        		.skip 1,0
 5891               	.global	ovf_flag
 5892               	.global	ovf_flag
 5895               	ovf_flag:
 5896 0032 00        		.skip 1,0
 5897               	.global	actual_t
 5898               	.global	actual_t
 5901               	actual_t:
 5902 0033 0000      		.skip 2,0
 5903               	.global	shown_value
 5904               	.global	shown_value
 5907               	shown_value:
 5908 0035 0000      		.skip 2,0
 5909               	.global	last_upd
 5910               	.global	last_upd
 5913               	last_upd:
 5914 0037 0000 0000 		.skip 8,0
 5914      0000 0000 
 5915               	.global	vm
 5916               	.global	vm
 5919               	vm:
 5920 003f 00        		.skip 1,0
 5921               	.global	hook_m_ptr
 5922               	.global	hook_m_ptr
 5925               	hook_m_ptr:
 5926 0040 00        		.skip 1,0
 5927               	.global	hook_edit_stage
 5928               	.global	hook_edit_stage
 5931               	hook_edit_stage:
 5932 0041 00        		.skip 1,0
 5933               	.global	port_status
 5934               	.global	port_status
 5937               	port_status:
 5938 0042 0000 0000 		.skip 4,0
 5939               	.global	edit_stages
 5940               		.data
 5943               	edit_stages:
 5944 0068 0000      		.word	0
 5945 006a 5300      		.word	83
 5946 006c 0000      		.word	0
 5947 006e 0D00      		.word	13
 5948 0070 1100      		.word	17
 5949 0072 2400      		.word	36
 5950 0074 2900      		.word	41
 5951 0076 3C00      		.word	60
 5952 0078 4300      		.word	67
 5953 007a 4900      		.word	73
 5954               	.global	cmps
 5955               	.LC7:
 5956 007c 3D00      		.string	"="
 5957               	.LC8:
 5958 007e 3C00      		.string	"<"
 5959               	.LC9:
 5960 0080 3E00      		.string	">"
 5961               	.LC10:
 5962 0082 3C3D 00   		.string	"<="
 5963               	.LC11:
 5964 0085 3E3D 00   		.string	">="
 5967               	cmps:
 5968 0088 0000      		.word	.LC7
 5969 008a 0000      		.word	.LC8
 5970 008c 0000      		.word	.LC9
 5971 008e 0000      		.word	.LC10
 5972 0090 0000      		.word	.LC11
 5973               	.global	acts
 5974               	.LC12:
 5975 0092 6E6F 7000 		.string	"nop"
 5976               	.LC13:
 5977 0096 7365 7400 		.string	"set"
 5978               	.LC14:
 5979 009a 7265 7300 		.string	"res"
 5982               	acts:
 5983 009e 0000      		.word	.LC12
 5984 00a0 0000      		.word	.LC13
 5985 00a2 0000      		.word	.LC14
 5986               	.global	ports
 5987               	.LC15:
 5988 00a4 5A00      		.string	"Z"
 5989               	.LC16:
 5990 00a6 5900      		.string	"Y"
 5991               	.LC17:
 5992 00a8 5800      		.string	"X"
 5993               	.LC18:
 5994 00aa 5700      		.string	"W"
 5997               	ports:
 5998 00ac 0000      		.word	.LC15
 5999 00ae 0000      		.word	.LC16
 6000 00b0 0000      		.word	.LC17
 6001 00b2 0000      		.word	.LC18
 6002               		.comm LCD_CACHE,504,1
 6003               		.comm LWM,2,1
 6004               		.comm HWM,2,1
 6005               		.comm values_for_chart,114,1
 6006               		.comm hooks,20,1
 6431               	.Letext0:
DEFINED SYMBOLS
                            *ABS*:00000000 main.c
C:\Users\vivanov\AppData\Local\Temp/cc2McaWE.s:2      *ABS*:0000003f __SREG__
C:\Users\vivanov\AppData\Local\Temp/cc2McaWE.s:3      *ABS*:0000003e __SP_H__
C:\Users\vivanov\AppData\Local\Temp/cc2McaWE.s:4      *ABS*:0000003d __SP_L__
C:\Users\vivanov\AppData\Local\Temp/cc2McaWE.s:5      *ABS*:00000034 __CCP__
C:\Users\vivanov\AppData\Local\Temp/cc2McaWE.s:6      *ABS*:00000000 __tmp_reg__
C:\Users\vivanov\AppData\Local\Temp/cc2McaWE.s:7      *ABS*:00000001 __zero_reg__
C:\Users\vivanov\AppData\Local\Temp/cc2McaWE.s:18     .text:00000000 wait
C:\Users\vivanov\AppData\Local\Temp/cc2McaWE.s:30     .text:00000002 lcd_send_data
C:\Users\vivanov\AppData\Local\Temp/cc2McaWE.s:55     .text:00000010 lcd_send_cmd
C:\Users\vivanov\AppData\Local\Temp/cc2McaWE.s:80     .text:0000001e lcd_update
                            *COM*:00000002 LWM
                            *COM*:00000002 HWM
                            *COM*:000001f8 LCD_CACHE
C:\Users\vivanov\AppData\Local\Temp/cc2McaWE.s:184    .text:000000e2 lcd_pixel
C:\Users\vivanov\AppData\Local\Temp/cc2McaWE.s:304    .text:0000019c min
C:\Users\vivanov\AppData\Local\Temp/cc2McaWE.s:329    .text:000001ac max
C:\Users\vivanov\AppData\Local\Temp/cc2McaWE.s:354    .text:000001bc lcd_h_line
C:\Users\vivanov\AppData\Local\Temp/cc2McaWE.s:435    .text:00000214 lcd_v_line
C:\Users\vivanov\AppData\Local\Temp/cc2McaWE.s:517    .text:0000026c lcd_line
C:\Users\vivanov\AppData\Local\Temp/cc2McaWE.s:757    .text:0000038a dt_test
C:\Users\vivanov\AppData\Local\Temp/cc2McaWE.s:851    .text:000003b4 dt_rx
C:\Users\vivanov\AppData\Local\Temp/cc2McaWE.s:938    .text:000003de dt_rx8
C:\Users\vivanov\AppData\Local\Temp/cc2McaWE.s:980    .text:0000040e dt_tx
C:\Users\vivanov\AppData\Local\Temp/cc2McaWE.s:1046   .text:0000042a dt_tx8
C:\Users\vivanov\AppData\Local\Temp/cc2McaWE.s:1112   .text:0000047c dt_init
C:\Users\vivanov\AppData\Local\Temp/cc2McaWE.s:1136   .text:0000048e dt_convert
C:\Users\vivanov\AppData\Local\Temp/cc2McaWE.s:1157   .text:0000049e dt_read
C:\Users\vivanov\AppData\Local\Temp/cc2McaWE.s:1202   .text:000004cc t_integer_part
C:\Users\vivanov\AppData\Local\Temp/cc2McaWE.s:1232   .text:000004ec t_sign
C:\Users\vivanov\AppData\Local\Temp/cc2McaWE.s:1250   .text:000004f6 io_init
C:\Users\vivanov\AppData\Local\Temp/cc2McaWE.s:1267   .text:000004fe io_write
C:\Users\vivanov\AppData\Local\Temp/cc2McaWE.s:1309   .text:00000532 io_read
C:\Users\vivanov\AppData\Local\Temp/cc2McaWE.s:1334   .text:00000548 __vector_9
C:\Users\vivanov\AppData\Local\Temp/cc2McaWE.s:5794   .bss:00000000 __clock__
C:\Users\vivanov\AppData\Local\Temp/cc2McaWE.s:1448   .text:00000626 clock_init
C:\Users\vivanov\AppData\Local\Temp/cc2McaWE.s:1473   .text:00000634 clock
C:\Users\vivanov\AppData\Local\Temp/cc2McaWE.s:1494   .text:00000656 change_upd_speed
C:\Users\vivanov\AppData\Local\Temp/cc2McaWE.s:5870   .bss:00000028 usp
C:\Users\vivanov\AppData\Local\Temp/cc2McaWE.s:1542   .text:0000068c change_line_type
C:\Users\vivanov\AppData\Local\Temp/cc2McaWE.s:5876   .data:00000067 ltp
C:\Users\vivanov\AppData\Local\Temp/cc2McaWE.s:1576   .text:000006b0 change_view_mode
C:\Users\vivanov\AppData\Local\Temp/cc2McaWE.s:5919   .bss:0000003f vm
C:\Users\vivanov\AppData\Local\Temp/cc2McaWE.s:1609   .text:000006d2 hooks_init
                            *COM*:00000014 hooks
C:\Users\vivanov\AppData\Local\Temp/cc2McaWE.s:1629   .text:000006e6 clear_port
C:\Users\vivanov\AppData\Local\Temp/cc2McaWE.s:5937   .bss:00000042 port_status
C:\Users\vivanov\AppData\Local\Temp/cc2McaWE.s:1648   .text:000006f8 apply_port
C:\Users\vivanov\AppData\Local\Temp/cc2McaWE.s:1685   .text:0000071e do_action
C:\Users\vivanov\AppData\Local\Temp/cc2McaWE.s:1721   .text:0000073e handle_hooks
C:\Users\vivanov\AppData\Local\Temp/cc2McaWE.s:1877   .text:00000814 draw_hook_ptr
C:\Users\vivanov\AppData\Local\Temp/cc2McaWE.s:5943   .data:00000068 edit_stages
C:\Users\vivanov\AppData\Local\Temp/cc2McaWE.s:1955   .text:00000886 sc_top
C:\Users\vivanov\AppData\Local\Temp/cc2McaWE.s:5895   .bss:00000032 ovf_flag
C:\Users\vivanov\AppData\Local\Temp/cc2McaWE.s:2067   .text:0000092a draw_chart
                            *COM*:00000072 values_for_chart
C:\Users\vivanov\AppData\Local\Temp/cc2McaWE.s:2125   .text:00000976 add_new_chart_value
C:\Users\vivanov\AppData\Local\Temp/cc2McaWE.s:2159   .text:00000992 clear_chart
C:\Users\vivanov\AppData\Local\Temp/cc2McaWE.s:2185   .text:000009a4 draw_bar
C:\Users\vivanov\AppData\Local\Temp/cc2McaWE.s:2219   .text:000009c8 lcd_draw
C:\Users\vivanov\AppData\Local\Temp/cc2McaWE.s:2369   .text:00000a7e draw_interface
C:\Users\vivanov\AppData\Local\Temp/cc2McaWE.s:5717   .eeprom:000001d6 small_zero
C:\Users\vivanov\AppData\Local\Temp/cc2McaWE.s:5760   .eeprom:000001e5 ball
C:\Users\vivanov\AppData\Local\Temp/cc2McaWE.s:5748   .eeprom:000001e1 small_s
C:\Users\vivanov\AppData\Local\Temp/cc2McaWE.s:5754   .eeprom:000001e3 small_p
C:\Users\vivanov\AppData\Local\Temp/cc2McaWE.s:2566   .text:00000ba0 draw_values_line
C:\Users\vivanov\AppData\Local\Temp/cc2McaWE.s:5724   .eeprom:000001d9 small_two
C:\Users\vivanov\AppData\Local\Temp/cc2McaWE.s:5736   .eeprom:000001dd small_one
C:\Users\vivanov\AppData\Local\Temp/cc2McaWE.s:5742   .eeprom:000001df small_eight
C:\Users\vivanov\AppData\Local\Temp/cc2McaWE.s:5730   .eeprom:000001db small_four
C:\Users\vivanov\AppData\Local\Temp/cc2McaWE.s:2668   .text:00000c2c draw_update_speed_indicator
C:\Users\vivanov\AppData\Local\Temp/cc2McaWE.s:5778   .eeprom:000001ef small_h
C:\Users\vivanov\AppData\Local\Temp/cc2McaWE.s:5784   .eeprom:000001f1 small_m
C:\Users\vivanov\AppData\Local\Temp/cc2McaWE.s:2765   .text:00000caa lcd_put_char
C:\Users\vivanov\AppData\Local\Temp/cc2McaWE.s:5243   .eeprom:00000000 CHARS_TABLE
C:\Users\vivanov\AppData\Local\Temp/cc2McaWE.s:2873   .text:00000d3a lcd_put_string
C:\Users\vivanov\AppData\Local\Temp/cc2McaWE.s:2956   .text:00000d9c draw_current_value
C:\Users\vivanov\AppData\Local\Temp/cc2McaWE.s:5772   .eeprom:000001ed deg_char
C:\Users\vivanov\AppData\Local\Temp/cc2McaWE.s:3096   .text:00000e68 print_hook
C:\Users\vivanov\AppData\Local\Temp/cc2McaWE.s:5967   .data:00000088 cmps
C:\Users\vivanov\AppData\Local\Temp/cc2McaWE.s:5982   .data:0000009e acts
C:\Users\vivanov\AppData\Local\Temp/cc2McaWE.s:5997   .data:000000ac ports
C:\Users\vivanov\AppData\Local\Temp/cc2McaWE.s:3227   .text:00000f40 lcd_clear
C:\Users\vivanov\AppData\Local\Temp/cc2McaWE.s:3258   .text:00000f6a lcd_init
C:\Users\vivanov\AppData\Local\Temp/cc2McaWE.s:3321   .text:00000f9a main
C:\Users\vivanov\AppData\Local\Temp/cc2McaWE.s:5907   .bss:00000035 shown_value
C:\Users\vivanov\AppData\Local\Temp/cc2McaWE.s:5889   .bss:00000031 conversion
C:\Users\vivanov\AppData\Local\Temp/cc2McaWE.s:5883   .bss:00000029 conversion_start
C:\Users\vivanov\AppData\Local\Temp/cc2McaWE.s:5901   .bss:00000033 actual_t
C:\Users\vivanov\AppData\Local\Temp/cc2McaWE.s:5800   .data:0000003f delays
C:\Users\vivanov\AppData\Local\Temp/cc2McaWE.s:5913   .bss:00000037 last_upd
C:\Users\vivanov\AppData\Local\Temp/cc2McaWE.s:5864   .bss:00000020 debounce_d
C:\Users\vivanov\AppData\Local\Temp/cc2McaWE.s:5846   .bss:00000008 debounce_a
C:\Users\vivanov\AppData\Local\Temp/cc2McaWE.s:5852   .bss:00000010 debounce_b
C:\Users\vivanov\AppData\Local\Temp/cc2McaWE.s:5931   .bss:00000041 hook_edit_stage
C:\Users\vivanov\AppData\Local\Temp/cc2McaWE.s:5925   .bss:00000040 hook_m_ptr
C:\Users\vivanov\AppData\Local\Temp/cc2McaWE.s:5858   .bss:00000018 debounce_c

UNDEFINED SYMBOLS
__divmodhi4
__eerd_byte_m8
itoa
__do_copy_data
__do_clear_bss
