   1               		.file	"main.c"
   2               	__SREG__ = 0x3f
   3               	__SP_H__ = 0x3e
   4               	__SP_L__ = 0x3d
   5               	__CCP__  = 0x34
   6               	__tmp_reg__ = 0
   7               	__zero_reg__ = 1
  15               	.Ltext0:
  16               	.global	wait
  18               	wait:
  19               	.LFB5:
  20               	.LM1:
  21               	/* prologue: function */
  22               	/* frame size = 0 */
  23               	/* epilogue start */
  24               	.LM2:
  25 0000 0895      		ret
  26               	.LFE5:
  28               	.global	lcd_send_data
  30               	lcd_send_data:
  31               	.LFB6:
  32               	.LM3:
  33               	.LVL0:
  34               	/* prologue: function */
  35               	/* frame size = 0 */
  36               	.LM4:
  37 0002 C298      		cbi 56-32,2
  38               	.LM5:
  39 0004 C19A      		sbi 56-32,1
  40               	.LM6:
  41 0006 8FB9      		out 47-32,r24
  42               	.L4:
  43               	.LM7:
  44 0008 779B      		sbis 46-32,7
  45 000a 00C0      		rjmp .L4
  46               	.LM8:
  47 000c C29A      		sbi 56-32,2
  48               	/* epilogue start */
  49               	.LM9:
  50 000e 0895      		ret
  51               	.LFE6:
  53               	.global	lcd_send_cmd
  55               	lcd_send_cmd:
  56               	.LFB7:
  57               	.LM10:
  58               	.LVL1:
  59               	/* prologue: function */
  60               	/* frame size = 0 */
  61               	.LM11:
  62 0010 C298      		cbi 56-32,2
  63               	.LM12:
  64 0012 C198      		cbi 56-32,1
  65               	.LM13:
  66 0014 8FB9      		out 47-32,r24
  67               	.L8:
  68               	.LM14:
  69 0016 779B      		sbis 46-32,7
  70 0018 00C0      		rjmp .L8
  71               	.LM15:
  72 001a C29A      		sbi 56-32,2
  73               	/* epilogue start */
  74               	.LM16:
  75 001c 0895      		ret
  76               	.LFE7:
  78               	.global	lcd_update
  80               	lcd_update:
  81               	.LFB9:
  82               	.LM17:
  83 001e 0F93      		push r16
  84 0020 1F93      		push r17
  85 0022 CF93      		push r28
  86 0024 DF93      		push r29
  87               	/* prologue: function */
  88               	/* frame size = 0 */
  89               	.LM18:
  90 0026 8091 0000 		lds r24,LWM
  91 002a 9091 0000 		lds r25,(LWM)+1
  92 002e 97FF      		sbrs r25,7
  93 0030 00C0      		rjmp .L12
  94 0032 1092 0000 		sts (LWM)+1,__zero_reg__
  95 0036 1092 0000 		sts LWM,__zero_reg__
  96 003a 00C0      		rjmp .L13
  97               	.L12:
  98               	.LM19:
  99 003c 885F      		subi r24,lo8(504)
 100 003e 9140      		sbci r25,hi8(504)
 101 0040 04F0      		brlt .L13
 102 0042 87EF      		ldi r24,lo8(503)
 103 0044 91E0      		ldi r25,hi8(503)
 104 0046 9093 0000 		sts (LWM)+1,r25
 105 004a 8093 0000 		sts LWM,r24
 106               	.L13:
 107               	.LM20:
 108 004e 8091 0000 		lds r24,HWM
 109 0052 9091 0000 		lds r25,(HWM)+1
 110 0056 97FF      		sbrs r25,7
 111 0058 00C0      		rjmp .L14
 112 005a 1092 0000 		sts (HWM)+1,__zero_reg__
 113 005e 1092 0000 		sts HWM,__zero_reg__
 114 0062 00C0      		rjmp .L15
 115               	.L14:
 116               	.LM21:
 117 0064 885F      		subi r24,lo8(504)
 118 0066 9140      		sbci r25,hi8(504)
 119 0068 04F0      		brlt .L15
 120 006a 87EF      		ldi r24,lo8(503)
 121 006c 91E0      		ldi r25,hi8(503)
 122 006e 9093 0000 		sts (HWM)+1,r25
 123 0072 8093 0000 		sts HWM,r24
 124               	.L15:
 125               	.LM22:
 126 0076 8091 0000 		lds r24,LWM
 127 007a 9091 0000 		lds r25,(LWM)+1
 128 007e 64E5      		ldi r22,lo8(84)
 129 0080 70E0      		ldi r23,hi8(84)
 130 0082 00D0      		rcall __divmodhi4
 131 0084 8068      		ori r24,lo8(-128)
 132 0086 00D0      		rcall lcd_send_cmd
 133               	.LM23:
 134 0088 8091 0000 		lds r24,LWM
 135 008c 9091 0000 		lds r25,(LWM)+1
 136 0090 64E5      		ldi r22,lo8(84)
 137 0092 70E0      		ldi r23,hi8(84)
 138 0094 00D0      		rcall __divmodhi4
 139 0096 862F      		mov r24,r22
 140 0098 8064      		ori r24,lo8(64)
 141 009a 00D0      		rcall lcd_send_cmd
 142               	.LM24:
 143 009c C091 0000 		lds r28,LWM
 144 00a0 D091 0000 		lds r29,(LWM)+1
 145               	.LVL2:
 146 00a4 8E01      		movw r16,r28
 147 00a6 0050      		subi r16,lo8(-(LCD_CACHE))
 148 00a8 1040      		sbci r17,hi8(-(LCD_CACHE))
 149 00aa 00C0      		rjmp .L16
 150               	.L17:
 151               	.LM25:
 152 00ac F801      		movw r30,r16
 153 00ae 8191      		ld r24,Z+
 154 00b0 8F01      		movw r16,r30
 155 00b2 00D0      		rcall lcd_send_data
 156               	.LM26:
 157 00b4 2196      		adiw r28,1
 158               	.L16:
 159 00b6 8091 0000 		lds r24,HWM
 160 00ba 9091 0000 		lds r25,(HWM)+1
 161 00be 8C17      		cp r24,r28
 162 00c0 9D07      		cpc r25,r29
 163 00c2 04F4      		brge .L17
 164               	.LM27:
 165 00c4 87EF      		ldi r24,lo8(503)
 166 00c6 91E0      		ldi r25,hi8(503)
 167 00c8 9093 0000 		sts (LWM)+1,r25
 168 00cc 8093 0000 		sts LWM,r24
 169               	.LM28:
 170 00d0 1092 0000 		sts (HWM)+1,__zero_reg__
 171 00d4 1092 0000 		sts HWM,__zero_reg__
 172               	/* epilogue start */
 173               	.LM29:
 174 00d8 DF91      		pop r29
 175 00da CF91      		pop r28
 176               	.LVL3:
 177 00dc 1F91      		pop r17
 178 00de 0F91      		pop r16
 179 00e0 0895      		ret
 180               	.LFE9:
 182               	.global	lcd_pixel
 184               	lcd_pixel:
 185               	.LFB11:
 186               	.LM30:
 187               	.LVL4:
 188               	/* prologue: function */
 189               	/* frame size = 0 */
 190 00e2 582F      		mov r21,r24
 191               	.LM31:
 192 00e4 8435      		cpi r24,lo8(84)
 193 00e6 00F0      		brlo .+2
 194 00e8 00C0      		rjmp .L25
 195 00ea 6033      		cpi r22,lo8(48)
 196 00ec 00F0      		brlo .+2
 197 00ee 00C0      		rjmp .L25
 198               	.LM32:
 199 00f0 862F      		mov r24,r22
 200               	.LVL5:
 201 00f2 8695      		lsr r24
 202 00f4 8695      		lsr r24
 203 00f6 8695      		lsr r24
 204 00f8 90E0      		ldi r25,lo8(0)
 205 00fa 24E5      		ldi r18,lo8(84)
 206 00fc 30E0      		ldi r19,hi8(84)
 207 00fe 829F      		mul r24,r18
 208 0100 D001      		movw r26,r0
 209 0102 839F      		mul r24,r19
 210 0104 B00D      		add r27,r0
 211 0106 929F      		mul r25,r18
 212 0108 B00D      		add r27,r0
 213 010a 1124      		clr r1
 214               	.LVL6:
 215 010c A50F      		add r26,r21
 216 010e B11D      		adc r27,__zero_reg__
 217               	.LM33:
 218 0110 23E0      		ldi r18,3
 219 0112 880F      	1:	lsl r24
 220 0114 991F      		rol r25
 221 0116 2A95      		dec r18
 222 0118 01F4      		brne 1b
 223 011a 681B      		sub r22,r24
 224               	.LVL7:
 225               	.LM34:
 226 011c FD01      		movw r30,r26
 227 011e E050      		subi r30,lo8(-(LCD_CACHE))
 228 0120 F040      		sbci r31,hi8(-(LCD_CACHE))
 229 0122 2081      		ld r18,Z
 230               	.LVL8:
 231               	.LM35:
 232 0124 4130      		cpi r20,lo8(1)
 233 0126 01F4      		brne .L21
 234               	.LM36:
 235 0128 81E0      		ldi r24,lo8(1)
 236 012a 90E0      		ldi r25,hi8(1)
 237 012c 00C0      		rjmp 2f
 238 012e 880F      	1:	lsl r24
 239 0130 991F      		rol r25
 240 0132 6A95      	2:	dec r22
 241 0134 02F4      		brpl 1b
 242 0136 282B      		or r18,r24
 243 0138 00C0      		rjmp .L22
 244               	.L21:
 245               	.LM37:
 246 013a 4423      		tst r20
 247 013c 01F4      		brne .L23
 248               	.LM38:
 249 013e 81E0      		ldi r24,lo8(1)
 250 0140 90E0      		ldi r25,hi8(1)
 251 0142 00C0      		rjmp 2f
 252 0144 880F      	1:	lsl r24
 253 0146 991F      		rol r25
 254 0148 6A95      	2:	dec r22
 255 014a 02F4      		brpl 1b
 256 014c 8095      		com r24
 257 014e 2823      		and r18,r24
 258 0150 00C0      		rjmp .L22
 259               	.L23:
 260               	.LM39:
 261 0152 4230      		cpi r20,lo8(2)
 262 0154 01F4      		brne .L22
 263               	.LM40:
 264 0156 81E0      		ldi r24,lo8(1)
 265 0158 90E0      		ldi r25,hi8(1)
 266 015a 00C0      		rjmp 2f
 267 015c 880F      	1:	lsl r24
 268 015e 991F      		rol r25
 269 0160 6A95      	2:	dec r22
 270 0162 02F4      		brpl 1b
 271 0164 2827      		eor r18,r24
 272               	.L22:
 273               	.LM41:
 274 0166 FD01      		movw r30,r26
 275 0168 E050      		subi r30,lo8(-(LCD_CACHE))
 276 016a F040      		sbci r31,hi8(-(LCD_CACHE))
 277 016c 2083      		st Z,r18
 278               	.LM42:
 279 016e 8091 0000 		lds r24,LWM
 280 0172 9091 0000 		lds r25,(LWM)+1
 281 0176 A817      		cp r26,r24
 282 0178 B907      		cpc r27,r25
 283 017a 04F4      		brge .L24
 284               	.LM43:
 285 017c B093 0000 		sts (LWM)+1,r27
 286 0180 A093 0000 		sts LWM,r26
 287               	.L24:
 288               	.LM44:
 289 0184 8091 0000 		lds r24,HWM
 290 0188 9091 0000 		lds r25,(HWM)+1
 291 018c 8A17      		cp r24,r26
 292 018e 9B07      		cpc r25,r27
 293 0190 04F4      		brge .L25
 294               	.LM45:
 295 0192 B093 0000 		sts (HWM)+1,r27
 296 0196 A093 0000 		sts HWM,r26
 297               	.LVL9:
 298               	.L25:
 299 019a 0895      		ret
 300               	.LFE11:
 302               	.global	min
 304               	min:
 305               	.LFB12:
 306               	.LM46:
 307               	.LVL10:
 308               	/* prologue: function */
 309               	/* frame size = 0 */
 310 019c AC01      		movw r20,r24
 311               	.LM47:
 312 019e 9B01      		movw r18,r22
 313 01a0 4617      		cp r20,r22
 314 01a2 5707      		cpc r21,r23
 315 01a4 04F4      		brge .L27
 316               	.LVL11:
 317 01a6 9A01      		movw r18,r20
 318               	.LVL12:
 319               	.L27:
 320               	.LM48:
 321 01a8 C901      		movw r24,r18
 322               	.LVL13:
 323               	/* epilogue start */
 324 01aa 0895      		ret
 325               	.LFE12:
 327               	.global	max
 329               	max:
 330               	.LFB13:
 331               	.LM49:
 332               	.LVL14:
 333               	/* prologue: function */
 334               	/* frame size = 0 */
 335 01ac AC01      		movw r20,r24
 336               	.LM50:
 337 01ae 9B01      		movw r18,r22
 338 01b0 6417      		cp r22,r20
 339 01b2 7507      		cpc r23,r21
 340 01b4 04F4      		brge .L30
 341               	.LVL15:
 342 01b6 9A01      		movw r18,r20
 343               	.LVL16:
 344               	.L30:
 345               	.LM51:
 346 01b8 C901      		movw r24,r18
 347               	.LVL17:
 348               	/* epilogue start */
 349 01ba 0895      		ret
 350               	.LFE13:
 352               	.global	lcd_h_line
 354               	lcd_h_line:
 355               	.LFB14:
 356               	.LM52:
 357               	.LVL18:
 358 01bc DF92      		push r13
 359 01be EF92      		push r14
 360 01c0 FF92      		push r15
 361 01c2 0F93      		push r16
 362 01c4 1F93      		push r17
 363 01c6 CF93      		push r28
 364 01c8 DF93      		push r29
 365               	/* prologue: function */
 366               	/* frame size = 0 */
 367 01ca D62E      		mov r13,r22
 368 01cc F42E      		mov r15,r20
 369 01ce E22E      		mov r14,r18
 370               	.LBB192:
 371               	.LM53:
 372 01d0 082F      		mov r16,r24
 373               	.LVL19:
 374 01d2 10E0      		ldi r17,lo8(0)
 375               	.LVL20:
 376 01d4 842F      		mov r24,r20
 377               	.LVL21:
 378 01d6 90E0      		ldi r25,lo8(0)
 379               	.LVL22:
 380 01d8 9C01      		movw r18,r24
 381               	.LVL23:
 382 01da E901      		movw r28,r18
 383               	.LVL24:
 384 01dc 0217      		cp r16,r18
 385 01de 1307      		cpc r17,r19
 386 01e0 04F4      		brge .L38
 387               	.LVL25:
 388 01e2 E801      		movw r28,r16
 389 01e4 00C0      		rjmp .L38
 390               	.LVL26:
 391               	.L35:
 392 01e6 8C2F      		mov r24,r28
 393 01e8 6D2D      		mov r22,r13
 394 01ea 4E2D      		mov r20,r14
 395 01ec 00D0      		rcall lcd_pixel
 396               	.LVL27:
 397 01ee 2196      		adiw r28,1
 398               	.LVL28:
 399               	.L38:
 400 01f0 8F2D      		mov r24,r15
 401               	.LVL29:
 402 01f2 90E0      		ldi r25,lo8(0)
 403               	.LVL30:
 404 01f4 9C01      		movw r18,r24
 405               	.LVL31:
 406 01f6 2017      		cp r18,r16
 407 01f8 3107      		cpc r19,r17
 408               	.LVL32:
 409 01fa 04F4      		brge .L36
 410               	.LVL33:
 411 01fc 9801      		movw r18,r16
 412               	.L36:
 413 01fe 2C17      		cp r18,r28
 414 0200 3D07      		cpc r19,r29
 415 0202 04F4      		brge .L35
 416               	.LVL34:
 417               	/* epilogue start */
 418               	.LBE192:
 419               	.LM54:
 420 0204 DF91      		pop r29
 421 0206 CF91      		pop r28
 422 0208 1F91      		pop r17
 423 020a 0F91      		pop r16
 424 020c FF90      		pop r15
 425               	.LVL35:
 426 020e EF90      		pop r14
 427               	.LVL36:
 428 0210 DF90      		pop r13
 429               	.LVL37:
 430 0212 0895      		ret
 431               	.LFE14:
 433               	.global	lcd_v_line
 435               	lcd_v_line:
 436               	.LFB15:
 437               	.LM55:
 438               	.LVL38:
 439 0214 DF92      		push r13
 440 0216 EF92      		push r14
 441 0218 FF92      		push r15
 442 021a 0F93      		push r16
 443 021c 1F93      		push r17
 444 021e CF93      		push r28
 445 0220 DF93      		push r29
 446               	/* prologue: function */
 447               	/* frame size = 0 */
 448 0222 D82E      		mov r13,r24
 449 0224 F42E      		mov r15,r20
 450 0226 E22E      		mov r14,r18
 451               	.LBB193:
 452               	.LM56:
 453 0228 062F      		mov r16,r22
 454               	.LVL39:
 455 022a 10E0      		ldi r17,lo8(0)
 456               	.LVL40:
 457 022c 242F      		mov r18,r20
 458               	.LVL41:
 459 022e 30E0      		ldi r19,lo8(0)
 460               	.LVL42:
 461 0230 C901      		movw r24,r18
 462               	.LVL43:
 463 0232 EC01      		movw r28,r24
 464               	.LVL44:
 465 0234 0817      		cp r16,r24
 466 0236 1907      		cpc r17,r25
 467 0238 04F4      		brge .L45
 468               	.LVL45:
 469 023a E801      		movw r28,r16
 470 023c 00C0      		rjmp .L45
 471               	.LVL46:
 472               	.L42:
 473 023e 8D2D      		mov r24,r13
 474 0240 6C2F      		mov r22,r28
 475               	.LVL47:
 476 0242 4E2D      		mov r20,r14
 477 0244 00D0      		rcall lcd_pixel
 478               	.LVL48:
 479 0246 2196      		adiw r28,1
 480               	.LVL49:
 481               	.L45:
 482 0248 8F2D      		mov r24,r15
 483               	.LVL50:
 484 024a 90E0      		ldi r25,lo8(0)
 485               	.LVL51:
 486 024c 9C01      		movw r18,r24
 487               	.LVL52:
 488 024e 2017      		cp r18,r16
 489 0250 3107      		cpc r19,r17
 490               	.LVL53:
 491 0252 04F4      		brge .L43
 492               	.LVL54:
 493 0254 9801      		movw r18,r16
 494               	.L43:
 495 0256 2C17      		cp r18,r28
 496 0258 3D07      		cpc r19,r29
 497 025a 04F4      		brge .L42
 498               	.LVL55:
 499               	/* epilogue start */
 500               	.LBE193:
 501               	.LM57:
 502 025c DF91      		pop r29
 503 025e CF91      		pop r28
 504 0260 1F91      		pop r17
 505 0262 0F91      		pop r16
 506 0264 FF90      		pop r15
 507               	.LVL56:
 508 0266 EF90      		pop r14
 509               	.LVL57:
 510 0268 DF90      		pop r13
 511               	.LVL58:
 512 026a 0895      		ret
 513               	.LFE15:
 515               	.global	lcd_line
 517               	lcd_line:
 518               	.LFB16:
 519               	.LM58:
 520               	.LVL59:
 521 026c 3F92      		push r3
 522 026e 4F92      		push r4
 523 0270 5F92      		push r5
 524 0272 6F92      		push r6
 525 0274 7F92      		push r7
 526 0276 8F92      		push r8
 527 0278 9F92      		push r9
 528 027a AF92      		push r10
 529 027c BF92      		push r11
 530 027e CF92      		push r12
 531 0280 DF92      		push r13
 532 0282 EF92      		push r14
 533 0284 FF92      		push r15
 534 0286 0F93      		push r16
 535               	.LVL60:
 536 0288 1F93      		push r17
 537 028a CF93      		push r28
 538 028c DF93      		push r29
 539               	/* prologue: function */
 540               	/* frame size = 0 */
 541 028e 982E      		mov r9,r24
 542 0290 862E      		mov r8,r22
 543 0292 442E      		mov r4,r20
 544 0294 522E      		mov r5,r18
 545 0296 302E      		mov r3,r16
 546               	.LVL61:
 547               	.LM59:
 548 0298 8417      		cp r24,r20
 549 029a 01F4      		brne .L47
 550               	.LVL62:
 551               	.LM60:
 552 029c 422F      		mov r20,r18
 553               	.LVL63:
 554 029e 202F      		mov r18,r16
 555 02a0 00D0      		rcall lcd_v_line
 556               	.LVL64:
 557 02a2 00C0      		rjmp .L59
 558               	.LVL65:
 559               	.L47:
 560               	.LM61:
 561 02a4 6217      		cp r22,r18
 562 02a6 01F4      		brne .L49
 563               	.LVL66:
 564               	.LM62:
 565 02a8 202F      		mov r18,r16
 566               	.LVL67:
 567 02aa 00D0      		rcall lcd_h_line
 568               	.LVL68:
 569 02ac 00C0      		rjmp .L59
 570               	.LVL69:
 571               	.L49:
 572               	.LM63:
 573 02ae 30E0      		ldi r19,lo8(0)
 574               	.LVL70:
 575 02b0 261B      		sub r18,r22
 576 02b2 3109      		sbc r19,__zero_reg__
 577               	.LVL71:
 578               	.LM64:
 579 02b4 842F      		mov r24,r20
 580               	.LVL72:
 581 02b6 90E0      		ldi r25,lo8(0)
 582               	.LVL73:
 583 02b8 8919      		sub r24,r9
 584 02ba 9109      		sbc r25,__zero_reg__
 585               	.LVL74:
 586               	.LM65:
 587 02bc 37FD      		sbrc r19,7
 588 02be 00C0      		rjmp .L50
 589 02c0 E1E0      		ldi r30,lo8(1)
 590 02c2 6E2E      		mov r6,r30
 591 02c4 712C      		mov r7,__zero_reg__
 592               	.LVL75:
 593 02c6 00C0      		rjmp .L51
 594               	.LVL76:
 595               	.L50:
 596               	.LM66:
 597 02c8 3095      		com r19
 598 02ca 2195      		neg r18
 599 02cc 3F4F      		sbci r19,lo8(-1)
 600 02ce 6624      		clr r6
 601 02d0 6A94      		dec r6
 602 02d2 762C      		mov r7,r6
 603               	.LVL77:
 604               	.L51:
 605               	.LM67:
 606 02d4 97FD      		sbrc r25,7
 607 02d6 00C0      		rjmp .L52
 608 02d8 71E0      		ldi r23,lo8(1)
 609 02da A72E      		mov r10,r23
 610 02dc B12C      		mov r11,__zero_reg__
 611               	.LVL78:
 612 02de 00C0      		rjmp .L53
 613               	.LVL79:
 614               	.L52:
 615               	.LM68:
 616 02e0 9095      		com r25
 617 02e2 8195      		neg r24
 618 02e4 9F4F      		sbci r25,lo8(-1)
 619 02e6 AA24      		clr r10
 620 02e8 AA94      		dec r10
 621 02ea BA2C      		mov r11,r10
 622               	.LVL80:
 623               	.L53:
 624               	.LM69:
 625 02ec 6C01      		movw r12,r24
 626 02ee CC0C      		lsl r12
 627 02f0 DD1C      		rol r13
 628               	.LVL81:
 629               	.LM70:
 630 02f2 7901      		movw r14,r18
 631 02f4 EE0C      		lsl r14
 632 02f6 FF1C      		rol r15
 633               	.LVL82:
 634               	.LM71:
 635 02f8 EC14      		cp r14,r12
 636 02fa FD04      		cpc r15,r13
 637 02fc 04F4      		brge .L54
 638               	.LM72:
 639 02fe C601      		movw r24,r12
 640 0300 9595      		asr r25
 641 0302 8795      		ror r24
 642               	.LVL83:
 643 0304 E701      		movw r28,r14
 644               	.LVL84:
 645 0306 C81B      		sub r28,r24
 646 0308 D90B      		sbc r29,r25
 647 030a BA2C      		mov r11,r10
 648 030c 1A2D      		mov r17,r10
 649               	.LVL85:
 650 030e 190D      		add r17,r9
 651               	.L56:
 652               	.LM73:
 653 0310 D7FD      		sbrc r29,7
 654 0312 00C0      		rjmp .L55
 655               	.LM74:
 656 0314 860C      		add r8,r6
 657               	.LM75:
 658 0316 CC19      		sub r28,r12
 659 0318 DD09      		sbc r29,r13
 660               	.L55:
 661               	.LM76:
 662 031a 812F      		mov r24,r17
 663 031c 682D      		mov r22,r8
 664 031e 432D      		mov r20,r3
 665 0320 00D0      		rcall lcd_pixel
 666               	.LVL86:
 667 0322 1B0D      		add r17,r11
 668               	.LM77:
 669 0324 812F      		mov r24,r17
 670 0326 8B19      		sub r24,r11
 671 0328 8415      		cp r24,r4
 672 032a 01F0      		breq .L59
 673               	.LM78:
 674 032c CE0D      		add r28,r14
 675 032e DF1D      		adc r29,r15
 676 0330 00C0      		rjmp .L56
 677               	.LVL87:
 678               	.L54:
 679               	.LM79:
 680 0332 C701      		movw r24,r14
 681 0334 9595      		asr r25
 682 0336 8795      		ror r24
 683               	.LVL88:
 684 0338 E601      		movw r28,r12
 685               	.LVL89:
 686 033a C81B      		sub r28,r24
 687 033c D90B      		sbc r29,r25
 688 033e 062D      		mov r16,r6
 689 0340 162D      		mov r17,r6
 690               	.LVL90:
 691 0342 180D      		add r17,r8
 692               	.LVL91:
 693               	.L58:
 694               	.LM80:
 695 0344 D7FD      		sbrc r29,7
 696 0346 00C0      		rjmp .L57
 697               	.LVL92:
 698               	.LM81:
 699 0348 9A0C      		add r9,r10
 700               	.LM82:
 701 034a CE19      		sub r28,r14
 702 034c DF09      		sbc r29,r15
 703               	.L57:
 704               	.LM83:
 705 034e 892D      		mov r24,r9
 706 0350 612F      		mov r22,r17
 707 0352 432D      		mov r20,r3
 708               	.LVL93:
 709 0354 00D0      		rcall lcd_pixel
 710               	.LVL94:
 711 0356 100F      		add r17,r16
 712               	.LM84:
 713 0358 812F      		mov r24,r17
 714 035a 801B      		sub r24,r16
 715 035c 8515      		cp r24,r5
 716 035e 01F0      		breq .L59
 717               	.LM85:
 718 0360 CC0D      		add r28,r12
 719 0362 DD1D      		adc r29,r13
 720 0364 00C0      		rjmp .L58
 721               	.LVL95:
 722               	.L59:
 723               	/* epilogue start */
 724               	.LM86:
 725 0366 DF91      		pop r29
 726 0368 CF91      		pop r28
 727               	.LVL96:
 728 036a 1F91      		pop r17
 729 036c 0F91      		pop r16
 730 036e FF90      		pop r15
 731 0370 EF90      		pop r14
 732               	.LVL97:
 733 0372 DF90      		pop r13
 734 0374 CF90      		pop r12
 735               	.LVL98:
 736 0376 BF90      		pop r11
 737 0378 AF90      		pop r10
 738               	.LVL99:
 739 037a 9F90      		pop r9
 740               	.LVL100:
 741 037c 8F90      		pop r8
 742               	.LVL101:
 743 037e 7F90      		pop r7
 744 0380 6F90      		pop r6
 745               	.LVL102:
 746 0382 5F90      		pop r5
 747               	.LVL103:
 748 0384 4F90      		pop r4
 749               	.LVL104:
 750 0386 3F90      		pop r3
 751               	.LVL105:
 752 0388 0895      		ret
 753               	.LFE16:
 755               	.global	dt_test
 757               	dt_test:
 758               	.LFB24:
 759               	.LM87:
 760               	/* prologue: function */
 761               	/* frame size = 0 */
 762               	.LM88:
 763 038a 9FB7      		in r25,__SREG__
 764               	.LVL106:
 765               	.LM89:
 766               	/* #APP */
 767               	 ;  20 "include/dt.h" 1
 768 038c F894      		cli
 769               	 ;  0 "" 2
 770               	.LM90:
 771               	/* #NOAPP */
 772 038e 899A      		sbi 49-32,1
 773               	.LBB194:
 774               	.LBB195:
 775               	.LBB196:
 776               	.LBB197:
 777               	.LBB198:
 778               	.LBB199:
 779               	.LM91:
 780 0390 E8EE      		ldi r30,lo8(1000)
 781 0392 F3E0      		ldi r31,hi8(1000)
 782               	.LVL107:
 783               	/* #APP */
 784               	 ;  105 "c:/winavr-20100110/lib/gcc/../../avr/include/util/delay_basic.h" 1
 785 0394 3197      		1: sbiw r30,1
 786 0396 01F4      		brne 1b
 787               	 ;  0 "" 2
 788               	/* #NOAPP */
 789               	.LBE199:
 790               	.LBE198:
 791               	.LBE197:
 792               	.LBE196:
 793               	.LBE195:
 794               	.LBE194:
 795               	.LM92:
 796 0398 8998      		cbi 49-32,1
 797               	.LBB200:
 798               	.LBB201:
 799               	.LBB202:
 800               	.LBB203:
 801               	.LM93:
 802 039a 8AEB      		ldi r24,lo8(-70)
 803               	.LVL108:
 804               	/* #APP */
 805               	 ;  83 "c:/winavr-20100110/lib/gcc/../../avr/include/util/delay_basic.h" 1
 806 039c 8A95      		1: dec r24
 807 039e 01F4      		brne 1b
 808               	 ;  0 "" 2
 809               	/* #NOAPP */
 810               	.LBE203:
 811               	.LBE202:
 812               	.LBE201:
 813               	.LBE200:
 814               	.LM94:
 815 03a0 80B3      		in r24,48-32
 816               	.LVL109:
 817               	.LM95:
 818 03a2 9FBF      		out __SREG__,r25
 819               	.LBB204:
 820               	.LBB205:
 821               	.LBB206:
 822               	.LBB207:
 823               	.LBB208:
 824               	.LBB209:
 825               	.LM96:
 826 03a4 E8E4      		ldi r30,lo8(840)
 827 03a6 F3E0      		ldi r31,hi8(840)
 828               	.LVL110:
 829               	/* #APP */
 830               	 ;  105 "c:/winavr-20100110/lib/gcc/../../avr/include/util/delay_basic.h" 1
 831 03a8 3197      		1: sbiw r30,1
 832 03aa 01F4      		brne 1b
 833               	 ;  0 "" 2
 834               	/* #NOAPP */
 835 03ac 8695      		lsr r24
 836 03ae 8095      		com r24
 837               	.LBE209:
 838               	.LBE208:
 839               	.LBE207:
 840               	.LBE206:
 841               	.LBE205:
 842               	.LBE204:
 843               	.LM97:
 844 03b0 8170      		andi r24,lo8(1)
 845               	/* epilogue start */
 846 03b2 0895      		ret
 847               	.LFE24:
 849               	.global	dt_rx
 851               	dt_rx:
 852               	.LFB25:
 853               	.LM98:
 854               	/* prologue: function */
 855               	/* frame size = 0 */
 856               	.LM99:
 857 03b4 2FB7      		in r18,__SREG__
 858               	.LVL111:
 859               	.LM100:
 860               	/* #APP */
 861               	 ;  38 "include/dt.h" 1
 862 03b6 F894      		cli
 863               	 ;  0 "" 2
 864               	.LM101:
 865               	/* #NOAPP */
 866 03b8 899A      		sbi 49-32,1
 867               	.LBB210:
 868               	.LBB211:
 869               	.LBB212:
 870               	.LBB213:
 871               	.LM102:
 872 03ba 85E0      		ldi r24,lo8(5)
 873               	.LVL112:
 874               	/* #APP */
 875               	 ;  83 "c:/winavr-20100110/lib/gcc/../../avr/include/util/delay_basic.h" 1
 876 03bc 8A95      		1: dec r24
 877 03be 01F4      		brne 1b
 878               	 ;  0 "" 2
 879               	/* #NOAPP */
 880               	.LBE213:
 881               	.LBE212:
 882               	.LBE211:
 883               	.LBE210:
 884               	.LM103:
 885 03c0 8998      		cbi 49-32,1
 886               	.LBB214:
 887               	.LBB215:
 888               	.LBB216:
 889               	.LBB217:
 890               	.LM104:
 891 03c2 85E2      		ldi r24,lo8(37)
 892               	.LVL113:
 893               	/* #APP */
 894               	 ;  83 "c:/winavr-20100110/lib/gcc/../../avr/include/util/delay_basic.h" 1
 895 03c4 8A95      		1: dec r24
 896 03c6 01F4      		brne 1b
 897               	 ;  0 "" 2
 898               	/* #NOAPP */
 899               	.LBE217:
 900               	.LBE216:
 901               	.LBE215:
 902               	.LBE214:
 903               	.LM105:
 904 03c8 80B3      		in r24,48-32
 905               	.LVL114:
 906               	.LBB218:
 907               	.LBB219:
 908               	.LBB220:
 909               	.LBB221:
 910               	.LM106:
 911 03ca 98E7      		ldi r25,lo8(120)
 912               	.LVL115:
 913               	/* #APP */
 914               	 ;  83 "c:/winavr-20100110/lib/gcc/../../avr/include/util/delay_basic.h" 1
 915 03cc 9A95      		1: dec r25
 916 03ce 01F4      		brne 1b
 917               	 ;  0 "" 2
 918               	/* #NOAPP */
 919               	.LBE221:
 920               	.LBE220:
 921               	.LBE219:
 922               	.LBE218:
 923               	.LM107:
 924 03d0 2FBF      		out __SREG__,r18
 925 03d2 90E0      		ldi r25,lo8(0)
 926               	.LVL116:
 927 03d4 8270      		andi r24,lo8(2)
 928 03d6 9070      		andi r25,hi8(2)
 929 03d8 9595      		asr r25
 930 03da 8795      		ror r24
 931               	/* epilogue start */
 932               	.LM108:
 933 03dc 0895      		ret
 934               	.LFE25:
 936               	.global	dt_rx8
 938               	dt_rx8:
 939               	.LFB26:
 940               	.LM109:
 941 03de 1F93      		push r17
 942 03e0 CF93      		push r28
 943 03e2 DF93      		push r29
 944               	/* prologue: function */
 945               	/* frame size = 0 */
 946               	.LM110:
 947 03e4 10E0      		ldi r17,lo8(0)
 948               	.LVL117:
 949 03e6 C0E0      		ldi r28,lo8(0)
 950 03e8 D0E0      		ldi r29,hi8(0)
 951               	.L65:
 952               	.LBB222:
 953               	.LM111:
 954 03ea 00D0      		rcall dt_rx
 955 03ec 90E0      		ldi r25,lo8(0)
 956 03ee 0C2E      		mov r0,r28
 957 03f0 00C0      		rjmp 2f
 958 03f2 880F      	1:	lsl r24
 959 03f4 991F      		rol r25
 960 03f6 0A94      	2:	dec r0
 961 03f8 02F4      		brpl 1b
 962 03fa 182B      		or r17,r24
 963 03fc 2196      		adiw r28,1
 964 03fe C830      		cpi r28,8
 965 0400 D105      		cpc r29,__zero_reg__
 966 0402 01F4      		brne .L65
 967               	.LBE222:
 968               	.LM112:
 969 0404 812F      		mov r24,r17
 970               	/* epilogue start */
 971 0406 DF91      		pop r29
 972 0408 CF91      		pop r28
 973 040a 1F91      		pop r17
 974               	.LVL118:
 975 040c 0895      		ret
 976               	.LFE26:
 978               	.global	dt_tx
 980               	dt_tx:
 981               	.LFB27:
 982               	.LM113:
 983               	.LVL119:
 984               	/* prologue: function */
 985               	/* frame size = 0 */
 986               	.LM114:
 987 040e 2FB7      		in r18,__SREG__
 988               	.LVL120:
 989               	.LM115:
 990               	/* #APP */
 991               	 ;  58 "include/dt.h" 1
 992 0410 F894      		cli
 993               	 ;  0 "" 2
 994               	.LM116:
 995               	/* #NOAPP */
 996 0412 899A      		sbi 49-32,1
 997               	.LBB223:
 998               	.LBB224:
 999               	.LBB225:
 1000               	.LBB226:
 1001               	.LM117:
 1002 0414 95E0      		ldi r25,lo8(5)
 1003               	.LVL121:
 1004               	/* #APP */
 1005               	 ;  83 "c:/winavr-20100110/lib/gcc/../../avr/include/util/delay_basic.h" 1
 1006 0416 9A95      		1: dec r25
 1007 0418 01F4      		brne 1b
 1008               	 ;  0 "" 2
 1009               	/* #NOAPP */
 1010               	.LBE226:
 1011               	.LBE225:
 1012               	.LBE224:
 1013               	.LBE223:
 1014               	.LM118:
 1015 041a 8111      		cpse r24,__zero_reg__
 1016 041c 8998      		cbi 49-32,1
 1017               	.L69:
 1018               	.LBB227:
 1019               	.LBB228:
 1020               	.LBB229:
 1021               	.LBB230:
 1022               	.LM119:
 1023 041e 8DEA      		ldi r24,lo8(-83)
 1024               	.LVL122:
 1025               	/* #APP */
 1026               	 ;  83 "c:/winavr-20100110/lib/gcc/../../avr/include/util/delay_basic.h" 1
 1027 0420 8A95      		1: dec r24
 1028 0422 01F4      		brne 1b
 1029               	 ;  0 "" 2
 1030               	/* #NOAPP */
 1031               	.LBE230:
 1032               	.LBE229:
 1033               	.LBE228:
 1034               	.LBE227:
 1035               	.LM120:
 1036 0424 8998      		cbi 49-32,1
 1037               	.LM121:
 1038 0426 2FBF      		out __SREG__,r18
 1039               	/* epilogue start */
 1040               	.LM122:
 1041 0428 0895      		ret
 1042               	.LFE27:
 1044               	.global	dt_tx8
 1046               	dt_tx8:
 1047               	.LFB28:
 1048               	.LM123:
 1049               	.LVL123:
 1050 042a EF92      		push r14
 1051 042c FF92      		push r15
 1052 042e 0F93      		push r16
 1053 0430 1F93      		push r17
 1054 0432 CF93      		push r28
 1055 0434 DF93      		push r29
 1056               	/* prologue: function */
 1057               	/* frame size = 0 */
 1058               	.LM124:
 1059 0436 C0E0      		ldi r28,lo8(0)
 1060 0438 D0E0      		ldi r29,hi8(0)
 1061               	.LBB231:
 1062               	.LM125:
 1063 043a A1E0      		ldi r26,lo8(1)
 1064 043c EA2E      		mov r14,r26
 1065 043e F12C      		mov r15,__zero_reg__
 1066 0440 082F      		mov r16,r24
 1067 0442 10E0      		ldi r17,lo8(0)
 1068               	.LVL124:
 1069               	.L74:
 1070 0444 9701      		movw r18,r14
 1071 0446 0C2E      		mov r0,r28
 1072 0448 00C0      		rjmp 2f
 1073 044a 220F      	1:	lsl r18
 1074 044c 331F      		rol r19
 1075 044e 0A94      	2:	dec r0
 1076 0450 02F4      		brpl 1b
 1077 0452 C901      		movw r24,r18
 1078 0454 8023      		and r24,r16
 1079 0456 9123      		and r25,r17
 1080 0458 8217      		cp r24,r18
 1081 045a 9307      		cpc r25,r19
 1082 045c 01F4      		brne .L72
 1083               	.LM126:
 1084 045e 81E0      		ldi r24,lo8(1)
 1085 0460 00C0      		rjmp .L77
 1086               	.L72:
 1087               	.LM127:
 1088 0462 80E0      		ldi r24,lo8(0)
 1089               	.L77:
 1090 0464 00D0      		rcall dt_tx
 1091 0466 2196      		adiw r28,1
 1092               	.LM128:
 1093 0468 C830      		cpi r28,8
 1094 046a D105      		cpc r29,__zero_reg__
 1095 046c 01F4      		brne .L74
 1096               	/* epilogue start */
 1097               	.LBE231:
 1098               	.LM129:
 1099 046e DF91      		pop r29
 1100 0470 CF91      		pop r28
 1101 0472 1F91      		pop r17
 1102               	.LVL125:
 1103 0474 0F91      		pop r16
 1104               	.LVL126:
 1105 0476 FF90      		pop r15
 1106 0478 EF90      		pop r14
 1107 047a 0895      		ret
 1108               	.LFE28:
 1110               	.global	dt_convert
 1112               	dt_convert:
 1113               	.LFB29:
 1114               	.LM130:
 1115               	/* prologue: function */
 1116               	/* frame size = 0 */
 1117               	.LM131:
 1118 047c 00D0      		rcall dt_test
 1119 047e 8823      		tst r24
 1120 0480 01F0      		breq .L80
 1121               	.LM132:
 1122 0482 8CEC      		ldi r24,lo8(-52)
 1123 0484 00D0      		rcall dt_tx8
 1124               	.LM133:
 1125 0486 84E4      		ldi r24,lo8(68)
 1126 0488 00D0      		rcall dt_tx8
 1127               	.L80:
 1128 048a 0895      		ret
 1129               	.LFE29:
 1131               	.global	dt_read
 1133               	dt_read:
 1134               	.LFB30:
 1135               	.LM134:
 1136 048c 1F93      		push r17
 1137               	/* prologue: function */
 1138               	/* frame size = 0 */
 1139               	.LM135:
 1140 048e 00D0      		rcall dt_test
 1141 0490 8823      		tst r24
 1142 0492 01F4      		brne .L82
 1143 0494 40E0      		ldi r20,lo8(0)
 1144 0496 50E0      		ldi r21,hi8(0)
 1145 0498 00C0      		rjmp .L83
 1146               	.L82:
 1147               	.LM136:
 1148 049a 8CEC      		ldi r24,lo8(-52)
 1149 049c 00D0      		rcall dt_tx8
 1150               	.LM137:
 1151 049e 8EEB      		ldi r24,lo8(-66)
 1152 04a0 00D0      		rcall dt_tx8
 1153               	.LM138:
 1154 04a2 00D0      		rcall dt_rx8
 1155 04a4 182F      		mov r17,r24
 1156               	.LVL127:
 1157               	.LM139:
 1158 04a6 00D0      		rcall dt_rx8
 1159               	.LM140:
 1160 04a8 382F      		mov r19,r24
 1161 04aa 20E0      		ldi r18,lo8(0)
 1162               	.LM141:
 1163 04ac 412F      		mov r20,r17
 1164 04ae 50E0      		ldi r21,lo8(0)
 1165 04b0 422B      		or r20,r18
 1166 04b2 532B      		or r21,r19
 1167               	.L83:
 1168               	.LM142:
 1169 04b4 CA01      		movw r24,r20
 1170               	/* epilogue start */
 1171 04b6 1F91      		pop r17
 1172               	.LVL128:
 1173 04b8 0895      		ret
 1174               	.LFE30:
 1176               	.global	t_integer_part
 1178               	t_integer_part:
 1179               	.LFB31:
 1180               	.LM143:
 1181               	.LVL129:
 1182               	/* prologue: function */
 1183               	/* frame size = 0 */
 1184               	.LM144:
 1185 04ba 292F      		mov r18,r25
 1186 04bc 3327      		clr r19
 1187 04be 27FD      		sbrc r18,7
 1188 04c0 3A95      		dec r19
 1189 04c2 30E0      		ldi r19,lo8(0)
 1190 04c4 2770      		andi r18,lo8(7)
 1191 04c6 3070      		andi r19,hi8(7)
 1192 04c8 B4E0      		ldi r27,4
 1193 04ca 220F      	1:	lsl r18
 1194 04cc 331F      		rol r19
 1195 04ce BA95      		dec r27
 1196 04d0 01F4      		brne 1b
 1197 04d2 8295      		swap r24
 1198               	.LVL130:
 1199 04d4 8F70      		andi r24,lo8(15)
 1200               	.LM145:
 1201 04d6 822B      		or r24,r18
 1202               	/* epilogue start */
 1203 04d8 0895      		ret
 1204               	.LFE31:
 1206               	.global	t_sign
 1208               	t_sign:
 1209               	.LFB32:
 1210               	.LM146:
 1211               	.LVL131:
 1212               	/* prologue: function */
 1213               	/* frame size = 0 */
 1214               	.LM147:
 1215 04da 892F      		mov r24,r25
 1216               	.LVL132:
 1217 04dc 881F      		rol r24
 1218 04de 8827      		clr r24
 1219 04e0 881F      		rol r24
 1220               	/* epilogue start */
 1221 04e2 0895      		ret
 1222               	.LFE32:
 1224               	.global	io_init
 1226               	io_init:
 1227               	.LFB33:
 1228               	.LM148:
 1229               	/* prologue: function */
 1230               	/* frame size = 0 */
 1231               	.LM149:
 1232 04e4 14BA      		out 52-32,__zero_reg__
 1233               	.LM150:
 1234 04e6 80EF      		ldi r24,lo8(-16)
 1235 04e8 81BB      		out 49-32,r24
 1236               	/* epilogue start */
 1237               	.LM151:
 1238 04ea 0895      		ret
 1239               	.LFE33:
 1241               	.global	io_write
 1243               	io_write:
 1244               	.LFB34:
 1245               	.LM152:
 1246               	.LVL133:
 1247               	/* prologue: function */
 1248               	/* frame size = 0 */
 1249 04ec 382F      		mov r19,r24
 1250               	.LM153:
 1251 04ee 6623      		tst r22
 1252 04f0 01F0      		breq .L92
 1253               	.LVL134:
 1254               	.LM154:
 1255 04f2 22B3      		in r18,50-32
 1256 04f4 81E0      		ldi r24,lo8(1)
 1257 04f6 90E0      		ldi r25,hi8(1)
 1258 04f8 00C0      		rjmp 2f
 1259 04fa 880F      	1:	lsl r24
 1260 04fc 991F      		rol r25
 1261 04fe 3A95      	2:	dec r19
 1262 0500 02F4      		brpl 1b
 1263 0502 282B      		or r18,r24
 1264 0504 22BB      		out 50-32,r18
 1265 0506 0895      		ret
 1266               	.LVL135:
 1267               	.L92:
 1268               	.LM155:
 1269 0508 22B3      		in r18,50-32
 1270 050a 81E0      		ldi r24,lo8(1)
 1271 050c 90E0      		ldi r25,hi8(1)
 1272 050e 00C0      		rjmp 2f
 1273 0510 880F      	1:	lsl r24
 1274 0512 991F      		rol r25
 1275 0514 3A95      	2:	dec r19
 1276 0516 02F4      		brpl 1b
 1277 0518 8095      		com r24
 1278 051a 8223      		and r24,r18
 1279 051c 82BB      		out 50-32,r24
 1280 051e 0895      		ret
 1281               	.LFE34:
 1283               	.global	io_read
 1285               	io_read:
 1286               	.LFB35:
 1287               	.LM156:
 1288               	.LVL136:
 1289               	/* prologue: function */
 1290               	/* frame size = 0 */
 1291               	.LM157:
 1292 0520 23B3      		in r18,51-32
 1293 0522 30E0      		ldi r19,lo8(0)
 1294 0524 00C0      		rjmp 2f
 1295 0526 3595      	1:	asr r19
 1296 0528 2795      		ror r18
 1297 052a 8A95      	2:	dec r24
 1298 052c 02F4      		brpl 1b
 1299 052e 2170      		andi r18,lo8(1)
 1300 0530 3070      		andi r19,hi8(1)
 1301               	.LM158:
 1302 0532 C901      		movw r24,r18
 1303               	.LVL137:
 1304               	/* epilogue start */
 1305 0534 0895      		ret
 1306               	.LFE35:
 1308               	.global	__vector_9
 1310               	__vector_9:
 1311               	.LFB36:
 1312               	.LM159:
 1313 0536 1F92      		push __zero_reg__
 1314 0538 0F92      		push r0
 1315 053a 0FB6      		in r0,__SREG__
 1316 053c 0F92      		push r0
 1317 053e 1124      		clr __zero_reg__
 1318 0540 1F93      		push r17
 1319 0542 2F93      		push r18
 1320 0544 3F93      		push r19
 1321 0546 4F93      		push r20
 1322 0548 5F93      		push r21
 1323 054a 6F93      		push r22
 1324 054c 7F93      		push r23
 1325 054e 8F93      		push r24
 1326 0550 9F93      		push r25
 1327 0552 AF93      		push r26
 1328 0554 BF93      		push r27
 1329 0556 EF93      		push r30
 1330 0558 FF93      		push r31
 1331               	/* prologue: Signal */
 1332               	/* frame size = 0 */
 1333               	.LM160:
 1334 055a 8091 0000 		lds r24,__clock__
 1335 055e 2091 0000 		lds r18,__clock__+1
 1336 0562 3091 0000 		lds r19,__clock__+2
 1337 0566 4091 0000 		lds r20,__clock__+3
 1338 056a 6091 0000 		lds r22,__clock__+4
 1339 056e E091 0000 		lds r30,__clock__+5
 1340 0572 A091 0000 		lds r26,__clock__+6
 1341 0576 1091 0000 		lds r17,__clock__+7
 1342 057a B82F      		mov r27,r24
 1343 057c B85F      		subi r27,lo8(-(8))
 1344 057e 91E0      		ldi r25,lo8(1)
 1345 0580 B817      		cp r27,r24
 1346 0582 00F0      		brlo .L98
 1347 0584 90E0      		ldi r25,lo8(0)
 1348               	.L98:
 1349 0586 F92F      		mov r31,r25
 1350 0588 F20F      		add r31,r18
 1351 058a 81E0      		ldi r24,lo8(1)
 1352 058c F217      		cp r31,r18
 1353 058e 00F0      		brlo .L100
 1354 0590 80E0      		ldi r24,lo8(0)
 1355               	.L100:
 1356 0592 782F      		mov r23,r24
 1357 0594 730F      		add r23,r19
 1358 0596 81E0      		ldi r24,lo8(1)
 1359 0598 7317      		cp r23,r19
 1360 059a 00F0      		brlo .L102
 1361 059c 80E0      		ldi r24,lo8(0)
 1362               	.L102:
 1363 059e 582F      		mov r21,r24
 1364 05a0 540F      		add r21,r20
 1365 05a2 81E0      		ldi r24,lo8(1)
 1366 05a4 5417      		cp r21,r20
 1367 05a6 00F0      		brlo .L104
 1368 05a8 80E0      		ldi r24,lo8(0)
 1369               	.L104:
 1370 05aa 382F      		mov r19,r24
 1371 05ac 360F      		add r19,r22
 1372 05ae 81E0      		ldi r24,lo8(1)
 1373 05b0 3617      		cp r19,r22
 1374 05b2 00F0      		brlo .L106
 1375 05b4 80E0      		ldi r24,lo8(0)
 1376               	.L106:
 1377 05b6 282F      		mov r18,r24
 1378 05b8 2E0F      		add r18,r30
 1379 05ba 81E0      		ldi r24,lo8(1)
 1380 05bc 2E17      		cp r18,r30
 1381 05be 00F0      		brlo .L108
 1382 05c0 80E0      		ldi r24,lo8(0)
 1383               	.L108:
 1384 05c2 982F      		mov r25,r24
 1385 05c4 9A0F      		add r25,r26
 1386 05c6 81E0      		ldi r24,lo8(1)
 1387 05c8 9A17      		cp r25,r26
 1388 05ca 00F0      		brlo .L110
 1389 05cc 80E0      		ldi r24,lo8(0)
 1390               	.L110:
 1391 05ce 810F      		add r24,r17
 1392 05d0 B093 0000 		sts __clock__,r27
 1393 05d4 F093 0000 		sts __clock__+1,r31
 1394 05d8 7093 0000 		sts __clock__+2,r23
 1395 05dc 5093 0000 		sts __clock__+3,r21
 1396 05e0 3093 0000 		sts __clock__+4,r19
 1397 05e4 2093 0000 		sts __clock__+5,r18
 1398 05e8 9093 0000 		sts __clock__+6,r25
 1399 05ec 8093 0000 		sts __clock__+7,r24
 1400               	/* epilogue start */
 1401               	.LM161:
 1402 05f0 FF91      		pop r31
 1403 05f2 EF91      		pop r30
 1404 05f4 BF91      		pop r27
 1405 05f6 AF91      		pop r26
 1406 05f8 9F91      		pop r25
 1407 05fa 8F91      		pop r24
 1408 05fc 7F91      		pop r23
 1409 05fe 6F91      		pop r22
 1410 0600 5F91      		pop r21
 1411 0602 4F91      		pop r20
 1412 0604 3F91      		pop r19
 1413 0606 2F91      		pop r18
 1414 0608 1F91      		pop r17
 1415 060a 0F90      		pop r0
 1416 060c 0FBE      		out __SREG__,r0
 1417 060e 0F90      		pop r0
 1418 0610 1F90      		pop __zero_reg__
 1419 0612 1895      		reti
 1420               	.LFE36:
 1422               	.global	clock_init
 1424               	clock_init:
 1425               	.LFB37:
 1426               	.LM162:
 1427               	/* prologue: function */
 1428               	/* frame size = 0 */
 1429               	.LM163:
 1430 0614 84E0      		ldi r24,lo8(4)
 1431 0616 83BF      		out 83-32,r24
 1432               	.LM164:
 1433 0618 89B7      		in r24,89-32
 1434 061a 8160      		ori r24,lo8(1)
 1435 061c 89BF      		out 89-32,r24
 1436               	.LM165:
 1437               	/* #APP */
 1438               	 ;  25 "include/clock.h" 1
 1439 061e 7894      		sei
 1440               	 ;  0 "" 2
 1441               	/* epilogue start */
 1442               	.LM166:
 1443               	/* #NOAPP */
 1444 0620 0895      		ret
 1445               	.LFE37:
 1447               	.global	clock
 1449               	clock:
 1450               	.LFB38:
 1451               	.LM167:
 1452               	/* prologue: function */
 1453               	/* frame size = 0 */
 1454               	.LM168:
 1455 0622 2091 0000 		lds r18,__clock__
 1456 0626 3091 0000 		lds r19,__clock__+1
 1457 062a 4091 0000 		lds r20,__clock__+2
 1458 062e 5091 0000 		lds r21,__clock__+3
 1459 0632 6091 0000 		lds r22,__clock__+4
 1460 0636 7091 0000 		lds r23,__clock__+5
 1461               	.LM169:
 1462 063a 8091 0000 		lds r24,__clock__+6
 1463 063e 9091 0000 		lds r25,__clock__+7
 1464               	/* epilogue start */
 1465 0642 0895      		ret
 1466               	.LFE38:
 1468               	.global	change_upd_speed
 1470               	change_upd_speed:
 1471               	.LFB39:
 1472               	.LM170:
 1473               	/* prologue: function */
 1474               	/* frame size = 0 */
 1475               	.LM171:
 1476 0644 8091 0000 		lds r24,usp
 1477 0648 9091 0000 		lds r25,(usp)+1
 1478 064c 8130      		cpi r24,1
 1479 064e 9105      		cpc r25,__zero_reg__
 1480 0650 01F4      		brne .L117
 1481               	.LM172:
 1482 0652 80E1      		ldi r24,lo8(3600)
 1483 0654 9EE0      		ldi r25,hi8(3600)
 1484 0656 00C0      		rjmp .L121
 1485               	.L117:
 1486               	.LM173:
 1487 0658 8C33      		cpi r24,60
 1488 065a 9105      		cpc r25,__zero_reg__
 1489 065c 01F4      		brne .L119
 1490               	.LM174:
 1491 065e 81E0      		ldi r24,lo8(1)
 1492 0660 90E0      		ldi r25,hi8(1)
 1493               	.L121:
 1494 0662 9093 0000 		sts (usp)+1,r25
 1495 0666 8093 0000 		sts usp,r24
 1496 066a 0895      		ret
 1497               	.L119:
 1498               	.LM175:
 1499 066c 8051      		subi r24,lo8(3600)
 1500 066e 9E40      		sbci r25,hi8(3600)
 1501 0670 01F4      		brne .L120
 1502               	.LM176:
 1503 0672 8CE3      		ldi r24,lo8(60)
 1504 0674 90E0      		ldi r25,hi8(60)
 1505 0676 9093 0000 		sts (usp)+1,r25
 1506 067a 8093 0000 		sts usp,r24
 1507               	.L120:
 1508 067e 0895      		ret
 1509               	.LFE39:
 1511               	.global	change_line_type
 1513               	change_line_type:
 1514               	.LFB40:
 1515               	.LM177:
 1516               	/* prologue: function */
 1517               	/* frame size = 0 */
 1518               	.LM178:
 1519 0680 8091 0000 		lds r24,ltp
 1520 0684 8832      		cpi r24,lo8(40)
 1521 0686 01F4      		brne .L123
 1522               	.LM179:
 1523 0688 80E5      		ldi r24,lo8(80)
 1524 068a 00C0      		rjmp .L127
 1525               	.L123:
 1526               	.LM180:
 1527 068c 8035      		cpi r24,lo8(80)
 1528 068e 01F4      		brne .L125
 1529               	.LM181:
 1530 0690 84E1      		ldi r24,lo8(20)
 1531               	.L127:
 1532 0692 8093 0000 		sts ltp,r24
 1533 0696 0895      		ret
 1534               	.L125:
 1535               	.LM182:
 1536 0698 8431      		cpi r24,lo8(20)
 1537 069a 01F4      		brne .L126
 1538               	.LM183:
 1539 069c 88E2      		ldi r24,lo8(40)
 1540 069e 8093 0000 		sts ltp,r24
 1541               	.L126:
 1542 06a2 0895      		ret
 1543               	.LFE40:
 1545               	.global	change_view_mode
 1547               	change_view_mode:
 1548               	.LFB41:
 1549               	.LM184:
 1550               	/* prologue: function */
 1551               	/* frame size = 0 */
 1552               	.LM185:
 1553 06a4 8091 0000 		lds r24,vm
 1554 06a8 8823      		tst r24
 1555 06aa 01F4      		brne .L129
 1556               	.LM186:
 1557 06ac 81E0      		ldi r24,lo8(1)
 1558 06ae 8093 0000 		sts vm,r24
 1559 06b2 0895      		ret
 1560               	.L129:
 1561               	.LM187:
 1562 06b4 8130      		cpi r24,lo8(1)
 1563 06b6 01F4      		brne .L131
 1564               	.LM188:
 1565 06b8 1092 0000 		sts vm,__zero_reg__
 1566               	.L131:
 1567 06bc 0895      		ret
 1568               	.LFE41:
 1570               	.global	hooks_init
 1572               	hooks_init:
 1573               	.LFB42:
 1574               	.LM189:
 1575               	/* prologue: function */
 1576               	/* frame size = 0 */
 1577               	.LBB232:
 1578               	.LM190:
 1579 06be 84E0      		ldi r24,lo8(4)
 1580 06c0 8093 0000 		sts hooks+4,r24
 1581 06c4 8093 0000 		sts hooks+9,r24
 1582 06c8 8093 0000 		sts hooks+14,r24
 1583 06cc 8093 0000 		sts hooks+19,r24
 1584               	/* epilogue start */
 1585               	.LBE232:
 1586               	.LM191:
 1587 06d0 0895      		ret
 1588               	.LFE42:
 1590               	.global	clear_port
 1592               	clear_port:
 1593               	.LFB43:
 1594               	.LM192:
 1595               	/* prologue: function */
 1596               	/* frame size = 0 */
 1597               	.LBB233:
 1598               	.LM193:
 1599 06d2 1092 0000 		sts port_status,__zero_reg__
 1600 06d6 1092 0000 		sts port_status+1,__zero_reg__
 1601 06da 1092 0000 		sts port_status+2,__zero_reg__
 1602 06de 1092 0000 		sts port_status+3,__zero_reg__
 1603               	/* epilogue start */
 1604               	.LBE233:
 1605               	.LM194:
 1606 06e2 0895      		ret
 1607               	.LFE43:
 1609               	.global	apply_port
 1611               	apply_port:
 1612               	.LFB44:
 1613               	.LM195:
 1614 06e4 CF93      		push r28
 1615 06e6 DF93      		push r29
 1616               	/* prologue: function */
 1617               	/* frame size = 0 */
 1618               	.LM196:
 1619 06e8 C0E0      		ldi r28,lo8(0)
 1620 06ea D0E0      		ldi r29,hi8(0)
 1621               	.LVL138:
 1622               	.L137:
 1623               	.LBB234:
 1624               	.LM197:
 1625 06ec FE01      		movw r30,r28
 1626 06ee E050      		subi r30,lo8(-(port_status))
 1627 06f0 F040      		sbci r31,hi8(-(port_status))
 1628 06f2 9E01      		movw r18,r28
 1629 06f4 2C5F      		subi r18,lo8(-(4))
 1630 06f6 822F      		mov r24,r18
 1631 06f8 6081      		ld r22,Z
 1632 06fa 00D0      		rcall io_write
 1633 06fc 2196      		adiw r28,1
 1634 06fe C430      		cpi r28,4
 1635 0700 D105      		cpc r29,__zero_reg__
 1636 0702 01F4      		brne .L137
 1637               	/* epilogue start */
 1638               	.LBE234:
 1639               	.LM198:
 1640 0704 DF91      		pop r29
 1641 0706 CF91      		pop r28
 1642               	.LVL139:
 1643 0708 0895      		ret
 1644               	.LFE44:
 1646               	.global	do_action
 1648               	do_action:
 1649               	.LFB45:
 1650               	.LM199:
 1651               	.LVL140:
 1652               	/* prologue: function */
 1653               	/* frame size = 0 */
 1654               	.LM200:
 1655 070a 6130      		cpi r22,lo8(1)
 1656 070c 01F4      		brne .L141
 1657 070e E82F      		mov r30,r24
 1658 0710 F0E0      		ldi r31,lo8(0)
 1659               	.LVL141:
 1660 0712 E050      		subi r30,lo8(-(port_status-4))
 1661 0714 F040      		sbci r31,hi8(-(port_status-4))
 1662               	.LVL142:
 1663 0716 6083      		st Z,r22
 1664 0718 0895      		ret
 1665               	.LVL143:
 1666               	.L141:
 1667               	.LM201:
 1668 071a 6230      		cpi r22,lo8(2)
 1669 071c 01F4      		brne .L143
 1670 071e E82F      		mov r30,r24
 1671 0720 F0E0      		ldi r31,lo8(0)
 1672               	.LVL144:
 1673 0722 E050      		subi r30,lo8(-(port_status-4))
 1674 0724 F040      		sbci r31,hi8(-(port_status-4))
 1675               	.LVL145:
 1676 0726 1082      		st Z,__zero_reg__
 1677               	.LVL146:
 1678               	.L143:
 1679 0728 0895      		ret
 1680               	.LFE45:
 1682               	.global	handle_hooks
 1684               	handle_hooks:
 1685               	.LFB46:
 1686               	.LM202:
 1687               	.LVL147:
 1688 072a 0F93      		push r16
 1689 072c 1F93      		push r17
 1690 072e CF93      		push r28
 1691 0730 DF93      		push r29
 1692               	/* prologue: function */
 1693               	/* frame size = 0 */
 1694 0732 9C01      		movw r18,r24
 1695               	.LM203:
 1696 0734 37FF      		sbrs r19,7
 1697 0736 00C0      		rjmp .L145
 1698               	.LVL148:
 1699               	.LM204:
 1700 0738 8095      		com r24
 1701 073a 9095      		com r25
 1702 073c 292F      		mov r18,r25
 1703 073e 3327      		clr r19
 1704 0740 27FD      		sbrc r18,7
 1705 0742 3A95      		dec r19
 1706               	.LVL149:
 1707 0744 30E0      		ldi r19,lo8(0)
 1708               	.LVL150:
 1709 0746 2770      		andi r18,lo8(7)
 1710 0748 3070      		andi r19,hi8(7)
 1711 074a 54E0      		ldi r21,4
 1712 074c 220F      	1:	lsl r18
 1713 074e 331F      		rol r19
 1714 0750 5A95      		dec r21
 1715 0752 01F4      		brne 1b
 1716 0754 8295      		swap r24
 1717 0756 8F70      		andi r24,lo8(15)
 1718 0758 822B      		or r24,r18
 1719 075a 90E0      		ldi r25,lo8(0)
 1720 075c 0027      		clr r16
 1721 075e 1127      		clr r17
 1722 0760 081B      		sub r16,r24
 1723 0762 190B      		sbc r17,r25
 1724               	.LVL151:
 1725 0764 00C0      		rjmp .L146
 1726               	.LVL152:
 1727               	.L145:
 1728               	.LM205:
 1729 0766 892F      		mov r24,r25
 1730 0768 990F      		lsl r25
 1731 076a 990B      		sbc r25,r25
 1732 076c 90E0      		ldi r25,lo8(0)
 1733 076e 8770      		andi r24,lo8(7)
 1734 0770 9070      		andi r25,hi8(7)
 1735 0772 34E0      		ldi r19,4
 1736 0774 880F      	1:	lsl r24
 1737 0776 991F      		rol r25
 1738 0778 3A95      		dec r19
 1739 077a 01F4      		brne 1b
 1740               	.LVL153:
 1741 077c 2295      		swap r18
 1742               	.LVL154:
 1743 077e 2F70      		andi r18,lo8(15)
 1744 0780 282B      		or r18,r24
 1745 0782 022F      		mov r16,r18
 1746               	.LVL155:
 1747 0784 10E0      		ldi r17,lo8(0)
 1748               	.LVL156:
 1749               	.L146:
 1750               	.LBB235:
 1751               	.LBB236:
 1752               	.LBB237:
 1753               	.LM206:
 1754 0786 1092 0000 		sts port_status,__zero_reg__
 1755 078a 1092 0000 		sts port_status+1,__zero_reg__
 1756 078e 1092 0000 		sts port_status+2,__zero_reg__
 1757 0792 1092 0000 		sts port_status+3,__zero_reg__
 1758 0796 C0E0      		ldi r28,lo8(hooks)
 1759 0798 D0E0      		ldi r29,hi8(hooks)
 1760               	.L156:
 1761               	.LM207:
 1762 079a 6B81      		ldd r22,Y+3
 1763 079c 8C81      		ldd r24,Y+4
 1764 079e 2981      		ldd r18,Y+1
 1765 07a0 3A81      		ldd r19,Y+2
 1766 07a2 9881      		ld r25,Y
 1767               	.LBE237:
 1768               	.LBE236:
 1769               	.LBE235:
 1770               	.LBB238:
 1771               	.LBB239:
 1772               	.LM208:
 1773 07a4 9923      		tst r25
 1774 07a6 01F4      		brne .L147
 1775 07a8 0217      		cp r16,r18
 1776 07aa 1307      		cpc r17,r19
 1777 07ac 01F4      		brne .L155
 1778 07ae 00C0      		rjmp .L158
 1779               	.L147:
 1780 07b0 9130      		cpi r25,lo8(1)
 1781 07b2 01F4      		brne .L149
 1782 07b4 0217      		cp r16,r18
 1783 07b6 1307      		cpc r17,r19
 1784 07b8 04F0      		brlt .L158
 1785 07ba 00C0      		rjmp .L155
 1786               	.L149:
 1787 07bc 9230      		cpi r25,lo8(2)
 1788 07be 01F4      		brne .L150
 1789 07c0 2017      		cp r18,r16
 1790 07c2 3107      		cpc r19,r17
 1791 07c4 04F0      		brlt .L158
 1792 07c6 00C0      		rjmp .L155
 1793               	.L150:
 1794 07c8 9330      		cpi r25,lo8(3)
 1795 07ca 01F4      		brne .L151
 1796 07cc 2017      		cp r18,r16
 1797 07ce 3107      		cpc r19,r17
 1798 07d0 04F4      		brge .L158
 1799 07d2 00C0      		rjmp .L155
 1800               	.L151:
 1801 07d4 9430      		cpi r25,lo8(4)
 1802 07d6 01F4      		brne .L155
 1803 07d8 40E0      		ldi r20,lo8(0)
 1804 07da 50E0      		ldi r21,hi8(0)
 1805 07dc 0217      		cp r16,r18
 1806 07de 1307      		cpc r17,r19
 1807 07e0 04F0      		brlt .L154
 1808 07e2 41E0      		ldi r20,lo8(1)
 1809 07e4 50E0      		ldi r21,hi8(1)
 1810               	.L154:
 1811               	.LM209:
 1812 07e6 4111      		cpse r20,__zero_reg__
 1813               	.L158:
 1814               	.LM210:
 1815 07e8 00D0      		rcall do_action
 1816               	.L155:
 1817 07ea 2596      		adiw r28,5
 1818               	.LBE239:
 1819               	.LM211:
 1820 07ec 80E0      		ldi r24,hi8(hooks+20)
 1821 07ee C030      		cpi r28,lo8(hooks+20)
 1822 07f0 D807      		cpc r29,r24
 1823 07f2 01F4      		brne .L156
 1824               	.LBE238:
 1825               	.LM212:
 1826 07f4 00D0      		rcall apply_port
 1827               	/* epilogue start */
 1828               	.LM213:
 1829 07f6 DF91      		pop r29
 1830 07f8 CF91      		pop r28
 1831 07fa 1F91      		pop r17
 1832               	.LVL157:
 1833 07fc 0F91      		pop r16
 1834               	.LVL158:
 1835 07fe 0895      		ret
 1836               	.LFE46:
 1838               	.global	draw_hook_ptr
 1840               	draw_hook_ptr:
 1841               	.LFB48:
 1842               	.LM214:
 1843               	.LVL159:
 1844 0800 CF92      		push r12
 1845 0802 DF92      		push r13
 1846 0804 EF92      		push r14
 1847 0806 FF92      		push r15
 1848 0808 0F93      		push r16
 1849 080a 1F93      		push r17
 1850 080c CF93      		push r28
 1851 080e DF93      		push r29
 1852               	/* prologue: function */
 1853               	/* frame size = 0 */
 1854               	.LBB240:
 1855               	.LM215:
 1856 0810 99E0      		ldi r25,lo8(9)
 1857 0812 899F      		mul r24,r25
 1858 0814 102D      		mov r17,r0
 1859 0816 1124      		clr r1
 1860 0818 A2E0      		ldi r26,lo8(2)
 1861 081a EA2E      		mov r14,r26
 1862 081c F12C      		mov r15,__zero_reg__
 1863               	.LVL160:
 1864 081e 70E0      		ldi r23,lo8(0)
 1865 0820 6B01      		movw r12,r22
 1866               	.LVL161:
 1867 0822 CC0C      		lsl r12
 1868 0824 DD1C      		rol r13
 1869 0826 CC0C      		lsl r12
 1870 0828 DD1C      		rol r13
 1871 082a 80E0      		ldi r24,lo8(edit_stages)
 1872 082c 90E0      		ldi r25,hi8(edit_stages)
 1873               	.LVL162:
 1874 082e C80E      		add r12,r24
 1875 0830 D91E      		adc r13,r25
 1876 0832 EB01      		movw r28,r22
 1877 0834 CC0F      		lsl r28
 1878 0836 DD1F      		rol r29
 1879 0838 2196      		adiw r28,1
 1880 083a CC0F      		lsl r28
 1881 083c DD1F      		rol r29
 1882 083e C80F      		add r28,r24
 1883 0840 D91F      		adc r29,r25
 1884               	.L161:
 1885 0842 212F      		mov r18,r17
 1886 0844 2E0D      		add r18,r14
 1887 0846 F601      		movw r30,r12
 1888 0848 8081      		ld r24,Z
 1889 084a 622F      		mov r22,r18
 1890 084c 4881      		ld r20,Y
 1891 084e 02E0      		ldi r16,lo8(2)
 1892 0850 00D0      		rcall lcd_line
 1893               	.LM216:
 1894 0852 0894      		sec
 1895 0854 E11C      		adc r14,__zero_reg__
 1896 0856 F11C      		adc r15,__zero_reg__
 1897 0858 FBE0      		ldi r31,lo8(11)
 1898 085a EF16      		cp r14,r31
 1899 085c F104      		cpc r15,__zero_reg__
 1900 085e 01F4      		brne .L161
 1901               	/* epilogue start */
 1902               	.LBE240:
 1903               	.LM217:
 1904 0860 DF91      		pop r29
 1905 0862 CF91      		pop r28
 1906 0864 1F91      		pop r17
 1907 0866 0F91      		pop r16
 1908 0868 FF90      		pop r15
 1909 086a EF90      		pop r14
 1910               	.LVL163:
 1911 086c DF90      		pop r13
 1912 086e CF90      		pop r12
 1913 0870 0895      		ret
 1914               	.LFE48:
 1916               	.global	sc_top
 1918               	sc_top:
 1919               	.LFB50:
 1920               	.LM218:
 1921               	.LVL164:
 1922               	/* prologue: function */
 1923               	/* frame size = 0 */
 1924 0872 E82F      		mov r30,r24
 1925               	.LM219:
 1926 0874 77FF      		sbrs r23,7
 1927 0876 00C0      		rjmp .L165
 1928               	.LVL165:
 1929               	.LM220:
 1930 0878 AB01      		movw r20,r22
 1931 087a 4095      		com r20
 1932 087c 5095      		com r21
 1933 087e 252F      		mov r18,r21
 1934 0880 3327      		clr r19
 1935 0882 27FD      		sbrc r18,7
 1936 0884 3A95      		dec r19
 1937               	.LVL166:
 1938 0886 30E0      		ldi r19,lo8(0)
 1939 0888 2770      		andi r18,lo8(7)
 1940 088a 3070      		andi r19,hi8(7)
 1941 088c 54E0      		ldi r21,4
 1942 088e 220F      	1:	lsl r18
 1943 0890 331F      		rol r19
 1944 0892 5A95      		dec r21
 1945 0894 01F4      		brne 1b
 1946 0896 4295      		swap r20
 1947 0898 4F70      		andi r20,lo8(15)
 1948 089a 842F      		mov r24,r20
 1949 089c 822B      		or r24,r18
 1950 089e 90E0      		ldi r25,lo8(0)
 1951 08a0 24E0      		ldi r18,4
 1952 08a2 880F      	1:	lsl r24
 1953 08a4 991F      		rol r25
 1954 08a6 2A95      		dec r18
 1955 08a8 01F4      		brne 1b
 1956 08aa 9095      		com r25
 1957 08ac 8195      		neg r24
 1958 08ae 9F4F      		sbci r25,lo8(-1)
 1959 08b0 00C0      		rjmp .L170
 1960               	.LVL167:
 1961               	.L165:
 1962               	.LM221:
 1963 08b2 272F      		mov r18,r23
 1964 08b4 3327      		clr r19
 1965 08b6 27FD      		sbrc r18,7
 1966 08b8 3A95      		dec r19
 1967 08ba 30E0      		ldi r19,lo8(0)
 1968 08bc 2770      		andi r18,lo8(7)
 1969 08be 3070      		andi r19,hi8(7)
 1970 08c0 84E0      		ldi r24,4
 1971 08c2 220F      	1:	lsl r18
 1972 08c4 331F      		rol r19
 1973 08c6 8A95      		dec r24
 1974 08c8 01F4      		brne 1b
 1975 08ca 862F      		mov r24,r22
 1976               	.LVL168:
 1977 08cc 8295      		swap r24
 1978 08ce 8F70      		andi r24,lo8(15)
 1979 08d0 822B      		or r24,r18
 1980 08d2 90E0      		ldi r25,lo8(0)
 1981 08d4 B4E0      		ldi r27,4
 1982 08d6 880F      	1:	lsl r24
 1983 08d8 991F      		rol r25
 1984 08da BA95      		dec r27
 1985 08dc 01F4      		brne 1b
 1986               	.L170:
 1987 08de 6E2F      		mov r22,r30
 1988 08e0 70E0      		ldi r23,lo8(0)
 1989               	.LVL169:
 1990 08e2 00D0      		rcall __divmodhi4
 1991               	.LM222:
 1992 08e4 2AE1      		ldi r18,lo8(26)
 1993 08e6 30E0      		ldi r19,hi8(26)
 1994               	.LVL170:
 1995 08e8 261B      		sub r18,r22
 1996 08ea 370B      		sbc r19,r23
 1997               	.LVL171:
 1998               	.LM223:
 1999 08ec 1092 0000 		sts ovf_flag,__zero_reg__
 2000               	.LM224:
 2001 08f0 2230      		cpi r18,2
 2002 08f2 3105      		cpc r19,__zero_reg__
 2003 08f4 04F4      		brge .L167
 2004               	.LM225:
 2005 08f6 81E0      		ldi r24,lo8(1)
 2006 08f8 8093 0000 		sts ovf_flag,r24
 2007 08fc 22E0      		ldi r18,lo8(2)
 2008 08fe 30E0      		ldi r19,hi8(2)
 2009 0900 00C0      		rjmp .L168
 2010               	.L167:
 2011               	.LM226:
 2012 0902 2632      		cpi r18,38
 2013 0904 3105      		cpc r19,__zero_reg__
 2014 0906 04F0      		brlt .L168
 2015               	.LM227:
 2016 0908 81E0      		ldi r24,lo8(1)
 2017 090a 8093 0000 		sts ovf_flag,r24
 2018 090e 25E2      		ldi r18,lo8(37)
 2019 0910 30E0      		ldi r19,hi8(37)
 2020               	.L168:
 2021               	.LM228:
 2022 0912 C901      		movw r24,r18
 2023               	.LVL172:
 2024               	/* epilogue start */
 2025 0914 0895      		ret
 2026               	.LFE50:
 2028               	.global	draw_chart
 2030               	draw_chart:
 2031               	.LFB51:
 2032               	.LM229:
 2033               	.LVL173:
 2034 0916 EF92      		push r14
 2035 0918 FF92      		push r15
 2036 091a 0F93      		push r16
 2037 091c 1F93      		push r17
 2038 091e CF93      		push r28
 2039 0920 DF93      		push r29
 2040               	/* prologue: function */
 2041               	/* frame size = 0 */
 2042 0922 E82E      		mov r14,r24
 2043               	.LM230:
 2044 0924 C0E0      		ldi r28,lo8(values_for_chart)
 2045 0926 D0E0      		ldi r29,hi8(values_for_chart)
 2046 0928 02E0      		ldi r16,lo8(2)
 2047               	.LVL174:
 2048               	.L172:
 2049               	.LBB241:
 2050               	.LM231:
 2051 092a 6881      		ld r22,Y
 2052 092c 7981      		ldd r23,Y+1
 2053 092e 8E2D      		mov r24,r14
 2054 0930 00D0      		rcall sc_top
 2055 0932 182F      		mov r17,r24
 2056 0934 F02E      		mov r15,r16
 2057 0936 F394      		inc r15
 2058 0938 6A81      		ldd r22,Y+2
 2059 093a 7B81      		ldd r23,Y+3
 2060 093c 8E2D      		mov r24,r14
 2061 093e 00D0      		rcall sc_top
 2062 0940 282F      		mov r18,r24
 2063 0942 802F      		mov r24,r16
 2064 0944 612F      		mov r22,r17
 2065 0946 4F2D      		mov r20,r15
 2066 0948 01E0      		ldi r16,lo8(1)
 2067 094a 00D0      		rcall lcd_line
 2068 094c 2296      		adiw r28,2
 2069 094e 0F2D      		mov r16,r15
 2070               	.LM232:
 2071 0950 0A33      		cpi r16,lo8(58)
 2072 0952 01F4      		brne .L172
 2073               	/* epilogue start */
 2074               	.LBE241:
 2075               	.LM233:
 2076 0954 DF91      		pop r29
 2077 0956 CF91      		pop r28
 2078 0958 1F91      		pop r17
 2079 095a 0F91      		pop r16
 2080 095c FF90      		pop r15
 2081 095e EF90      		pop r14
 2082               	.LVL175:
 2083 0960 0895      		ret
 2084               	.LFE51:
 2086               	.global	add_new_chart_value
 2088               	add_new_chart_value:
 2089               	.LFB52:
 2090               	.LM234:
 2091               	.LVL176:
 2092               	/* prologue: function */
 2093               	/* frame size = 0 */
 2094 0962 9C01      		movw r18,r24
 2095               	.LM235:
 2096 0964 E0E0      		ldi r30,lo8(values_for_chart)
 2097 0966 F0E0      		ldi r31,hi8(values_for_chart)
 2098               	.LVL177:
 2099               	.L176:
 2100               	.LBB242:
 2101               	.LM236:
 2102 0968 8281      		ldd r24,Z+2
 2103 096a 9381      		ldd r25,Z+3
 2104 096c 8193      		st Z+,r24
 2105 096e 9193      		st Z+,r25
 2106               	.LM237:
 2107 0970 80E0      		ldi r24,hi8(values_for_chart+112)
 2108 0972 E030      		cpi r30,lo8(values_for_chart+112)
 2109 0974 F807      		cpc r31,r24
 2110 0976 01F4      		brne .L176
 2111               	.LBE242:
 2112               	.LM238:
 2113 0978 3183      		std Z+1,r19
 2114 097a 2083      		st Z,r18
 2115               	/* epilogue start */
 2116               	.LM239:
 2117 097c 0895      		ret
 2118               	.LFE52:
 2120               	.global	clear_chart
 2122               	clear_chart:
 2123               	.LFB53:
 2124               	.LM240:
 2125               	/* prologue: function */
 2126               	/* frame size = 0 */
 2127               	.LM241:
 2128 097e E0E0      		ldi r30,lo8(values_for_chart)
 2129 0980 F0E0      		ldi r31,hi8(values_for_chart)
 2130               	.L180:
 2131               	.LBB243:
 2132               	.LM242:
 2133 0982 1192      		st Z+,__zero_reg__
 2134 0984 1192      		st Z+,__zero_reg__
 2135               	.LM243:
 2136 0986 80E0      		ldi r24,hi8(values_for_chart+114)
 2137 0988 E030      		cpi r30,lo8(values_for_chart+114)
 2138 098a F807      		cpc r31,r24
 2139 098c 01F4      		brne .L180
 2140               	/* epilogue start */
 2141               	.LBE243:
 2142               	.LM244:
 2143 098e 0895      		ret
 2144               	.LFE53:
 2146               	.global	draw_bar
 2148               	draw_bar:
 2149               	.LFB54:
 2150               	.LM245:
 2151               	.LVL178:
 2152 0990 0F93      		push r16
 2153 0992 1F93      		push r17
 2154               	/* prologue: function */
 2155               	/* frame size = 0 */
 2156               	.LM246:
 2157 0994 00D0      		rcall sc_top
 2158               	.LVL179:
 2159 0996 182F      		mov r17,r24
 2160               	.LM247:
 2161 0998 8EE4      		ldi r24,lo8(78)
 2162 099a 612F      		mov r22,r17
 2163 099c 4EE4      		ldi r20,lo8(78)
 2164 099e 25E2      		ldi r18,lo8(37)
 2165 09a0 01E0      		ldi r16,lo8(1)
 2166 09a2 00D0      		rcall lcd_line
 2167               	.LM248:
 2168 09a4 8FE4      		ldi r24,lo8(79)
 2169 09a6 612F      		mov r22,r17
 2170 09a8 4FE4      		ldi r20,lo8(79)
 2171 09aa 25E2      		ldi r18,lo8(37)
 2172 09ac 00D0      		rcall lcd_line
 2173               	/* epilogue start */
 2174               	.LM249:
 2175 09ae 1F91      		pop r17
 2176 09b0 0F91      		pop r16
 2177 09b2 0895      		ret
 2178               	.LFE54:
 2180               	.global	draw_update_speed_indicator
 2182               	draw_update_speed_indicator:
 2183               	.LFB56:
 2184               	.LM250:
 2185               	.LVL180:
 2186 09b4 0F93      		push r16
 2187 09b6 CF93      		push r28
 2188 09b8 DF93      		push r29
 2189               	/* prologue: function */
 2190               	/* frame size = 0 */
 2191 09ba EC01      		movw r28,r24
 2192               	.LM251:
 2193 09bc 8EE3      		ldi r24,lo8(62)
 2194               	.LVL181:
 2195 09be 6BE2      		ldi r22,lo8(43)
 2196 09c0 4EE3      		ldi r20,lo8(62)
 2197 09c2 2DE2      		ldi r18,lo8(45)
 2198 09c4 01E0      		ldi r16,lo8(1)
 2199 09c6 00D0      		rcall lcd_line
 2200               	.LM252:
 2201 09c8 8FE3      		ldi r24,lo8(63)
 2202 09ca 6BE2      		ldi r22,lo8(43)
 2203 09cc 4FE3      		ldi r20,lo8(63)
 2204 09ce 2DE2      		ldi r18,lo8(45)
 2205 09d0 00D0      		rcall lcd_line
 2206               	.LM253:
 2207 09d2 8EE0      		ldi r24,hi8(3600)
 2208 09d4 C031      		cpi r28,lo8(3600)
 2209 09d6 D807      		cpc r29,r24
 2210 09d8 01F0      		breq .L187
 2211               	.LM254:
 2212 09da 81E4      		ldi r24,lo8(65)
 2213 09dc 6AE2      		ldi r22,lo8(42)
 2214 09de 41E4      		ldi r20,lo8(65)
 2215 09e0 2DE2      		ldi r18,lo8(45)
 2216 09e2 00D0      		rcall lcd_line
 2217               	.LM255:
 2218 09e4 82E4      		ldi r24,lo8(66)
 2219 09e6 6AE2      		ldi r22,lo8(42)
 2220 09e8 42E4      		ldi r20,lo8(66)
 2221 09ea 2DE2      		ldi r18,lo8(45)
 2222 09ec 00D0      		rcall lcd_line
 2223               	.LM256:
 2224 09ee EC97      		sbiw r28,60
 2225 09f0 01F0      		breq .L187
 2226               	.LM257:
 2227 09f2 84E4      		ldi r24,lo8(68)
 2228 09f4 69E2      		ldi r22,lo8(41)
 2229 09f6 44E4      		ldi r20,lo8(68)
 2230 09f8 2DE2      		ldi r18,lo8(45)
 2231 09fa 00D0      		rcall lcd_line
 2232               	.LM258:
 2233 09fc 85E4      		ldi r24,lo8(69)
 2234 09fe 69E2      		ldi r22,lo8(41)
 2235 0a00 45E4      		ldi r20,lo8(69)
 2236 0a02 2DE2      		ldi r18,lo8(45)
 2237 0a04 00D0      		rcall lcd_line
 2238               	.L187:
 2239               	/* epilogue start */
 2240               	.LM259:
 2241 0a06 DF91      		pop r29
 2242 0a08 CF91      		pop r28
 2243               	.LVL182:
 2244 0a0a 0F91      		pop r16
 2245 0a0c 0895      		ret
 2246               	.LFE56:
 2248               	.global	lcd_draw
 2250               	lcd_draw:
 2251               	.LFB19:
 2252               	.LM260:
 2253               	.LVL183:
 2254 0a0e 2F92      		push r2
 2255 0a10 3F92      		push r3
 2256 0a12 4F92      		push r4
 2257 0a14 5F92      		push r5
 2258 0a16 6F92      		push r6
 2259 0a18 7F92      		push r7
 2260 0a1a 8F92      		push r8
 2261 0a1c 9F92      		push r9
 2262 0a1e AF92      		push r10
 2263 0a20 BF92      		push r11
 2264 0a22 CF92      		push r12
 2265 0a24 DF92      		push r13
 2266 0a26 EF92      		push r14
 2267               	.LVL184:
 2268 0a28 FF92      		push r15
 2269 0a2a 0F93      		push r16
 2270               	.LVL185:
 2271 0a2c 1F93      		push r17
 2272 0a2e CF93      		push r28
 2273 0a30 DF93      		push r29
 2274               	/* prologue: function */
 2275               	/* frame size = 0 */
 2276 0a32 3C01      		movw r6,r24
 2277 0a34 262E      		mov r2,r22
 2278 0a36 342E      		mov r3,r20
 2279 0a38 522E      		mov r5,r18
 2280 0a3a 4E2C      		mov r4,r14
 2281               	.LVL186:
 2282               	.LM261:
 2283 0a3c EE24      		clr r14
 2284 0a3e FF24      		clr r15
 2285               	.LVL187:
 2286 0a40 DD24      		clr r13
 2287               	.LBB244:
 2288               	.LM262:
 2289 0a42 802E      		mov r8,r16
 2290               	.LVL188:
 2291 0a44 9924      		clr r9
 2292               	.LVL189:
 2293               	.LBB245:
 2294               	.LM263:
 2295 0a46 A22E      		mov r10,r18
 2296 0a48 BB24      		clr r11
 2297 0a4a 00C0      		rjmp .L189
 2298               	.LVL190:
 2299               	.L191:
 2300               	.LBE245:
 2301               	.LBE244:
 2302               	.LM264:
 2303 0a4c 1C2F      		mov r17,r28
 2304               	.LVL191:
 2305 0a4e 1D0D      		add r17,r13
 2306               	.LBB250:
 2307               	.LBB248:
 2308               	.LBB246:
 2309               	.LM265:
 2310 0a50 812F      		mov r24,r17
 2311 0a52 8695      		lsr r24
 2312 0a54 8695      		lsr r24
 2313 0a56 8695      		lsr r24
 2314 0a58 9301      		movw r18,r6
 2315 0a5a 280F      		add r18,r24
 2316 0a5c 311D      		adc r19,__zero_reg__
 2317 0a5e C901      		movw r24,r18
 2318 0a60 00D0      		rcall __eerd_byte_m8
 2319 0a62 90E0      		ldi r25,lo8(0)
 2320 0a64 1770      		andi r17,lo8(7)
 2321 0a66 00C0      		rjmp 2f
 2322 0a68 9595      	1:	asr r25
 2323 0a6a 8795      		ror r24
 2324 0a6c 1A95      	2:	dec r17
 2325 0a6e 02F4      		brpl 1b
 2326 0a70 80FF      		sbrs r24,0
 2327 0a72 00C0      		rjmp .L190
 2328 0a74 8C2F      		mov r24,r28
 2329 0a76 820D      		add r24,r2
 2330 0a78 6C2D      		mov r22,r12
 2331 0a7a 442D      		mov r20,r4
 2332 0a7c 00D0      		rcall lcd_pixel
 2333               	.L190:
 2334               	.LBE246:
 2335               	.LM266:
 2336 0a7e 2196      		adiw r28,1
 2337               	.LVL192:
 2338               	.L193:
 2339 0a80 CA15      		cp r28,r10
 2340 0a82 DB05      		cpc r29,r11
 2341 0a84 04F0      		brlt .L191
 2342               	.LBE248:
 2343               	.LM267:
 2344 0a86 0894      		sec
 2345 0a88 E11C      		adc r14,__zero_reg__
 2346 0a8a F11C      		adc r15,__zero_reg__
 2347 0a8c D50C      		add r13,r5
 2348               	.L189:
 2349 0a8e E814      		cp r14,r8
 2350 0a90 F904      		cpc r15,r9
 2351 0a92 04F4      		brge .L194
 2352               	.LBB249:
 2353               	.LM268:
 2354 0a94 C0E0      		ldi r28,lo8(0)
 2355 0a96 D0E0      		ldi r29,hi8(0)
 2356               	.LBB247:
 2357               	.LM269:
 2358 0a98 C32C      		mov r12,r3
 2359 0a9a CE0C      		add r12,r14
 2360 0a9c 00C0      		rjmp .L193
 2361               	.L194:
 2362               	/* epilogue start */
 2363               	.LBE247:
 2364               	.LBE249:
 2365               	.LBE250:
 2366               	.LM270:
 2367 0a9e DF91      		pop r29
 2368 0aa0 CF91      		pop r28
 2369               	.LVL193:
 2370 0aa2 1F91      		pop r17
 2371               	.LVL194:
 2372 0aa4 0F91      		pop r16
 2373 0aa6 FF90      		pop r15
 2374 0aa8 EF90      		pop r14
 2375               	.LVL195:
 2376 0aaa DF90      		pop r13
 2377 0aac CF90      		pop r12
 2378 0aae BF90      		pop r11
 2379 0ab0 AF90      		pop r10
 2380 0ab2 9F90      		pop r9
 2381               	.LVL196:
 2382 0ab4 8F90      		pop r8
 2383               	.LVL197:
 2384 0ab6 7F90      		pop r7
 2385 0ab8 6F90      		pop r6
 2386               	.LVL198:
 2387 0aba 5F90      		pop r5
 2388               	.LVL199:
 2389 0abc 4F90      		pop r4
 2390               	.LVL200:
 2391 0abe 3F90      		pop r3
 2392               	.LVL201:
 2393 0ac0 2F90      		pop r2
 2394               	.LVL202:
 2395 0ac2 0895      		ret
 2396               	.LFE19:
 2398               	.global	draw_interface
 2400               	draw_interface:
 2401               	.LFB58:
 2402               	.LM271:
 2403 0ac4 EF92      		push r14
 2404 0ac6 0F93      		push r16
 2405 0ac8 1F93      		push r17
 2406 0aca CF93      		push r28
 2407 0acc DF93      		push r29
 2408               	/* prologue: function */
 2409               	/* frame size = 0 */
 2410               	.LM272:
 2411 0ace 81E0      		ldi r24,lo8(1)
 2412 0ad0 61E0      		ldi r22,lo8(1)
 2413 0ad2 4BE3      		ldi r20,lo8(59)
 2414 0ad4 21E0      		ldi r18,lo8(1)
 2415 0ad6 01E0      		ldi r16,lo8(1)
 2416 0ad8 00D0      		rcall lcd_line
 2417               	.LM273:
 2418 0ada 81E0      		ldi r24,lo8(1)
 2419 0adc 66E2      		ldi r22,lo8(38)
 2420 0ade 4BE3      		ldi r20,lo8(59)
 2421 0ae0 26E2      		ldi r18,lo8(38)
 2422 0ae2 00D0      		rcall lcd_line
 2423               	.LM274:
 2424 0ae4 81E0      		ldi r24,lo8(1)
 2425 0ae6 61E0      		ldi r22,lo8(1)
 2426 0ae8 41E0      		ldi r20,lo8(1)
 2427 0aea 26E2      		ldi r18,lo8(38)
 2428 0aec 00D0      		rcall lcd_line
 2429               	.LM275:
 2430 0aee 8BE3      		ldi r24,lo8(59)
 2431 0af0 61E0      		ldi r22,lo8(1)
 2432 0af2 4BE3      		ldi r20,lo8(59)
 2433 0af4 26E2      		ldi r18,lo8(38)
 2434 0af6 00D0      		rcall lcd_line
 2435 0af8 C1E0      		ldi r28,lo8(1)
 2436 0afa D0E0      		ldi r29,hi8(1)
 2437               	.LVL203:
 2438               	.L197:
 2439               	.LBB251:
 2440               	.LM276:
 2441 0afc C0FF      		sbrs r28,0
 2442 0afe 00C0      		rjmp .L196
 2443 0b00 8C2F      		mov r24,r28
 2444 0b02 6AE1      		ldi r22,lo8(26)
 2445 0b04 41E0      		ldi r20,lo8(1)
 2446 0b06 00D0      		rcall lcd_pixel
 2447               	.L196:
 2448               	.LM277:
 2449 0b08 2196      		adiw r28,1
 2450 0b0a CC33      		cpi r28,60
 2451 0b0c D105      		cpc r29,__zero_reg__
 2452 0b0e 01F4      		brne .L197
 2453               	.LBE251:
 2454               	.LM278:
 2455 0b10 8DE4      		ldi r24,lo8(77)
 2456 0b12 62E0      		ldi r22,lo8(2)
 2457 0b14 4DE4      		ldi r20,lo8(77)
 2458 0b16 26E2      		ldi r18,lo8(38)
 2459 0b18 01E0      		ldi r16,lo8(1)
 2460 0b1a 00D0      		rcall lcd_line
 2461               	.LM279:
 2462 0b1c 80E5      		ldi r24,lo8(80)
 2463 0b1e 62E0      		ldi r22,lo8(2)
 2464 0b20 40E5      		ldi r20,lo8(80)
 2465 0b22 26E2      		ldi r18,lo8(38)
 2466 0b24 00D0      		rcall lcd_line
 2467               	.LM280:
 2468 0b26 8EE4      		ldi r24,lo8(78)
 2469 0b28 61E0      		ldi r22,lo8(1)
 2470 0b2a 4FE4      		ldi r20,lo8(79)
 2471 0b2c 21E0      		ldi r18,lo8(1)
 2472 0b2e 00D0      		rcall lcd_line
 2473               	.LM281:
 2474 0b30 8EE4      		ldi r24,lo8(78)
 2475 0b32 66E2      		ldi r22,lo8(38)
 2476 0b34 4FE4      		ldi r20,lo8(79)
 2477 0b36 26E2      		ldi r18,lo8(38)
 2478 0b38 00D0      		rcall lcd_line
 2479 0b3a C1E0      		ldi r28,lo8(1)
 2480 0b3c D0E0      		ldi r29,hi8(1)
 2481               	.LVL204:
 2482 0b3e 16E0      		ldi r17,lo8(6)
 2483               	.L199:
 2484               	.LBB252:
 2485               	.LM282:
 2486 0b40 8CE4      		ldi r24,lo8(76)
 2487 0b42 612F      		mov r22,r17
 2488 0b44 41E0      		ldi r20,lo8(1)
 2489 0b46 00D0      		rcall lcd_pixel
 2490               	.LM283:
 2491 0b48 C0FD      		sbrc r28,0
 2492 0b4a 00C0      		rjmp .L198
 2493 0b4c 8BE4      		ldi r24,lo8(75)
 2494 0b4e 612F      		mov r22,r17
 2495 0b50 41E0      		ldi r20,lo8(1)
 2496 0b52 00D0      		rcall lcd_pixel
 2497               	.L198:
 2498               	.LM284:
 2499 0b54 2196      		adiw r28,1
 2500 0b56 1C5F      		subi r17,lo8(-(4))
 2501 0b58 1632      		cpi r17,lo8(38)
 2502 0b5a 01F4      		brne .L199
 2503 0b5c 18E0      		ldi r17,lo8(8)
 2504               	.L200:
 2505               	.LBE252:
 2506               	.LBB253:
 2507               	.LM285:
 2508 0b5e 80E0      		ldi r24,lo8(small_zero)
 2509 0b60 90E0      		ldi r25,hi8(small_zero)
 2510 0b62 66E4      		ldi r22,lo8(70)
 2511 0b64 412F      		mov r20,r17
 2512 0b66 24E0      		ldi r18,lo8(4)
 2513 0b68 05E0      		ldi r16,lo8(5)
 2514 0b6a EE24      		clr r14
 2515 0b6c E394      		inc r14
 2516 0b6e 00D0      		rcall lcd_draw
 2517 0b70 185F      		subi r17,lo8(-(8))
 2518               	.LM286:
 2519 0b72 1832      		cpi r17,lo8(40)
 2520 0b74 01F4      		brne .L200
 2521               	.LBE253:
 2522               	.LM287:
 2523 0b76 8EE3      		ldi r24,lo8(62)
 2524 0b78 62E2      		ldi r22,lo8(34)
 2525 0b7a 40E4      		ldi r20,lo8(64)
 2526 0b7c 22E2      		ldi r18,lo8(34)
 2527 0b7e 01E0      		ldi r16,lo8(1)
 2528 0b80 00D0      		rcall lcd_line
 2529               	.LM288:
 2530 0b82 80E0      		ldi r24,lo8(ball)
 2531 0b84 90E0      		ldi r25,hi8(ball)
 2532 0b86 6BE4      		ldi r22,lo8(75)
 2533 0b88 47E2      		ldi r20,lo8(39)
 2534 0b8a 28E0      		ldi r18,lo8(8)
 2535 0b8c 08E0      		ldi r16,lo8(8)
 2536 0b8e 00D0      		rcall lcd_draw
 2537               	.LM289:
 2538 0b90 80E0      		ldi r24,lo8(small_s)
 2539 0b92 90E0      		ldi r25,hi8(small_s)
 2540 0b94 66E3      		ldi r22,lo8(54)
 2541 0b96 49E2      		ldi r20,lo8(41)
 2542 0b98 23E0      		ldi r18,lo8(3)
 2543 0b9a 05E0      		ldi r16,lo8(5)
 2544 0b9c 00D0      		rcall lcd_draw
 2545               	.LM290:
 2546 0b9e 80E0      		ldi r24,lo8(small_p)
 2547 0ba0 90E0      		ldi r25,hi8(small_p)
 2548 0ba2 6AE3      		ldi r22,lo8(58)
 2549 0ba4 49E2      		ldi r20,lo8(41)
 2550 0ba6 23E0      		ldi r18,lo8(3)
 2551 0ba8 00D0      		rcall lcd_draw
 2552               	.LM291:
 2553 0baa 8091 0000 		lds r24,ovf_flag
 2554 0bae 8823      		tst r24
 2555 0bb0 01F0      		breq .L203
 2556 0bb2 12E4      		ldi r17,lo8(66)
 2557               	.L202:
 2558               	.LBB254:
 2559               	.LM292:
 2560 0bb4 812F      		mov r24,r17
 2561 0bb6 61E0      		ldi r22,lo8(1)
 2562 0bb8 412F      		mov r20,r17
 2563 0bba 26E0      		ldi r18,lo8(6)
 2564 0bbc 01E0      		ldi r16,lo8(1)
 2565 0bbe 00D0      		rcall lcd_line
 2566 0bc0 1F5F      		subi r17,lo8(-(1))
 2567               	.LM293:
 2568 0bc2 1734      		cpi r17,lo8(71)
 2569 0bc4 01F4      		brne .L202
 2570               	.LBE254:
 2571               	.LM294:
 2572 0bc6 84E4      		ldi r24,lo8(68)
 2573 0bc8 62E0      		ldi r22,lo8(2)
 2574 0bca 44E4      		ldi r20,lo8(68)
 2575 0bcc 25E0      		ldi r18,lo8(5)
 2576 0bce 00E0      		ldi r16,lo8(0)
 2577 0bd0 00D0      		rcall lcd_line
 2578               	.LM295:
 2579 0bd2 84E4      		ldi r24,lo8(68)
 2580 0bd4 64E0      		ldi r22,lo8(4)
 2581 0bd6 41E0      		ldi r20,lo8(1)
 2582 0bd8 00D0      		rcall lcd_pixel
 2583               	.L203:
 2584               	/* epilogue start */
 2585               	.LM296:
 2586 0bda DF91      		pop r29
 2587 0bdc CF91      		pop r28
 2588               	.LVL205:
 2589 0bde 1F91      		pop r17
 2590 0be0 0F91      		pop r16
 2591 0be2 EF90      		pop r14
 2592 0be4 0895      		ret
 2593               	.LFE58:
 2595               	.global	draw_values_line
 2597               	draw_values_line:
 2598               	.LFB57:
 2599               	.LM297:
 2600               	.LVL206:
 2601 0be6 EF92      		push r14
 2602 0be8 0F93      		push r16
 2603               	/* prologue: function */
 2604               	/* frame size = 0 */
 2605               	.LM298:
 2606 0bea 8431      		cpi r24,lo8(20)
 2607 0bec 01F0      		breq .L210
 2608 0bee 8035      		cpi r24,lo8(80)
 2609 0bf0 01F4      		brne .L214
 2610 0bf2 00C0      		rjmp .L217
 2611               	.L210:
 2612               	.LM299:
 2613 0bf4 80E0      		ldi r24,lo8(small_two)
 2614 0bf6 90E0      		ldi r25,hi8(small_two)
 2615               	.LVL207:
 2616 0bf8 62E4      		ldi r22,lo8(66)
 2617 0bfa 48E0      		ldi r20,lo8(8)
 2618 0bfc 23E0      		ldi r18,lo8(3)
 2619 0bfe 05E0      		ldi r16,lo8(5)
 2620 0c00 EE24      		clr r14
 2621 0c02 E394      		inc r14
 2622 0c04 00D0      		rcall lcd_draw
 2623               	.LM300:
 2624 0c06 80E0      		ldi r24,lo8(small_one)
 2625 0c08 90E0      		ldi r25,hi8(small_one)
 2626 0c0a 62E4      		ldi r22,lo8(66)
 2627 0c0c 40E1      		ldi r20,lo8(16)
 2628 0c0e 22E0      		ldi r18,lo8(2)
 2629 0c10 00D0      		rcall lcd_draw
 2630               	.LM301:
 2631 0c12 80E0      		ldi r24,lo8(small_one)
 2632 0c14 90E0      		ldi r25,hi8(small_one)
 2633 0c16 62E4      		ldi r22,lo8(66)
 2634 0c18 40E2      		ldi r20,lo8(32)
 2635 0c1a 22E0      		ldi r18,lo8(2)
 2636 0c1c 00C0      		rjmp .L215
 2637               	.LVL208:
 2638               	.L217:
 2639               	.LM302:
 2640 0c1e 80E0      		ldi r24,lo8(small_eight)
 2641 0c20 90E0      		ldi r25,hi8(small_eight)
 2642               	.LVL209:
 2643 0c22 62E4      		ldi r22,lo8(66)
 2644 0c24 48E0      		ldi r20,lo8(8)
 2645 0c26 23E0      		ldi r18,lo8(3)
 2646 0c28 05E0      		ldi r16,lo8(5)
 2647 0c2a EE24      		clr r14
 2648 0c2c E394      		inc r14
 2649 0c2e 00D0      		rcall lcd_draw
 2650               	.LM303:
 2651 0c30 80E0      		ldi r24,lo8(small_four)
 2652 0c32 90E0      		ldi r25,hi8(small_four)
 2653 0c34 62E4      		ldi r22,lo8(66)
 2654 0c36 40E1      		ldi r20,lo8(16)
 2655 0c38 23E0      		ldi r18,lo8(3)
 2656 0c3a 00D0      		rcall lcd_draw
 2657               	.LM304:
 2658 0c3c 80E0      		ldi r24,lo8(small_four)
 2659 0c3e 90E0      		ldi r25,hi8(small_four)
 2660 0c40 00C0      		rjmp .L216
 2661               	.LVL210:
 2662               	.L214:
 2663               	.LM305:
 2664 0c42 80E0      		ldi r24,lo8(small_four)
 2665 0c44 90E0      		ldi r25,hi8(small_four)
 2666               	.LVL211:
 2667 0c46 62E4      		ldi r22,lo8(66)
 2668 0c48 48E0      		ldi r20,lo8(8)
 2669 0c4a 23E0      		ldi r18,lo8(3)
 2670 0c4c 05E0      		ldi r16,lo8(5)
 2671 0c4e EE24      		clr r14
 2672 0c50 E394      		inc r14
 2673 0c52 00D0      		rcall lcd_draw
 2674               	.LM306:
 2675 0c54 80E0      		ldi r24,lo8(small_two)
 2676 0c56 90E0      		ldi r25,hi8(small_two)
 2677 0c58 62E4      		ldi r22,lo8(66)
 2678 0c5a 40E1      		ldi r20,lo8(16)
 2679 0c5c 23E0      		ldi r18,lo8(3)
 2680 0c5e 00D0      		rcall lcd_draw
 2681               	.LM307:
 2682 0c60 80E0      		ldi r24,lo8(small_two)
 2683 0c62 90E0      		ldi r25,hi8(small_two)
 2684               	.L216:
 2685 0c64 62E4      		ldi r22,lo8(66)
 2686 0c66 40E2      		ldi r20,lo8(32)
 2687 0c68 23E0      		ldi r18,lo8(3)
 2688               	.L215:
 2689 0c6a 00D0      		rcall lcd_draw
 2690               	/* epilogue start */
 2691               	.LM308:
 2692 0c6c 0F91      		pop r16
 2693 0c6e EF90      		pop r14
 2694 0c70 0895      		ret
 2695               	.LFE57:
 2697               	.global	lcd_put_char
 2699               	lcd_put_char:
 2700               	.LFB17:
 2701               	.LM309:
 2702               	.LVL212:
 2703 0c72 9F92      		push r9
 2704 0c74 AF92      		push r10
 2705 0c76 BF92      		push r11
 2706 0c78 CF92      		push r12
 2707 0c7a DF92      		push r13
 2708 0c7c EF92      		push r14
 2709 0c7e FF92      		push r15
 2710 0c80 0F93      		push r16
 2711 0c82 1F93      		push r17
 2712 0c84 CF93      		push r28
 2713 0c86 DF93      		push r29
 2714               	/* prologue: function */
 2715               	/* frame size = 0 */
 2716 0c88 F82E      		mov r15,r24
 2717 0c8a 962E      		mov r9,r22
 2718 0c8c A22E      		mov r10,r18
 2719               	.LBB255:
 2720               	.LBB256:
 2721               	.LM310:
 2722 0c8e 85E0      		ldi r24,lo8(5)
 2723               	.LVL213:
 2724 0c90 489F      		mul r20,r24
 2725 0c92 A001      		movw r20,r0
 2726 0c94 1124      		clr r1
 2727               	.LVL214:
 2728 0c96 8A01      		movw r16,r20
 2729 0c98 0050      		subi r16,lo8(-(CHARS_TABLE-160))
 2730 0c9a 1040      		sbci r17,hi8(-(CHARS_TABLE-160))
 2731               	.LBE256:
 2732               	.LM311:
 2733 0c9c 70E0      		ldi r23,lo8(CHARS_TABLE-155)
 2734 0c9e C72E      		mov r12,r23
 2735 0ca0 70E0      		ldi r23,hi8(CHARS_TABLE-155)
 2736 0ca2 D72E      		mov r13,r23
 2737 0ca4 C40E      		add r12,r20
 2738 0ca6 D51E      		adc r13,r21
 2739 0ca8 00C0      		rjmp .L219
 2740               	.LVL215:
 2741               	.L221:
 2742               	.LBB257:
 2743               	.LM312:
 2744 0caa 8B2D      		mov r24,r11
 2745 0cac 9E2D      		mov r25,r14
 2746 0cae 00D0      		rcall __eerd_byte_m8
 2747 0cb0 90E0      		ldi r25,lo8(0)
 2748 0cb2 0C2E      		mov r0,r28
 2749 0cb4 00C0      		rjmp 2f
 2750 0cb6 9595      	1:	asr r25
 2751 0cb8 8795      		ror r24
 2752 0cba 0A94      	2:	dec r0
 2753 0cbc 02F4      		brpl 1b
 2754 0cbe 80FF      		sbrs r24,0
 2755 0cc0 00C0      		rjmp .L220
 2756 0cc2 692D      		mov r22,r9
 2757 0cc4 6C0F      		add r22,r28
 2758 0cc6 8F2D      		mov r24,r15
 2759 0cc8 4A2D      		mov r20,r10
 2760 0cca 00D0      		rcall lcd_pixel
 2761               	.L220:
 2762               	.LM313:
 2763 0ccc 2196      		adiw r28,1
 2764 0cce C830      		cpi r28,8
 2765 0cd0 D105      		cpc r29,__zero_reg__
 2766 0cd2 01F4      		brne .L221
 2767 0cd4 0F5F      		subi r16,lo8(-(1))
 2768 0cd6 1F4F      		sbci r17,hi8(-(1))
 2769 0cd8 F394      		inc r15
 2770               	.LBE257:
 2771               	.LM314:
 2772 0cda 0C15      		cp r16,r12
 2773 0cdc 1D05      		cpc r17,r13
 2774 0cde 01F0      		breq .L223
 2775               	.LVL216:
 2776               	.L219:
 2777 0ce0 B02E      		mov r11,r16
 2778 0ce2 E12E      		mov r14,r17
 2779 0ce4 C0E0      		ldi r28,lo8(0)
 2780 0ce6 D0E0      		ldi r29,hi8(0)
 2781 0ce8 00C0      		rjmp .L221
 2782               	.LVL217:
 2783               	.L223:
 2784               	/* epilogue start */
 2785               	.LBE255:
 2786               	.LM315:
 2787 0cea DF91      		pop r29
 2788 0cec CF91      		pop r28
 2789               	.LVL218:
 2790 0cee 1F91      		pop r17
 2791 0cf0 0F91      		pop r16
 2792 0cf2 FF90      		pop r15
 2793               	.LVL219:
 2794 0cf4 EF90      		pop r14
 2795 0cf6 DF90      		pop r13
 2796 0cf8 CF90      		pop r12
 2797 0cfa BF90      		pop r11
 2798 0cfc AF90      		pop r10
 2799               	.LVL220:
 2800 0cfe 9F90      		pop r9
 2801               	.LVL221:
 2802 0d00 0895      		ret
 2803               	.LFE17:
 2805               	.global	lcd_put_string
 2807               	lcd_put_string:
 2808               	.LFB18:
 2809               	.LM316:
 2810               	.LVL222:
 2811 0d02 BF92      		push r11
 2812 0d04 CF92      		push r12
 2813 0d06 DF92      		push r13
 2814 0d08 EF92      		push r14
 2815 0d0a FF92      		push r15
 2816 0d0c 0F93      		push r16
 2817 0d0e 1F93      		push r17
 2818 0d10 CF93      		push r28
 2819 0d12 DF93      		push r29
 2820               	/* prologue: function */
 2821               	/* frame size = 0 */
 2822 0d14 D82E      		mov r13,r24
 2823 0d16 B62E      		mov r11,r22
 2824 0d18 7A01      		movw r14,r20
 2825 0d1a C22E      		mov r12,r18
 2826               	.LM317:
 2827 0d1c EA01      		movw r28,r20
 2828               	.LVL223:
 2829 0d1e 0990      		ld __tmp_reg__,Y+
 2830 0d20 0020      		tst __tmp_reg__
 2831 0d22 01F4      		brne .-6
 2832 0d24 2197      		sbiw r28,1
 2833 0d26 C41B      		sub r28,r20
 2834 0d28 D50B      		sbc r29,r21
 2835 0d2a 00E0      		ldi r16,lo8(0)
 2836 0d2c 10E0      		ldi r17,hi8(0)
 2837               	.LVL224:
 2838 0d2e 00C0      		rjmp .L226
 2839               	.LVL225:
 2840               	.L227:
 2841               	.LBB258:
 2842               	.LM318:
 2843 0d30 F701      		movw r30,r14
 2844 0d32 E00F      		add r30,r16
 2845 0d34 F11F      		adc r31,r17
 2846 0d36 8D2D      		mov r24,r13
 2847 0d38 6B2D      		mov r22,r11
 2848 0d3a 4081      		ld r20,Z
 2849               	.LVL226:
 2850 0d3c 2C2D      		mov r18,r12
 2851 0d3e 00D0      		rcall lcd_put_char
 2852               	.LM319:
 2853 0d40 0F5F      		subi r16,lo8(-(1))
 2854 0d42 1F4F      		sbci r17,hi8(-(1))
 2855 0d44 86E0      		ldi r24,lo8(6)
 2856 0d46 D80E      		add r13,r24
 2857               	.LVL227:
 2858               	.L226:
 2859 0d48 0C17      		cp r16,r28
 2860 0d4a 1D07      		cpc r17,r29
 2861 0d4c 04F0      		brlt .L227
 2862               	.LVL228:
 2863               	.LBE258:
 2864               	.LM320:
 2865 0d4e CE01      		movw r24,r28
 2866               	.LVL229:
 2867               	/* epilogue start */
 2868 0d50 DF91      		pop r29
 2869 0d52 CF91      		pop r28
 2870 0d54 1F91      		pop r17
 2871 0d56 0F91      		pop r16
 2872               	.LVL230:
 2873 0d58 FF90      		pop r15
 2874 0d5a EF90      		pop r14
 2875 0d5c DF90      		pop r13
 2876               	.LVL231:
 2877 0d5e CF90      		pop r12
 2878               	.LVL232:
 2879 0d60 BF90      		pop r11
 2880               	.LVL233:
 2881 0d62 0895      		ret
 2882               	.LFE18:
 2884               		.data
 2885               	.LC0:
 2886 0000 3000      		.string	"0"
 2887               		.text
 2888               	.global	draw_current_value
 2890               	draw_current_value:
 2891               	.LFB55:
 2892               	.LM321:
 2893               	.LVL234:
 2894 0d64 EF92      		push r14
 2895 0d66 0F93      		push r16
 2896 0d68 1F93      		push r17
 2897 0d6a DF93      		push r29
 2898 0d6c CF93      		push r28
 2899 0d6e 00D0      		rcall .
 2900 0d70 00D0      		rcall .
 2901 0d72 0F92      		push __tmp_reg__
 2902 0d74 CDB7      		in r28,__SP_L__
 2903 0d76 DEB7      		in r29,__SP_H__
 2904               	/* prologue: function */
 2905               	/* frame size = 5 */
 2906 0d78 8C01      		movw r16,r24
 2907               	.LM322:
 2908 0d7a 17FD      		sbrc r17,7
 2909 0d7c 00C0      		rjmp .L230
 2910               	.LVL235:
 2911 0d7e EE24      		clr r14
 2912 0d80 E394      		inc r14
 2913               	.LVL236:
 2914 0d82 00C0      		rjmp .L231
 2915               	.LVL237:
 2916               	.L230:
 2917               	.LM323:
 2918 0d84 81E0      		ldi r24,lo8(1)
 2919 0d86 68E2      		ldi r22,lo8(40)
 2920 0d88 4DE2      		ldi r20,lo8(45)
 2921 0d8a 21E0      		ldi r18,lo8(1)
 2922 0d8c 00D0      		rcall lcd_put_char
 2923               	.LM324:
 2924 0d8e C801      		movw r24,r16
 2925               	.LVL238:
 2926 0d90 8095      		com r24
 2927 0d92 9095      		com r25
 2928 0d94 A7E0      		ldi r26,lo8(7)
 2929 0d96 EA2E      		mov r14,r26
 2930               	.LVL239:
 2931               	.L231:
 2932               	.LM325:
 2933 0d98 292F      		mov r18,r25
 2934 0d9a 3327      		clr r19
 2935 0d9c 27FD      		sbrc r18,7
 2936 0d9e 3A95      		dec r19
 2937 0da0 30E0      		ldi r19,lo8(0)
 2938 0da2 2770      		andi r18,lo8(7)
 2939 0da4 3070      		andi r19,hi8(7)
 2940 0da6 E4E0      		ldi r30,4
 2941 0da8 220F      	1:	lsl r18
 2942 0daa 331F      		rol r19
 2943 0dac EA95      		dec r30
 2944 0dae 01F4      		brne 1b
 2945 0db0 8295      		swap r24
 2946               	.LVL240:
 2947 0db2 8F70      		andi r24,lo8(15)
 2948 0db4 822B      		or r24,r18
 2949 0db6 90E0      		ldi r25,lo8(0)
 2950 0db8 8E01      		movw r16,r28
 2951               	.LVL241:
 2952 0dba 0F5F      		subi r16,lo8(-(1))
 2953 0dbc 1F4F      		sbci r17,hi8(-(1))
 2954 0dbe B801      		movw r22,r16
 2955 0dc0 4AE0      		ldi r20,lo8(10)
 2956 0dc2 50E0      		ldi r21,hi8(10)
 2957 0dc4 00D0      		rcall itoa
 2958               	.LM326:
 2959 0dc6 8E2D      		mov r24,r14
 2960 0dc8 68E2      		ldi r22,lo8(40)
 2961 0dca A801      		movw r20,r16
 2962 0dcc 21E0      		ldi r18,lo8(1)
 2963 0dce 00D0      		rcall lcd_put_string
 2964               	.LM327:
 2965 0dd0 06E0      		ldi r16,lo8(6)
 2966 0dd2 809F      		mul r24,r16
 2967 0dd4 C001      		movw r24,r0
 2968 0dd6 1124      		clr r1
 2969 0dd8 1E2D      		mov r17,r14
 2970               	.LVL242:
 2971 0dda 180F      		add r17,r24
 2972               	.LVL243:
 2973               	.LM328:
 2974 0ddc 812F      		mov r24,r17
 2975 0dde 68E2      		ldi r22,lo8(40)
 2976 0de0 4EE2      		ldi r20,lo8(46)
 2977 0de2 21E0      		ldi r18,lo8(1)
 2978 0de4 00D0      		rcall lcd_put_char
 2979               	.LM329:
 2980 0de6 1A5F      		subi r17,lo8(-(6))
 2981               	.LVL244:
 2982               	.LM330:
 2983 0de8 812F      		mov r24,r17
 2984 0dea 68E2      		ldi r22,lo8(40)
 2985 0dec 40E0      		ldi r20,lo8(.LC0)
 2986 0dee 50E0      		ldi r21,hi8(.LC0)
 2987 0df0 21E0      		ldi r18,lo8(1)
 2988 0df2 00D0      		rcall lcd_put_string
 2989               	.LM331:
 2990 0df4 809F      		mul r24,r16
 2991 0df6 C001      		movw r24,r0
 2992 0df8 1124      		clr r1
 2993 0dfa 180F      		add r17,r24
 2994               	.LVL245:
 2995               	.LM332:
 2996 0dfc 80E0      		ldi r24,lo8(deg_char)
 2997 0dfe 90E0      		ldi r25,hi8(deg_char)
 2998 0e00 612F      		mov r22,r17
 2999 0e02 48E2      		ldi r20,lo8(40)
 3000 0e04 25E0      		ldi r18,lo8(5)
 3001 0e06 03E0      		ldi r16,lo8(3)
 3002 0e08 EE24      		clr r14
 3003 0e0a E394      		inc r14
 3004 0e0c 00D0      		rcall lcd_draw
 3005               	.LM333:
 3006 0e0e 812F      		mov r24,r17
 3007 0e10 8A5F      		subi r24,lo8(-(6))
 3008 0e12 68E2      		ldi r22,lo8(40)
 3009 0e14 43E4      		ldi r20,lo8(67)
 3010 0e16 21E0      		ldi r18,lo8(1)
 3011 0e18 00D0      		rcall lcd_put_char
 3012               	/* epilogue start */
 3013               	.LM334:
 3014 0e1a 0F90      		pop __tmp_reg__
 3015 0e1c 0F90      		pop __tmp_reg__
 3016 0e1e 0F90      		pop __tmp_reg__
 3017 0e20 0F90      		pop __tmp_reg__
 3018 0e22 0F90      		pop __tmp_reg__
 3019 0e24 CF91      		pop r28
 3020 0e26 DF91      		pop r29
 3021 0e28 1F91      		pop r17
 3022               	.LVL246:
 3023 0e2a 0F91      		pop r16
 3024 0e2c EF90      		pop r14
 3025 0e2e 0895      		ret
 3026               	.LFE55:
 3028               	.global	print_hook
 3030               	print_hook:
 3031               	.LFB49:
 3032               	.LM335:
 3033               	.LVL247:
 3034 0e30 DF92      		push r13
 3035 0e32 EF92      		push r14
 3036 0e34 FF92      		push r15
 3037 0e36 0F93      		push r16
 3038 0e38 1F93      		push r17
 3039 0e3a DF93      		push r29
 3040 0e3c CF93      		push r28
 3041 0e3e 00D0      		rcall .
 3042 0e40 00D0      		rcall .
 3043 0e42 0F92      		push __tmp_reg__
 3044 0e44 CDB7      		in r28,__SP_L__
 3045 0e46 DEB7      		in r29,__SP_H__
 3046               	/* prologue: function */
 3047               	/* frame size = 5 */
 3048               	.LM336:
 3049 0e48 AC01      		movw r20,r24
 3050 0e4a 4F5F      		subi r20,lo8(-(1))
 3051 0e4c 5F4F      		sbci r21,hi8(-(1))
 3052 0e4e 9A01      		movw r18,r20
 3053 0e50 63E0      		ldi r22,3
 3054 0e52 220F      	1:	lsl r18
 3055 0e54 331F      		rol r19
 3056 0e56 6A95      		dec r22
 3057 0e58 01F4      		brne 1b
 3058 0e5a 240F      		add r18,r20
 3059 0e5c 351F      		adc r19,r21
 3060 0e5e 33E0      		ldi r19,lo8(3)
 3061 0e60 D32E      		mov r13,r19
 3062               	.LVL248:
 3063 0e62 D20E      		add r13,r18
 3064               	.LM337:
 3065 0e64 7C01      		movw r14,r24
 3066 0e66 EE0C      		lsl r14
 3067 0e68 FF1C      		rol r15
 3068 0e6a EE0C      		lsl r14
 3069 0e6c FF1C      		rol r15
 3070 0e6e E80E      		add r14,r24
 3071 0e70 F91E      		adc r15,r25
 3072 0e72 80E0      		ldi r24,lo8(hooks)
 3073 0e74 90E0      		ldi r25,hi8(hooks)
 3074               	.LVL249:
 3075 0e76 E80E      		add r14,r24
 3076 0e78 F91E      		adc r15,r25
 3077 0e7a D701      		movw r26,r14
 3078 0e7c EC91      		ld r30,X
 3079 0e7e F0E0      		ldi r31,lo8(0)
 3080 0e80 EE0F      		lsl r30
 3081 0e82 FF1F      		rol r31
 3082 0e84 E050      		subi r30,lo8(-(cmps))
 3083 0e86 F040      		sbci r31,hi8(-(cmps))
 3084 0e88 4081      		ld r20,Z
 3085 0e8a 5181      		ldd r21,Z+1
 3086 0e8c 81E0      		ldi r24,lo8(1)
 3087 0e8e 6D2D      		mov r22,r13
 3088 0e90 21E0      		ldi r18,lo8(1)
 3089 0e92 00D0      		rcall lcd_put_string
 3090               	.LM338:
 3091 0e94 F701      		movw r30,r14
 3092 0e96 8181      		ldd r24,Z+1
 3093 0e98 9281      		ldd r25,Z+2
 3094 0e9a 8E01      		movw r16,r28
 3095 0e9c 0F5F      		subi r16,lo8(-(1))
 3096 0e9e 1F4F      		sbci r17,hi8(-(1))
 3097 0ea0 B801      		movw r22,r16
 3098 0ea2 4AE0      		ldi r20,lo8(10)
 3099 0ea4 50E0      		ldi r21,hi8(10)
 3100 0ea6 00D0      		rcall itoa
 3101               	.LM339:
 3102 0ea8 82E1      		ldi r24,lo8(18)
 3103 0eaa 6D2D      		mov r22,r13
 3104 0eac A801      		movw r20,r16
 3105 0eae 21E0      		ldi r18,lo8(1)
 3106 0eb0 00D0      		rcall lcd_put_string
 3107               	.LM340:
 3108 0eb2 D701      		movw r26,r14
 3109 0eb4 1396      		adiw r26,3
 3110 0eb6 EC91      		ld r30,X
 3111 0eb8 F0E0      		ldi r31,lo8(0)
 3112 0eba EE0F      		lsl r30
 3113 0ebc FF1F      		rol r31
 3114 0ebe E050      		subi r30,lo8(-(acts))
 3115 0ec0 F040      		sbci r31,hi8(-(acts))
 3116 0ec2 4081      		ld r20,Z
 3117 0ec4 5181      		ldd r21,Z+1
 3118 0ec6 8AE2      		ldi r24,lo8(42)
 3119 0ec8 6D2D      		mov r22,r13
 3120 0eca 21E0      		ldi r18,lo8(1)
 3121 0ecc 00D0      		rcall lcd_put_string
 3122               	.LM341:
 3123 0ece F701      		movw r30,r14
 3124 0ed0 8381      		ldd r24,Z+3
 3125 0ed2 8823      		tst r24
 3126 0ed4 01F0      		breq .L235
 3127               	.LM342:
 3128 0ed6 E481      		ldd r30,Z+4
 3129 0ed8 F0E0      		ldi r31,lo8(0)
 3130 0eda EE0F      		lsl r30
 3131 0edc FF1F      		rol r31
 3132 0ede E050      		subi r30,lo8(-(ports-8))
 3133 0ee0 F040      		sbci r31,hi8(-(ports-8))
 3134 0ee2 4081      		ld r20,Z
 3135 0ee4 5181      		ldd r21,Z+1
 3136 0ee6 84E4      		ldi r24,lo8(68)
 3137 0ee8 6D2D      		mov r22,r13
 3138 0eea 21E0      		ldi r18,lo8(1)
 3139 0eec 00D0      		rcall lcd_put_string
 3140               	.L235:
 3141               	/* epilogue start */
 3142               	.LM343:
 3143 0eee 0F90      		pop __tmp_reg__
 3144 0ef0 0F90      		pop __tmp_reg__
 3145 0ef2 0F90      		pop __tmp_reg__
 3146 0ef4 0F90      		pop __tmp_reg__
 3147 0ef6 0F90      		pop __tmp_reg__
 3148 0ef8 CF91      		pop r28
 3149 0efa DF91      		pop r29
 3150 0efc 1F91      		pop r17
 3151 0efe 0F91      		pop r16
 3152 0f00 FF90      		pop r15
 3153 0f02 EF90      		pop r14
 3154 0f04 DF90      		pop r13
 3155               	.LVL250:
 3156 0f06 0895      		ret
 3157               	.LFE49:
 3159               	.global	lcd_clear
 3161               	lcd_clear:
 3162               	.LFB8:
 3163               	.LM344:
 3164               	/* prologue: function */
 3165               	/* frame size = 0 */
 3166               	.LM345:
 3167 0f08 88EF      		ldi r24,lo8(504)
 3168 0f0a 91E0      		ldi r25,hi8(504)
 3169 0f0c E0E0      		ldi r30,lo8(LCD_CACHE)
 3170 0f0e F0E0      		ldi r31,hi8(LCD_CACHE)
 3171 0f10 DF01      		movw r26,r30
 3172 0f12 9C01      		movw r18,r24
 3173 0f14 1D92      		st X+,__zero_reg__
 3174 0f16 2150      		subi r18,1
 3175 0f18 3040      		sbci r19,0
 3176 0f1a 01F4      		brne .-8
 3177               	.LM346:
 3178 0f1c 1092 0000 		sts (LWM)+1,__zero_reg__
 3179 0f20 1092 0000 		sts LWM,__zero_reg__
 3180               	.LM347:
 3181 0f24 87EF      		ldi r24,lo8(503)
 3182 0f26 91E0      		ldi r25,hi8(503)
 3183 0f28 9093 0000 		sts (HWM)+1,r25
 3184 0f2c 8093 0000 		sts HWM,r24
 3185               	/* epilogue start */
 3186               	.LM348:
 3187 0f30 0895      		ret
 3188               	.LFE8:
 3190               	.global	lcd_init
 3192               	lcd_init:
 3193               	.LFB10:
 3194               	.LM349:
 3195               	/* prologue: function */
 3196               	/* frame size = 0 */
 3197               	.LM350:
 3198 0f32 C49A      		sbi 56-32,4
 3199               	.LM351:
 3200 0f34 87B3      		in r24,55-32
 3201 0f36 8E63      		ori r24,lo8(62)
 3202 0f38 87BB      		out 55-32,r24
 3203               	.LM352:
 3204 0f3a C498      		cbi 56-32,4
 3205               	.LM353:
 3206 0f3c C49A      		sbi 56-32,4
 3207               	.LM354:
 3208 0f3e 80E5      		ldi r24,lo8(80)
 3209 0f40 8DB9      		out 45-32,r24
 3210               	.LM355:
 3211 0f42 C29A      		sbi 56-32,2
 3212               	.LM356:
 3213 0f44 81E2      		ldi r24,lo8(33)
 3214 0f46 00D0      		rcall lcd_send_cmd
 3215               	.LM357:
 3216 0f48 88EC      		ldi r24,lo8(-56)
 3217 0f4a 00D0      		rcall lcd_send_cmd
 3218               	.LM358:
 3219 0f4c 86E0      		ldi r24,lo8(6)
 3220 0f4e 00D0      		rcall lcd_send_cmd
 3221               	.LM359:
 3222 0f50 83E1      		ldi r24,lo8(19)
 3223 0f52 00D0      		rcall lcd_send_cmd
 3224               	.LM360:
 3225 0f54 80E2      		ldi r24,lo8(32)
 3226 0f56 00D0      		rcall lcd_send_cmd
 3227               	.LM361:
 3228 0f58 8CE0      		ldi r24,lo8(12)
 3229 0f5a 00D0      		rcall lcd_send_cmd
 3230               	.LM362:
 3231 0f5c 00D0      		rcall lcd_clear
 3232               	.LM363:
 3233 0f5e 00D0      		rcall lcd_update
 3234               	/* epilogue start */
 3235               	.LM364:
 3236 0f60 0895      		ret
 3237               	.LFE10:
 3239               		.data
 3240               	.LC1:
 3241 0002 486F 6F6B 		.string	"Hooks"
 3241      7300 
 3242               		.text
 3243               	.global	main
 3245               	main:
 3246               	.LFB47:
 3247               	.LM365:
 3248 0f62 2F92      		push r2
 3249 0f64 3F92      		push r3
 3250 0f66 4F92      		push r4
 3251 0f68 5F92      		push r5
 3252 0f6a 6F92      		push r6
 3253 0f6c 7F92      		push r7
 3254 0f6e 8F92      		push r8
 3255 0f70 9F92      		push r9
 3256 0f72 AF92      		push r10
 3257 0f74 BF92      		push r11
 3258 0f76 CF92      		push r12
 3259 0f78 DF92      		push r13
 3260 0f7a EF92      		push r14
 3261 0f7c FF92      		push r15
 3262 0f7e 0F93      		push r16
 3263 0f80 1F93      		push r17
 3264 0f82 DF93      		push r29
 3265 0f84 CF93      		push r28
 3266 0f86 0F92      		push __tmp_reg__
 3267 0f88 CDB7      		in r28,__SP_L__
 3268 0f8a DEB7      		in r29,__SP_H__
 3269               	/* prologue: function */
 3270               	/* frame size = 1 */
 3271               	.LM366:
 3272 0f8c 00D0      		rcall lcd_init
 3273               	.LBB259:
 3274               	.LBB260:
 3275               	.LM367:
 3276 0f8e 14BA      		out 52-32,__zero_reg__
 3277               	.LM368:
 3278 0f90 80EF      		ldi r24,lo8(-16)
 3279 0f92 81BB      		out 49-32,r24
 3280               	.LBE260:
 3281               	.LBE259:
 3282               	.LBB261:
 3283               	.LBB262:
 3284               	.LM369:
 3285 0f94 84E0      		ldi r24,lo8(4)
 3286 0f96 83BF      		out 83-32,r24
 3287               	.LM370:
 3288 0f98 89B7      		in r24,89-32
 3289 0f9a 8160      		ori r24,lo8(1)
 3290 0f9c 89BF      		out 89-32,r24
 3291               	.LM371:
 3292               	/* #APP */
 3293               	 ;  25 "include/clock.h" 1
 3294 0f9e 7894      		sei
 3295               	 ;  0 "" 2
 3296               	/* #NOAPP */
 3297               	.LBE262:
 3298               	.LBE261:
 3299               	.LBB263:
 3300               	.LBB264:
 3301               	.LBB265:
 3302               	.LM372:
 3303 0fa0 84E0      		ldi r24,lo8(4)
 3304 0fa2 8093 0000 		sts hooks+9,r24
 3305 0fa6 8093 0000 		sts hooks+14,r24
 3306 0faa 8093 0000 		sts hooks+19,r24
 3307               	.LBE265:
 3308               	.LBE264:
 3309               	.LBE263:
 3310               	.LM373:
 3311 0fae 86E0      		ldi r24,lo8(6)
 3312 0fb0 8093 0000 		sts hooks+4,r24
 3313               	.LM374:
 3314 0fb4 81E0      		ldi r24,lo8(1)
 3315 0fb6 8093 0000 		sts hooks+3,r24
 3316               	.LM375:
 3317 0fba 1092 0000 		sts hooks,__zero_reg__
 3318               	.LM376:
 3319 0fbe 88E1      		ldi r24,lo8(24)
 3320 0fc0 90E0      		ldi r25,hi8(24)
 3321 0fc2 9093 0000 		sts (hooks+1)+1,r25
 3322 0fc6 8093 0000 		sts hooks+1,r24
 3323               	.LVL251:
 3324               	.L378:
 3325               	.LBB266:
 3326               	.LBB267:
 3327               	.LBB268:
 3328               	.LBB269:
 3329               	.LM377:
 3330 0fca 80E2      		ldi r24,lo8(20000)
 3331 0fcc 9EE4      		ldi r25,hi8(20000)
 3332               	.LVL252:
 3333               	/* #APP */
 3334               	 ;  105 "c:/winavr-20100110/lib/gcc/../../avr/include/util/delay_basic.h" 1
 3335 0fce 0197      		1: sbiw r24,1
 3336 0fd0 01F4      		brne 1b
 3337               	 ;  0 "" 2
 3338               	/* #NOAPP */
 3339               	.LBE269:
 3340               	.LBE268:
 3341               	.LBE267:
 3342               	.LBE266:
 3343               	.LM378:
 3344 0fd2 8091 0000 		lds r24,shown_value
 3345 0fd6 9091 0000 		lds r25,(shown_value)+1
 3346               	.LVL253:
 3347 0fda 00D0      		rcall handle_hooks
 3348               	.LM379:
 3349 0fdc 8091 0000 		lds r24,conversion
 3350 0fe0 8823      		tst r24
 3351 0fe2 01F4      		brne .L241
 3352               	.LM380:
 3353 0fe4 00D0      		rcall dt_convert
 3354               	.LM381:
 3355 0fe6 21E0      		ldi r18,lo8(1)
 3356 0fe8 2093 0000 		sts conversion,r18
 3357               	.LM382:
 3358 0fec 8091 0000 		lds r24,__clock__
 3359 0ff0 8093 0000 		sts conversion_start,r24
 3360 0ff4 8091 0000 		lds r24,__clock__+1
 3361 0ff8 8093 0000 		sts conversion_start+1,r24
 3362 0ffc 8091 0000 		lds r24,__clock__+2
 3363 1000 8093 0000 		sts conversion_start+2,r24
 3364 1004 8091 0000 		lds r24,__clock__+3
 3365 1008 8093 0000 		sts conversion_start+3,r24
 3366 100c 8091 0000 		lds r24,__clock__+4
 3367 1010 8093 0000 		sts conversion_start+4,r24
 3368 1014 8091 0000 		lds r24,__clock__+5
 3369 1018 8093 0000 		sts conversion_start+5,r24
 3370 101c 8091 0000 		lds r24,__clock__+6
 3371 1020 8093 0000 		sts conversion_start+6,r24
 3372 1024 8091 0000 		lds r24,__clock__+7
 3373 1028 8093 0000 		sts conversion_start+7,r24
 3374               	.L241:
 3375               	.LM383:
 3376 102c 9091 0000 		lds r25,__clock__
 3377 1030 4091 0000 		lds r20,__clock__+1
 3378 1034 7091 0000 		lds r23,__clock__+2
 3379 1038 F091 0000 		lds r31,__clock__+3
 3380 103c B091 0000 		lds r27,__clock__+4
 3381 1040 0091 0000 		lds r16,__clock__+5
 3382               	.LVL254:
 3383 1044 E090 0000 		lds r14,__clock__+6
 3384 1048 6091 0000 		lds r22,__clock__+7
 3385 104c 8091 0000 		lds r24,conversion_start
 3386 1050 2091 0000 		lds r18,conversion_start+1
 3387 1054 E091 0000 		lds r30,conversion_start+2
 3388 1058 A091 0000 		lds r26,conversion_start+3
 3389 105c F090 0000 		lds r15,conversion_start+4
 3390 1060 D090 0000 		lds r13,conversion_start+5
 3391 1064 B090 0000 		lds r11,conversion_start+6
 3392 1068 A090 0000 		lds r10,conversion_start+7
 3393 106c C92E      		mov r12,r25
 3394 106e C81A      		sub r12,r24
 3395 1070 31E0      		ldi r19,lo8(1)
 3396 1072 9C15      		cp r25,r12
 3397 1074 00F0      		brlo .L243
 3398 1076 30E0      		ldi r19,lo8(0)
 3399               	.L243:
 3400 1078 842F      		mov r24,r20
 3401 107a 821B      		sub r24,r18
 3402 107c 21E0      		ldi r18,lo8(1)
 3403 107e 4817      		cp r20,r24
 3404 1080 00F0      		brlo .L244
 3405 1082 20E0      		ldi r18,lo8(0)
 3406               	.L244:
 3407 1084 582F      		mov r21,r24
 3408 1086 531B      		sub r21,r19
 3409 1088 91E0      		ldi r25,lo8(1)
 3410 108a 8517      		cp r24,r21
 3411 108c 00F0      		brlo .L245
 3412 108e 90E0      		ldi r25,lo8(0)
 3413               	.L245:
 3414 1090 292B      		or r18,r25
 3415 1092 872F      		mov r24,r23
 3416 1094 8E1B      		sub r24,r30
 3417 1096 31E0      		ldi r19,lo8(1)
 3418 1098 7817      		cp r23,r24
 3419 109a 00F0      		brlo .L246
 3420 109c 30E0      		ldi r19,lo8(0)
 3421               	.L246:
 3422 109e 182F      		mov r17,r24
 3423 10a0 121B      		sub r17,r18
 3424 10a2 91E0      		ldi r25,lo8(1)
 3425 10a4 8117      		cp r24,r17
 3426 10a6 00F0      		brlo .L247
 3427 10a8 90E0      		ldi r25,lo8(0)
 3428               	.L247:
 3429 10aa 392B      		or r19,r25
 3430 10ac 8F2F      		mov r24,r31
 3431 10ae 8A1B      		sub r24,r26
 3432 10b0 21E0      		ldi r18,lo8(1)
 3433 10b2 F817      		cp r31,r24
 3434 10b4 00F0      		brlo .L248
 3435 10b6 20E0      		ldi r18,lo8(0)
 3436               	.L248:
 3437 10b8 E82F      		mov r30,r24
 3438 10ba E31B      		sub r30,r19
 3439 10bc 91E0      		ldi r25,lo8(1)
 3440 10be 8E17      		cp r24,r30
 3441 10c0 00F0      		brlo .L249
 3442 10c2 90E0      		ldi r25,lo8(0)
 3443               	.L249:
 3444 10c4 292B      		or r18,r25
 3445 10c6 8B2F      		mov r24,r27
 3446 10c8 8F19      		sub r24,r15
 3447 10ca 31E0      		ldi r19,lo8(1)
 3448 10cc B817      		cp r27,r24
 3449 10ce 00F0      		brlo .L250
 3450 10d0 30E0      		ldi r19,lo8(0)
 3451               	.L250:
 3452 10d2 782F      		mov r23,r24
 3453 10d4 721B      		sub r23,r18
 3454 10d6 91E0      		ldi r25,lo8(1)
 3455 10d8 8717      		cp r24,r23
 3456 10da 00F0      		brlo .L251
 3457 10dc 90E0      		ldi r25,lo8(0)
 3458               	.L251:
 3459 10de 392B      		or r19,r25
 3460 10e0 802F      		mov r24,r16
 3461 10e2 8D19      		sub r24,r13
 3462 10e4 21E0      		ldi r18,lo8(1)
 3463 10e6 0817      		cp r16,r24
 3464 10e8 00F0      		brlo .L252
 3465 10ea 20E0      		ldi r18,lo8(0)
 3466               	.L252:
 3467 10ec 482F      		mov r20,r24
 3468 10ee 431B      		sub r20,r19
 3469 10f0 91E0      		ldi r25,lo8(1)
 3470 10f2 8417      		cp r24,r20
 3471 10f4 00F0      		brlo .L253
 3472 10f6 90E0      		ldi r25,lo8(0)
 3473               	.L253:
 3474 10f8 292B      		or r18,r25
 3475 10fa 8E2D      		mov r24,r14
 3476 10fc 8B19      		sub r24,r11
 3477 10fe 91E0      		ldi r25,lo8(1)
 3478 1100 E816      		cp r14,r24
 3479 1102 00F0      		brlo .L254
 3480 1104 90E0      		ldi r25,lo8(0)
 3481               	.L254:
 3482 1106 382F      		mov r19,r24
 3483 1108 321B      		sub r19,r18
 3484 110a 21E0      		ldi r18,lo8(1)
 3485 110c 8317      		cp r24,r19
 3486 110e 00F0      		brlo .L255
 3487 1110 20E0      		ldi r18,lo8(0)
 3488               	.L255:
 3489 1112 922B      		or r25,r18
 3490 1114 6A19      		sub r22,r10
 3491 1116 6917      		cp r22,r25
 3492 1118 01F4      		brne .L380
 3493 111a 3323      		tst r19
 3494 111c 01F4      		brne .L380
 3495 111e 4423      		tst r20
 3496 1120 01F4      		brne .L380
 3497 1122 7723      		tst r23
 3498 1124 01F4      		brne .L380
 3499 1126 EE23      		tst r30
 3500 1128 01F4      		brne .L380
 3501 112a 1123      		tst r17
 3502 112c 01F4      		brne .L380
 3503 112e 5330      		cpi r21,lo8(3)
 3504 1130 00F4      		brsh .L380
 3505 1132 5230      		cpi r21,lo8(2)
 3506 1134 01F4      		brne .L242
 3507 1136 3EEE      		ldi r19,lo8(-18)
 3508 1138 3C15      		cp r19,r12
 3509 113a 00F4      		brsh .L242
 3510               	.L380:
 3511               	.LM384:
 3512 113c 00D0      		rcall dt_read
 3513 113e 9093 0000 		sts (actual_t)+1,r25
 3514 1142 8093 0000 		sts actual_t,r24
 3515               	.LM385:
 3516 1146 1092 0000 		sts conversion,__zero_reg__
 3517               	.L242:
 3518               	.LBB270:
 3519               	.LBB271:
 3520               	.LM386:
 3521 114a C090 0000 		lds r12,__clock__
 3522 114e B090 0000 		lds r11,__clock__+1
 3523 1152 A090 0000 		lds r10,__clock__+2
 3524 1156 9090 0000 		lds r9,__clock__+3
 3525 115a 8090 0000 		lds r8,__clock__+4
 3526 115e 7090 0000 		lds r7,__clock__+5
 3527 1162 6090 0000 		lds r6,__clock__+6
 3528 1166 4091 0000 		lds r20,__clock__+7
 3529 116a 4983      		std Y+1,r20
 3530               	.LBE271:
 3531               	.LBE270:
 3532               	.LM387:
 3533 116c 8091 0000 		lds r24,usp
 3534 1170 9091 0000 		lds r25,(usp)+1
 3535 1174 FC01      		movw r30,r24
 3536 1176 28EE      		ldi r18,lo8(1000)
 3537 1178 33E0      		ldi r19,hi8(1000)
 3538 117a E29F      		mul r30,r18
 3539 117c C001      		movw r24,r0
 3540 117e E39F      		mul r30,r19
 3541 1180 900D      		add r25,r0
 3542 1182 F29F      		mul r31,r18
 3543 1184 900D      		add r25,r0
 3544 1186 1124      		clr r1
 3545 1188 8456      		subi r24,lo8(-(-100))
 3546 118a 9040      		sbci r25,hi8(-(-100))
 3547 118c 8C01      		movw r16,r24
 3548 118e 20E0      		ldi r18,lo8(0)
 3549 1190 30E0      		ldi r19,hi8(0)
 3550 1192 40E0      		ldi r20,lo8(0)
 3551 1194 50E0      		ldi r21,hi8(0)
 3552 1196 60E0      		ldi r22,hlo8(0)
 3553 1198 70E0      		ldi r23,hhi8(0)
 3554 119a 8091 0000 		lds r24,last_upd
 3555 119e E091 0000 		lds r30,last_upd+1
 3556 11a2 F091 0000 		lds r31,last_upd+2
 3557 11a6 A091 0000 		lds r26,last_upd+3
 3558 11aa B091 0000 		lds r27,last_upd+4
 3559 11ae 5090 0000 		lds r5,last_upd+5
 3560 11b2 4090 0000 		lds r4,last_upd+6
 3561 11b6 2090 0000 		lds r2,last_upd+7
 3562 11ba 3C2C      		mov r3,r12
 3563 11bc 381A      		sub r3,r24
 3564 11be 91E0      		ldi r25,lo8(1)
 3565 11c0 C314      		cp r12,r3
 3566 11c2 00F0      		brlo .L258
 3567 11c4 90E0      		ldi r25,lo8(0)
 3568               	.L258:
 3569 11c6 8B2D      		mov r24,r11
 3570 11c8 8E1B      		sub r24,r30
 3571 11ca E1E0      		ldi r30,lo8(1)
 3572 11cc B816      		cp r11,r24
 3573 11ce 00F0      		brlo .L259
 3574 11d0 E0E0      		ldi r30,lo8(0)
 3575               	.L259:
 3576 11d2 D82E      		mov r13,r24
 3577 11d4 D91A      		sub r13,r25
 3578 11d6 91E0      		ldi r25,lo8(1)
 3579 11d8 8D15      		cp r24,r13
 3580 11da 00F0      		brlo .L260
 3581 11dc 90E0      		ldi r25,lo8(0)
 3582               	.L260:
 3583 11de E92B      		or r30,r25
 3584 11e0 8A2D      		mov r24,r10
 3585 11e2 8F1B      		sub r24,r31
 3586 11e4 F1E0      		ldi r31,lo8(1)
 3587 11e6 A816      		cp r10,r24
 3588 11e8 00F0      		brlo .L261
 3589 11ea F0E0      		ldi r31,lo8(0)
 3590               	.L261:
 3591 11ec E82E      		mov r14,r24
 3592 11ee EE1A      		sub r14,r30
 3593 11f0 91E0      		ldi r25,lo8(1)
 3594 11f2 8E15      		cp r24,r14
 3595 11f4 00F0      		brlo .L262
 3596 11f6 90E0      		ldi r25,lo8(0)
 3597               	.L262:
 3598 11f8 F92B      		or r31,r25
 3599 11fa 892D      		mov r24,r9
 3600 11fc 8A1B      		sub r24,r26
 3601 11fe E1E0      		ldi r30,lo8(1)
 3602 1200 9816      		cp r9,r24
 3603 1202 00F0      		brlo .L263
 3604 1204 E0E0      		ldi r30,lo8(0)
 3605               	.L263:
 3606 1206 F82E      		mov r15,r24
 3607 1208 FF1A      		sub r15,r31
 3608 120a 91E0      		ldi r25,lo8(1)
 3609 120c 8F15      		cp r24,r15
 3610 120e 00F0      		brlo .L264
 3611 1210 90E0      		ldi r25,lo8(0)
 3612               	.L264:
 3613 1212 E92B      		or r30,r25
 3614 1214 882D      		mov r24,r8
 3615 1216 8B1B      		sub r24,r27
 3616 1218 F1E0      		ldi r31,lo8(1)
 3617 121a 8816      		cp r8,r24
 3618 121c 00F0      		brlo .L265
 3619 121e F0E0      		ldi r31,lo8(0)
 3620               	.L265:
 3621 1220 B82F      		mov r27,r24
 3622 1222 BE1B      		sub r27,r30
 3623 1224 91E0      		ldi r25,lo8(1)
 3624 1226 8B17      		cp r24,r27
 3625 1228 00F0      		brlo .L266
 3626 122a 90E0      		ldi r25,lo8(0)
 3627               	.L266:
 3628 122c F92B      		or r31,r25
 3629 122e 872D      		mov r24,r7
 3630 1230 8519      		sub r24,r5
 3631 1232 E1E0      		ldi r30,lo8(1)
 3632 1234 7816      		cp r7,r24
 3633 1236 00F0      		brlo .L267
 3634 1238 E0E0      		ldi r30,lo8(0)
 3635               	.L267:
 3636 123a A82F      		mov r26,r24
 3637 123c AF1B      		sub r26,r31
 3638 123e 91E0      		ldi r25,lo8(1)
 3639 1240 8A17      		cp r24,r26
 3640 1242 00F0      		brlo .L268
 3641 1244 90E0      		ldi r25,lo8(0)
 3642               	.L268:
 3643 1246 E92B      		or r30,r25
 3644 1248 862D      		mov r24,r6
 3645 124a 8419      		sub r24,r4
 3646 124c 91E0      		ldi r25,lo8(1)
 3647 124e 6816      		cp r6,r24
 3648 1250 00F0      		brlo .L269
 3649 1252 90E0      		ldi r25,lo8(0)
 3650               	.L269:
 3651 1254 582E      		mov r5,r24
 3652 1256 5E1A      		sub r5,r30
 3653 1258 E1E0      		ldi r30,lo8(1)
 3654 125a 8515      		cp r24,r5
 3655 125c 00F0      		brlo .L270
 3656 125e E0E0      		ldi r30,lo8(0)
 3657               	.L270:
 3658 1260 9E2B      		or r25,r30
 3659 1262 8981      		ldd r24,Y+1
 3660 1264 8219      		sub r24,r2
 3661 1266 891B      		sub r24,r25
 3662 1268 8717      		cp r24,r23
 3663 126a 00F4      		brsh .+2
 3664 126c 00C0      		rjmp .L257
 3665 126e 7817      		cp r23,r24
 3666 1270 01F4      		brne .L381
 3667 1272 5616      		cp r5,r22
 3668 1274 00F0      		brlo .L257
 3669 1276 6515      		cp r22,r5
 3670 1278 01F4      		brne .L381
 3671 127a A517      		cp r26,r21
 3672 127c 00F0      		brlo .L257
 3673 127e 5A17      		cp r21,r26
 3674 1280 01F4      		brne .L381
 3675 1282 B417      		cp r27,r20
 3676 1284 00F0      		brlo .L257
 3677 1286 4B17      		cp r20,r27
 3678 1288 01F4      		brne .L381
 3679 128a F316      		cp r15,r19
 3680 128c 00F0      		brlo .L257
 3681 128e 3F15      		cp r19,r15
 3682 1290 01F4      		brne .L381
 3683 1292 E216      		cp r14,r18
 3684 1294 00F0      		brlo .L257
 3685 1296 2E15      		cp r18,r14
 3686 1298 01F4      		brne .L381
 3687 129a D116      		cp r13,r17
 3688 129c 00F0      		brlo .L257
 3689 129e 1D15      		cp r17,r13
 3690 12a0 01F4      		brne .L381
 3691 12a2 3016      		cp r3,r16
 3692 12a4 00F0      		brlo .L257
 3693               	.L381:
 3694               	.LM388:
 3695 12a6 2091 0000 		lds r18,actual_t
 3696 12aa 3091 0000 		lds r19,(actual_t)+1
 3697 12ae 3093 0000 		sts (shown_value)+1,r19
 3698 12b2 2093 0000 		sts shown_value,r18
 3699 12b6 E0E0      		ldi r30,lo8(values_for_chart)
 3700 12b8 F0E0      		ldi r31,hi8(values_for_chart)
 3701               	.L272:
 3702               	.LBB272:
 3703               	.LBB273:
 3704               	.LBB274:
 3705               	.LM389:
 3706 12ba 8281      		ldd r24,Z+2
 3707 12bc 9381      		ldd r25,Z+3
 3708 12be 8193      		st Z+,r24
 3709 12c0 9193      		st Z+,r25
 3710               	.LM390:
 3711 12c2 40E0      		ldi r20,hi8(values_for_chart+112)
 3712 12c4 E030      		cpi r30,lo8(values_for_chart+112)
 3713 12c6 F407      		cpc r31,r20
 3714 12c8 01F4      		brne .L272
 3715               	.LBE274:
 3716               	.LM391:
 3717 12ca 3183      		std Z+1,r19
 3718 12cc 2083      		st Z,r18
 3719               	.LBE273:
 3720               	.LBE272:
 3721               	.LM392:
 3722 12ce C092 0000 		sts last_upd,r12
 3723 12d2 B092 0000 		sts last_upd+1,r11
 3724 12d6 A092 0000 		sts last_upd+2,r10
 3725 12da 9092 0000 		sts last_upd+3,r9
 3726 12de 8092 0000 		sts last_upd+4,r8
 3727 12e2 7092 0000 		sts last_upd+5,r7
 3728 12e6 6092 0000 		sts last_upd+6,r6
 3729 12ea 5981      		ldd r21,Y+1
 3730 12ec 5093 0000 		sts last_upd+7,r21
 3731               	.L257:
 3732               	.LM393:
 3733 12f0 00D0      		rcall lcd_clear
 3734               	.LM394:
 3735 12f2 9B9B      		sbis 51-32,3
 3736 12f4 00C0      		rjmp .L273
 3737 12f6 9091 0000 		lds r25,__clock__
 3738 12fa 4091 0000 		lds r20,__clock__+1
 3739 12fe 6091 0000 		lds r22,__clock__+2
 3740 1302 E091 0000 		lds r30,__clock__+3
 3741 1306 A091 0000 		lds r26,__clock__+4
 3742 130a 1091 0000 		lds r17,__clock__+5
 3743 130e F090 0000 		lds r15,__clock__+6
 3744 1312 5091 0000 		lds r21,__clock__+7
 3745 1316 8091 0000 		lds r24,debounce_d
 3746 131a 2091 0000 		lds r18,debounce_d+1
 3747 131e 7091 0000 		lds r23,debounce_d+2
 3748 1322 F091 0000 		lds r31,debounce_d+3
 3749 1326 0091 0000 		lds r16,debounce_d+4
 3750 132a D090 0000 		lds r13,debounce_d+5
 3751 132e B090 0000 		lds r11,debounce_d+6
 3752 1332 A090 0000 		lds r10,debounce_d+7
 3753 1336 C92E      		mov r12,r25
 3754 1338 C81A      		sub r12,r24
 3755 133a 31E0      		ldi r19,lo8(1)
 3756 133c 9C15      		cp r25,r12
 3757 133e 00F0      		brlo .L274
 3758 1340 30E0      		ldi r19,lo8(0)
 3759               	.L274:
 3760 1342 842F      		mov r24,r20
 3761 1344 821B      		sub r24,r18
 3762 1346 21E0      		ldi r18,lo8(1)
 3763 1348 4817      		cp r20,r24
 3764 134a 00F0      		brlo .L275
 3765 134c 20E0      		ldi r18,lo8(0)
 3766               	.L275:
 3767 134e E82E      		mov r14,r24
 3768 1350 E31A      		sub r14,r19
 3769 1352 91E0      		ldi r25,lo8(1)
 3770 1354 8E15      		cp r24,r14
 3771 1356 00F0      		brlo .L276
 3772 1358 90E0      		ldi r25,lo8(0)
 3773               	.L276:
 3774 135a 292B      		or r18,r25
 3775 135c 862F      		mov r24,r22
 3776 135e 871B      		sub r24,r23
 3777 1360 31E0      		ldi r19,lo8(1)
 3778 1362 6817      		cp r22,r24
 3779 1364 00F0      		brlo .L277
 3780 1366 30E0      		ldi r19,lo8(0)
 3781               	.L277:
 3782 1368 B82F      		mov r27,r24
 3783 136a B21B      		sub r27,r18
 3784 136c 91E0      		ldi r25,lo8(1)
 3785 136e 8B17      		cp r24,r27
 3786 1370 00F0      		brlo .L278
 3787 1372 90E0      		ldi r25,lo8(0)
 3788               	.L278:
 3789 1374 392B      		or r19,r25
 3790 1376 8E2F      		mov r24,r30
 3791 1378 8F1B      		sub r24,r31
 3792 137a 21E0      		ldi r18,lo8(1)
 3793 137c E817      		cp r30,r24
 3794 137e 00F0      		brlo .L279
 3795 1380 20E0      		ldi r18,lo8(0)
 3796               	.L279:
 3797 1382 782F      		mov r23,r24
 3798 1384 731B      		sub r23,r19
 3799 1386 91E0      		ldi r25,lo8(1)
 3800 1388 8717      		cp r24,r23
 3801 138a 00F0      		brlo .L280
 3802 138c 90E0      		ldi r25,lo8(0)
 3803               	.L280:
 3804 138e 292B      		or r18,r25
 3805 1390 8A2F      		mov r24,r26
 3806 1392 801B      		sub r24,r16
 3807 1394 31E0      		ldi r19,lo8(1)
 3808 1396 A817      		cp r26,r24
 3809 1398 00F0      		brlo .L281
 3810 139a 30E0      		ldi r19,lo8(0)
 3811               	.L281:
 3812 139c 682F      		mov r22,r24
 3813 139e 621B      		sub r22,r18
 3814 13a0 91E0      		ldi r25,lo8(1)
 3815 13a2 8617      		cp r24,r22
 3816 13a4 00F0      		brlo .L282
 3817 13a6 90E0      		ldi r25,lo8(0)
 3818               	.L282:
 3819 13a8 392B      		or r19,r25
 3820 13aa 812F      		mov r24,r17
 3821 13ac 8D19      		sub r24,r13
 3822 13ae 21E0      		ldi r18,lo8(1)
 3823 13b0 1817      		cp r17,r24
 3824 13b2 00F0      		brlo .L283
 3825 13b4 20E0      		ldi r18,lo8(0)
 3826               	.L283:
 3827 13b6 482F      		mov r20,r24
 3828 13b8 431B      		sub r20,r19
 3829 13ba 91E0      		ldi r25,lo8(1)
 3830 13bc 8417      		cp r24,r20
 3831 13be 00F0      		brlo .L284
 3832 13c0 90E0      		ldi r25,lo8(0)
 3833               	.L284:
 3834 13c2 292B      		or r18,r25
 3835 13c4 8F2D      		mov r24,r15
 3836 13c6 8B19      		sub r24,r11
 3837 13c8 91E0      		ldi r25,lo8(1)
 3838 13ca F816      		cp r15,r24
 3839 13cc 00F0      		brlo .L285
 3840 13ce 90E0      		ldi r25,lo8(0)
 3841               	.L285:
 3842 13d0 382F      		mov r19,r24
 3843 13d2 321B      		sub r19,r18
 3844 13d4 21E0      		ldi r18,lo8(1)
 3845 13d6 8317      		cp r24,r19
 3846 13d8 00F0      		brlo .L286
 3847 13da 20E0      		ldi r18,lo8(0)
 3848               	.L286:
 3849 13dc 922B      		or r25,r18
 3850 13de 5A19      		sub r21,r10
 3851 13e0 5917      		cp r21,r25
 3852 13e2 01F4      		brne .L382
 3853 13e4 3323      		tst r19
 3854 13e6 01F4      		brne .L382
 3855 13e8 4423      		tst r20
 3856 13ea 01F4      		brne .L382
 3857 13ec 6623      		tst r22
 3858 13ee 01F4      		brne .L382
 3859 13f0 7723      		tst r23
 3860 13f2 01F4      		brne .L382
 3861 13f4 BB23      		tst r27
 3862 13f6 01F4      		brne .L382
 3863 13f8 EE20      		tst r14
 3864 13fa 01F4      		brne .L382
 3865 13fc 8AEF      		ldi r24,lo8(-6)
 3866 13fe 8C15      		cp r24,r12
 3867 1400 00F4      		brsh .L273
 3868               	.L382:
 3869               	.LM395:
 3870 1402 00D0      		rcall change_view_mode
 3871               	.LM396:
 3872 1404 8091 0000 		lds r24,__clock__
 3873 1408 8093 0000 		sts debounce_d,r24
 3874 140c 8091 0000 		lds r24,__clock__+1
 3875 1410 8093 0000 		sts debounce_d+1,r24
 3876 1414 8091 0000 		lds r24,__clock__+2
 3877 1418 8093 0000 		sts debounce_d+2,r24
 3878 141c 8091 0000 		lds r24,__clock__+3
 3879 1420 8093 0000 		sts debounce_d+3,r24
 3880 1424 8091 0000 		lds r24,__clock__+4
 3881 1428 8093 0000 		sts debounce_d+4,r24
 3882 142c 8091 0000 		lds r24,__clock__+5
 3883 1430 8093 0000 		sts debounce_d+5,r24
 3884 1434 8091 0000 		lds r24,__clock__+6
 3885 1438 8093 0000 		sts debounce_d+6,r24
 3886 143c 8091 0000 		lds r24,__clock__+7
 3887 1440 8093 0000 		sts debounce_d+7,r24
 3888               	.L273:
 3889               	.LM397:
 3890 1444 8091 0000 		lds r24,vm
 3891 1448 8823      		tst r24
 3892 144a 01F0      		breq .+2
 3893 144c 00C0      		rjmp .L288
 3894               	.LM398:
 3895 144e 989B      		sbis 51-32,0
 3896 1450 00C0      		rjmp .L289
 3897 1452 9091 0000 		lds r25,__clock__
 3898 1456 4091 0000 		lds r20,__clock__+1
 3899 145a 6091 0000 		lds r22,__clock__+2
 3900 145e E091 0000 		lds r30,__clock__+3
 3901 1462 A091 0000 		lds r26,__clock__+4
 3902 1466 1091 0000 		lds r17,__clock__+5
 3903 146a F090 0000 		lds r15,__clock__+6
 3904 146e 5091 0000 		lds r21,__clock__+7
 3905 1472 8091 0000 		lds r24,debounce_a
 3906 1476 2091 0000 		lds r18,debounce_a+1
 3907 147a 7091 0000 		lds r23,debounce_a+2
 3908 147e F091 0000 		lds r31,debounce_a+3
 3909 1482 0091 0000 		lds r16,debounce_a+4
 3910 1486 D090 0000 		lds r13,debounce_a+5
 3911 148a B090 0000 		lds r11,debounce_a+6
 3912 148e A090 0000 		lds r10,debounce_a+7
 3913 1492 C92E      		mov r12,r25
 3914 1494 C81A      		sub r12,r24
 3915 1496 31E0      		ldi r19,lo8(1)
 3916 1498 9C15      		cp r25,r12
 3917 149a 00F0      		brlo .L290
 3918 149c 30E0      		ldi r19,lo8(0)
 3919               	.L290:
 3920 149e 842F      		mov r24,r20
 3921 14a0 821B      		sub r24,r18
 3922 14a2 21E0      		ldi r18,lo8(1)
 3923 14a4 4817      		cp r20,r24
 3924 14a6 00F0      		brlo .L291
 3925 14a8 20E0      		ldi r18,lo8(0)
 3926               	.L291:
 3927 14aa E82E      		mov r14,r24
 3928 14ac E31A      		sub r14,r19
 3929 14ae 91E0      		ldi r25,lo8(1)
 3930 14b0 8E15      		cp r24,r14
 3931 14b2 00F0      		brlo .L292
 3932 14b4 90E0      		ldi r25,lo8(0)
 3933               	.L292:
 3934 14b6 292B      		or r18,r25
 3935 14b8 862F      		mov r24,r22
 3936 14ba 871B      		sub r24,r23
 3937 14bc 31E0      		ldi r19,lo8(1)
 3938 14be 6817      		cp r22,r24
 3939 14c0 00F0      		brlo .L293
 3940 14c2 30E0      		ldi r19,lo8(0)
 3941               	.L293:
 3942 14c4 B82F      		mov r27,r24
 3943 14c6 B21B      		sub r27,r18
 3944 14c8 91E0      		ldi r25,lo8(1)
 3945 14ca 8B17      		cp r24,r27
 3946 14cc 00F0      		brlo .L294
 3947 14ce 90E0      		ldi r25,lo8(0)
 3948               	.L294:
 3949 14d0 392B      		or r19,r25
 3950 14d2 8E2F      		mov r24,r30
 3951 14d4 8F1B      		sub r24,r31
 3952 14d6 21E0      		ldi r18,lo8(1)
 3953 14d8 E817      		cp r30,r24
 3954 14da 00F0      		brlo .L295
 3955 14dc 20E0      		ldi r18,lo8(0)
 3956               	.L295:
 3957 14de 782F      		mov r23,r24
 3958 14e0 731B      		sub r23,r19
 3959 14e2 91E0      		ldi r25,lo8(1)
 3960 14e4 8717      		cp r24,r23
 3961 14e6 00F0      		brlo .L296
 3962 14e8 90E0      		ldi r25,lo8(0)
 3963               	.L296:
 3964 14ea 292B      		or r18,r25
 3965 14ec 8A2F      		mov r24,r26
 3966 14ee 801B      		sub r24,r16
 3967 14f0 31E0      		ldi r19,lo8(1)
 3968 14f2 A817      		cp r26,r24
 3969 14f4 00F0      		brlo .L297
 3970 14f6 30E0      		ldi r19,lo8(0)
 3971               	.L297:
 3972 14f8 682F      		mov r22,r24
 3973 14fa 621B      		sub r22,r18
 3974 14fc 91E0      		ldi r25,lo8(1)
 3975 14fe 8617      		cp r24,r22
 3976 1500 00F0      		brlo .L298
 3977 1502 90E0      		ldi r25,lo8(0)
 3978               	.L298:
 3979 1504 392B      		or r19,r25
 3980 1506 812F      		mov r24,r17
 3981 1508 8D19      		sub r24,r13
 3982 150a 21E0      		ldi r18,lo8(1)
 3983 150c 1817      		cp r17,r24
 3984 150e 00F0      		brlo .L299
 3985 1510 20E0      		ldi r18,lo8(0)
 3986               	.L299:
 3987 1512 482F      		mov r20,r24
 3988 1514 431B      		sub r20,r19
 3989 1516 91E0      		ldi r25,lo8(1)
 3990 1518 8417      		cp r24,r20
 3991 151a 00F0      		brlo .L300
 3992 151c 90E0      		ldi r25,lo8(0)
 3993               	.L300:
 3994 151e 292B      		or r18,r25
 3995 1520 8F2D      		mov r24,r15
 3996 1522 8B19      		sub r24,r11
 3997 1524 91E0      		ldi r25,lo8(1)
 3998 1526 F816      		cp r15,r24
 3999 1528 00F0      		brlo .L301
 4000 152a 90E0      		ldi r25,lo8(0)
 4001               	.L301:
 4002 152c 382F      		mov r19,r24
 4003 152e 321B      		sub r19,r18
 4004 1530 21E0      		ldi r18,lo8(1)
 4005 1532 8317      		cp r24,r19
 4006 1534 00F0      		brlo .L302
 4007 1536 20E0      		ldi r18,lo8(0)
 4008               	.L302:
 4009 1538 922B      		or r25,r18
 4010 153a 5A19      		sub r21,r10
 4011 153c 5917      		cp r21,r25
 4012 153e 01F4      		brne .L383
 4013 1540 3323      		tst r19
 4014 1542 01F4      		brne .L383
 4015 1544 4423      		tst r20
 4016 1546 01F4      		brne .L383
 4017 1548 6623      		tst r22
 4018 154a 01F4      		brne .L383
 4019 154c 7723      		tst r23
 4020 154e 01F4      		brne .L383
 4021 1550 BB23      		tst r27
 4022 1552 01F4      		brne .L383
 4023 1554 EE20      		tst r14
 4024 1556 01F4      		brne .L383
 4025 1558 EAEF      		ldi r30,lo8(-6)
 4026 155a EC15      		cp r30,r12
 4027 155c 00F4      		brsh .L289
 4028               	.L383:
 4029               	.LM399:
 4030 155e 00D0      		rcall change_upd_speed
 4031               	.LM400:
 4032 1560 8091 0000 		lds r24,__clock__
 4033 1564 8093 0000 		sts debounce_a,r24
 4034 1568 8091 0000 		lds r24,__clock__+1
 4035 156c 8093 0000 		sts debounce_a+1,r24
 4036 1570 8091 0000 		lds r24,__clock__+2
 4037 1574 8093 0000 		sts debounce_a+2,r24
 4038 1578 8091 0000 		lds r24,__clock__+3
 4039 157c 8093 0000 		sts debounce_a+3,r24
 4040 1580 8091 0000 		lds r24,__clock__+4
 4041 1584 8093 0000 		sts debounce_a+4,r24
 4042 1588 8091 0000 		lds r24,__clock__+5
 4043 158c 8093 0000 		sts debounce_a+5,r24
 4044 1590 8091 0000 		lds r24,__clock__+6
 4045 1594 8093 0000 		sts debounce_a+6,r24
 4046 1598 8091 0000 		lds r24,__clock__+7
 4047 159c 8093 0000 		sts debounce_a+7,r24
 4048               	.L289:
 4049               	.LM401:
 4050 15a0 999B      		sbis 51-32,1
 4051 15a2 00C0      		rjmp .L304
 4052 15a4 9091 0000 		lds r25,__clock__
 4053 15a8 4091 0000 		lds r20,__clock__+1
 4054 15ac 6091 0000 		lds r22,__clock__+2
 4055 15b0 E091 0000 		lds r30,__clock__+3
 4056 15b4 A091 0000 		lds r26,__clock__+4
 4057 15b8 1091 0000 		lds r17,__clock__+5
 4058 15bc F090 0000 		lds r15,__clock__+6
 4059 15c0 5091 0000 		lds r21,__clock__+7
 4060 15c4 8091 0000 		lds r24,debounce_b
 4061 15c8 2091 0000 		lds r18,debounce_b+1
 4062 15cc 7091 0000 		lds r23,debounce_b+2
 4063 15d0 F091 0000 		lds r31,debounce_b+3
 4064 15d4 0091 0000 		lds r16,debounce_b+4
 4065 15d8 D090 0000 		lds r13,debounce_b+5
 4066 15dc B090 0000 		lds r11,debounce_b+6
 4067 15e0 A090 0000 		lds r10,debounce_b+7
 4068 15e4 C92E      		mov r12,r25
 4069 15e6 C81A      		sub r12,r24
 4070 15e8 31E0      		ldi r19,lo8(1)
 4071 15ea 9C15      		cp r25,r12
 4072 15ec 00F0      		brlo .L305
 4073 15ee 30E0      		ldi r19,lo8(0)
 4074               	.L305:
 4075 15f0 842F      		mov r24,r20
 4076 15f2 821B      		sub r24,r18
 4077 15f4 21E0      		ldi r18,lo8(1)
 4078 15f6 4817      		cp r20,r24
 4079 15f8 00F0      		brlo .L306
 4080 15fa 20E0      		ldi r18,lo8(0)
 4081               	.L306:
 4082 15fc E82E      		mov r14,r24
 4083 15fe E31A      		sub r14,r19
 4084 1600 91E0      		ldi r25,lo8(1)
 4085 1602 8E15      		cp r24,r14
 4086 1604 00F0      		brlo .L307
 4087 1606 90E0      		ldi r25,lo8(0)
 4088               	.L307:
 4089 1608 292B      		or r18,r25
 4090 160a 862F      		mov r24,r22
 4091 160c 871B      		sub r24,r23
 4092 160e 31E0      		ldi r19,lo8(1)
 4093 1610 6817      		cp r22,r24
 4094 1612 00F0      		brlo .L308
 4095 1614 30E0      		ldi r19,lo8(0)
 4096               	.L308:
 4097 1616 B82F      		mov r27,r24
 4098 1618 B21B      		sub r27,r18
 4099 161a 91E0      		ldi r25,lo8(1)
 4100 161c 8B17      		cp r24,r27
 4101 161e 00F0      		brlo .L309
 4102 1620 90E0      		ldi r25,lo8(0)
 4103               	.L309:
 4104 1622 392B      		or r19,r25
 4105 1624 8E2F      		mov r24,r30
 4106 1626 8F1B      		sub r24,r31
 4107 1628 21E0      		ldi r18,lo8(1)
 4108 162a E817      		cp r30,r24
 4109 162c 00F0      		brlo .L310
 4110 162e 20E0      		ldi r18,lo8(0)
 4111               	.L310:
 4112 1630 782F      		mov r23,r24
 4113 1632 731B      		sub r23,r19
 4114 1634 91E0      		ldi r25,lo8(1)
 4115 1636 8717      		cp r24,r23
 4116 1638 00F0      		brlo .L311
 4117 163a 90E0      		ldi r25,lo8(0)
 4118               	.L311:
 4119 163c 292B      		or r18,r25
 4120 163e 8A2F      		mov r24,r26
 4121 1640 801B      		sub r24,r16
 4122 1642 31E0      		ldi r19,lo8(1)
 4123 1644 A817      		cp r26,r24
 4124 1646 00F0      		brlo .L312
 4125 1648 30E0      		ldi r19,lo8(0)
 4126               	.L312:
 4127 164a 682F      		mov r22,r24
 4128 164c 621B      		sub r22,r18
 4129 164e 91E0      		ldi r25,lo8(1)
 4130 1650 8617      		cp r24,r22
 4131 1652 00F0      		brlo .L313
 4132 1654 90E0      		ldi r25,lo8(0)
 4133               	.L313:
 4134 1656 392B      		or r19,r25
 4135 1658 812F      		mov r24,r17
 4136 165a 8D19      		sub r24,r13
 4137 165c 21E0      		ldi r18,lo8(1)
 4138 165e 1817      		cp r17,r24
 4139 1660 00F0      		brlo .L314
 4140 1662 20E0      		ldi r18,lo8(0)
 4141               	.L314:
 4142 1664 482F      		mov r20,r24
 4143 1666 431B      		sub r20,r19
 4144 1668 91E0      		ldi r25,lo8(1)
 4145 166a 8417      		cp r24,r20
 4146 166c 00F0      		brlo .L315
 4147 166e 90E0      		ldi r25,lo8(0)
 4148               	.L315:
 4149 1670 292B      		or r18,r25
 4150 1672 8F2D      		mov r24,r15
 4151 1674 8B19      		sub r24,r11
 4152 1676 91E0      		ldi r25,lo8(1)
 4153 1678 F816      		cp r15,r24
 4154 167a 00F0      		brlo .L316
 4155 167c 90E0      		ldi r25,lo8(0)
 4156               	.L316:
 4157 167e 382F      		mov r19,r24
 4158 1680 321B      		sub r19,r18
 4159 1682 21E0      		ldi r18,lo8(1)
 4160 1684 8317      		cp r24,r19
 4161 1686 00F0      		brlo .L317
 4162 1688 20E0      		ldi r18,lo8(0)
 4163               	.L317:
 4164 168a 922B      		or r25,r18
 4165 168c 5A19      		sub r21,r10
 4166 168e 5917      		cp r21,r25
 4167 1690 01F4      		brne .L384
 4168 1692 3323      		tst r19
 4169 1694 01F4      		brne .L384
 4170 1696 4423      		tst r20
 4171 1698 01F4      		brne .L384
 4172 169a 6623      		tst r22
 4173 169c 01F4      		brne .L384
 4174 169e 7723      		tst r23
 4175 16a0 01F4      		brne .L384
 4176 16a2 BB23      		tst r27
 4177 16a4 01F4      		brne .L384
 4178 16a6 EE20      		tst r14
 4179 16a8 01F4      		brne .L384
 4180 16aa FAEF      		ldi r31,lo8(-6)
 4181 16ac FC15      		cp r31,r12
 4182 16ae 00F4      		brsh .L304
 4183               	.L384:
 4184               	.LM402:
 4185 16b0 00D0      		rcall change_line_type
 4186               	.LM403:
 4187 16b2 8091 0000 		lds r24,__clock__
 4188 16b6 8093 0000 		sts debounce_b,r24
 4189 16ba 8091 0000 		lds r24,__clock__+1
 4190 16be 8093 0000 		sts debounce_b+1,r24
 4191 16c2 8091 0000 		lds r24,__clock__+2
 4192 16c6 8093 0000 		sts debounce_b+2,r24
 4193 16ca 8091 0000 		lds r24,__clock__+3
 4194 16ce 8093 0000 		sts debounce_b+3,r24
 4195 16d2 8091 0000 		lds r24,__clock__+4
 4196 16d6 8093 0000 		sts debounce_b+4,r24
 4197 16da 8091 0000 		lds r24,__clock__+5
 4198 16de 8093 0000 		sts debounce_b+5,r24
 4199 16e2 8091 0000 		lds r24,__clock__+6
 4200 16e6 8093 0000 		sts debounce_b+6,r24
 4201 16ea 8091 0000 		lds r24,__clock__+7
 4202 16ee 8093 0000 		sts debounce_b+7,r24
 4203               	.L304:
 4204               	.LM404:
 4205 16f2 00D0      		rcall draw_interface
 4206               	.LM405:
 4207 16f4 8091 0000 		lds r24,ltp
 4208 16f8 00D0      		rcall draw_values_line
 4209               	.LM406:
 4210 16fa 8091 0000 		lds r24,usp
 4211 16fe 9091 0000 		lds r25,(usp)+1
 4212 1702 00D0      		rcall draw_update_speed_indicator
 4213               	.LM407:
 4214 1704 6091 0000 		lds r22,shown_value
 4215 1708 7091 0000 		lds r23,(shown_value)+1
 4216 170c 8091 0000 		lds r24,ltp
 4217 1710 00D0      		rcall draw_bar
 4218               	.LM408:
 4219 1712 8091 0000 		lds r24,shown_value
 4220 1716 9091 0000 		lds r25,(shown_value)+1
 4221 171a 00D0      		rcall draw_current_value
 4222               	.LM409:
 4223 171c 8091 0000 		lds r24,ltp
 4224 1720 00D0      		rcall draw_chart
 4225               	.L288:
 4226               	.LM410:
 4227 1722 8091 0000 		lds r24,vm
 4228 1726 8130      		cpi r24,lo8(1)
 4229 1728 01F0      		breq .+2
 4230 172a 00C0      		rjmp .L319
 4231               	.LM411:
 4232 172c 61E0      		ldi r22,lo8(1)
 4233 172e 40E0      		ldi r20,lo8(.LC1)
 4234 1730 50E0      		ldi r21,hi8(.LC1)
 4235 1732 21E0      		ldi r18,lo8(1)
 4236 1734 00D0      		rcall lcd_put_string
 4237 1736 00E0      		ldi r16,lo8(0)
 4238 1738 10E0      		ldi r17,hi8(0)
 4239               	.LVL255:
 4240               	.L320:
 4241               	.LBB275:
 4242               	.LM412:
 4243 173a C801      		movw r24,r16
 4244 173c 00D0      		rcall print_hook
 4245               	.LM413:
 4246 173e 0F5F      		subi r16,lo8(-(1))
 4247 1740 1F4F      		sbci r17,hi8(-(1))
 4248 1742 0430      		cpi r16,4
 4249 1744 1105      		cpc r17,__zero_reg__
 4250 1746 01F4      		brne .L320
 4251               	.LBE275:
 4252               	.LM414:
 4253 1748 989B      		sbis 51-32,0
 4254 174a 00C0      		rjmp .L321
 4255               	.LBB276:
 4256               	.LBB277:
 4257               	.LM415:
 4258 174c 7091 0000 		lds r23,__clock__
 4259 1750 A091 0000 		lds r26,__clock__+1
 4260 1754 B091 0000 		lds r27,__clock__+2
 4261 1758 1091 0000 		lds r17,__clock__+3
 4262 175c 0091 0000 		lds r16,__clock__+4
 4263               	.LVL256:
 4264 1760 F090 0000 		lds r15,__clock__+5
 4265 1764 E090 0000 		lds r14,__clock__+6
 4266 1768 9090 0000 		lds r9,__clock__+7
 4267               	.LBE277:
 4268               	.LBE276:
 4269               	.LM416:
 4270 176c 8091 0000 		lds r24,debounce_a
 4271 1770 2091 0000 		lds r18,debounce_a+1
 4272 1774 3091 0000 		lds r19,debounce_a+2
 4273 1778 4091 0000 		lds r20,debounce_a+3
 4274 177c 5091 0000 		lds r21,debounce_a+4
 4275 1780 D090 0000 		lds r13,debounce_a+5
 4276 1784 B090 0000 		lds r11,debounce_a+6
 4277 1788 A090 0000 		lds r10,debounce_a+7
 4278 178c C72E      		mov r12,r23
 4279 178e C81A      		sub r12,r24
 4280 1790 91E0      		ldi r25,lo8(1)
 4281 1792 7C15      		cp r23,r12
 4282 1794 00F0      		brlo .L322
 4283 1796 90E0      		ldi r25,lo8(0)
 4284               	.L322:
 4285 1798 8A2F      		mov r24,r26
 4286 179a 821B      		sub r24,r18
 4287 179c 21E0      		ldi r18,lo8(1)
 4288 179e A817      		cp r26,r24
 4289 17a0 00F0      		brlo .L323
 4290 17a2 20E0      		ldi r18,lo8(0)
 4291               	.L323:
 4292 17a4 F82F      		mov r31,r24
 4293 17a6 F91B      		sub r31,r25
 4294 17a8 91E0      		ldi r25,lo8(1)
 4295 17aa 8F17      		cp r24,r31
 4296 17ac 00F0      		brlo .L324
 4297 17ae 90E0      		ldi r25,lo8(0)
 4298               	.L324:
 4299 17b0 292B      		or r18,r25
 4300 17b2 8B2F      		mov r24,r27
 4301 17b4 831B      		sub r24,r19
 4302 17b6 31E0      		ldi r19,lo8(1)
 4303 17b8 B817      		cp r27,r24
 4304 17ba 00F0      		brlo .L325
 4305 17bc 30E0      		ldi r19,lo8(0)
 4306               	.L325:
 4307 17be E82F      		mov r30,r24
 4308 17c0 E21B      		sub r30,r18
 4309 17c2 91E0      		ldi r25,lo8(1)
 4310 17c4 8E17      		cp r24,r30
 4311 17c6 00F0      		brlo .L326
 4312 17c8 90E0      		ldi r25,lo8(0)
 4313               	.L326:
 4314 17ca 392B      		or r19,r25
 4315 17cc 812F      		mov r24,r17
 4316 17ce 841B      		sub r24,r20
 4317 17d0 21E0      		ldi r18,lo8(1)
 4318 17d2 1817      		cp r17,r24
 4319 17d4 00F0      		brlo .L327
 4320 17d6 20E0      		ldi r18,lo8(0)
 4321               	.L327:
 4322 17d8 682F      		mov r22,r24
 4323 17da 631B      		sub r22,r19
 4324 17dc 91E0      		ldi r25,lo8(1)
 4325 17de 8617      		cp r24,r22
 4326 17e0 00F0      		brlo .L328
 4327 17e2 90E0      		ldi r25,lo8(0)
 4328               	.L328:
 4329 17e4 292B      		or r18,r25
 4330 17e6 802F      		mov r24,r16
 4331 17e8 851B      		sub r24,r21
 4332 17ea 31E0      		ldi r19,lo8(1)
 4333 17ec 0817      		cp r16,r24
 4334 17ee 00F0      		brlo .L329
 4335 17f0 30E0      		ldi r19,lo8(0)
 4336               	.L329:
 4337 17f2 582F      		mov r21,r24
 4338 17f4 521B      		sub r21,r18
 4339 17f6 91E0      		ldi r25,lo8(1)
 4340 17f8 8517      		cp r24,r21
 4341 17fa 00F0      		brlo .L330
 4342 17fc 90E0      		ldi r25,lo8(0)
 4343               	.L330:
 4344 17fe 392B      		or r19,r25
 4345 1800 8F2D      		mov r24,r15
 4346 1802 8D19      		sub r24,r13
 4347 1804 21E0      		ldi r18,lo8(1)
 4348 1806 F816      		cp r15,r24
 4349 1808 00F0      		brlo .L331
 4350 180a 20E0      		ldi r18,lo8(0)
 4351               	.L331:
 4352 180c 482F      		mov r20,r24
 4353 180e 431B      		sub r20,r19
 4354 1810 91E0      		ldi r25,lo8(1)
 4355 1812 8417      		cp r24,r20
 4356 1814 00F0      		brlo .L332
 4357 1816 90E0      		ldi r25,lo8(0)
 4358               	.L332:
 4359 1818 292B      		or r18,r25
 4360 181a 8E2D      		mov r24,r14
 4361 181c 8B19      		sub r24,r11
 4362 181e 91E0      		ldi r25,lo8(1)
 4363 1820 E816      		cp r14,r24
 4364 1822 00F0      		brlo .L333
 4365 1824 90E0      		ldi r25,lo8(0)
 4366               	.L333:
 4367 1826 382F      		mov r19,r24
 4368 1828 321B      		sub r19,r18
 4369 182a 21E0      		ldi r18,lo8(1)
 4370 182c 8317      		cp r24,r19
 4371 182e 00F0      		brlo .L334
 4372 1830 20E0      		ldi r18,lo8(0)
 4373               	.L334:
 4374 1832 922B      		or r25,r18
 4375 1834 892D      		mov r24,r9
 4376 1836 8A19      		sub r24,r10
 4377 1838 8917      		cp r24,r25
 4378 183a 01F4      		brne .L385
 4379 183c 3323      		tst r19
 4380 183e 01F4      		brne .L385
 4381 1840 4423      		tst r20
 4382 1842 01F4      		brne .L385
 4383 1844 5523      		tst r21
 4384 1846 01F4      		brne .L385
 4385 1848 6623      		tst r22
 4386 184a 01F4      		brne .L385
 4387 184c EE23      		tst r30
 4388 184e 01F4      		brne .L385
 4389 1850 FF23      		tst r31
 4390 1852 01F4      		brne .L385
 4391 1854 2AEF      		ldi r18,lo8(-6)
 4392 1856 2C15      		cp r18,r12
 4393 1858 00F0      		brlo .+2
 4394 185a 00C0      		rjmp .L321
 4395               	.L385:
 4396               	.LM417:
 4397 185c 8091 0000 		lds r24,hook_edit_stage
 4398 1860 8823      		tst r24
 4399 1862 01F4      		brne .L336
 4400               	.LM418:
 4401 1864 8091 0000 		lds r24,hook_m_ptr
 4402 1868 8823      		tst r24
 4403 186a 01F4      		brne .+2
 4404 186c 00C0      		rjmp .L340
 4405 186e 8150      		subi r24,lo8(-(-1))
 4406 1870 8093 0000 		sts hook_m_ptr,r24
 4407 1874 00C0      		rjmp .L340
 4408               	.L336:
 4409               	.LM419:
 4410 1876 8130      		cpi r24,lo8(1)
 4411 1878 01F4      		brne .L339
 4412               	.LM420:
 4413 187a 8091 0000 		lds r24,hook_m_ptr
 4414 187e 90E0      		ldi r25,lo8(0)
 4415 1880 FC01      		movw r30,r24
 4416 1882 EE0F      		lsl r30
 4417 1884 FF1F      		rol r31
 4418 1886 EE0F      		lsl r30
 4419 1888 FF1F      		rol r31
 4420 188a E80F      		add r30,r24
 4421 188c F91F      		adc r31,r25
 4422 188e E050      		subi r30,lo8(-(hooks))
 4423 1890 F040      		sbci r31,hi8(-(hooks))
 4424 1892 8081      		ld r24,Z
 4425 1894 8430      		cpi r24,lo8(4)
 4426 1896 00F0      		brlo .+2
 4427 1898 00C0      		rjmp .L340
 4428 189a 8F5F      		subi r24,lo8(-(1))
 4429 189c 8083      		st Z,r24
 4430 189e 00C0      		rjmp .L340
 4431               	.L339:
 4432               	.LM421:
 4433 18a0 8230      		cpi r24,lo8(2)
 4434 18a2 01F4      		brne .L337
 4435               	.LM422:
 4436 18a4 8091 0000 		lds r24,hook_m_ptr
 4437 18a8 90E0      		ldi r25,lo8(0)
 4438 18aa FC01      		movw r30,r24
 4439 18ac EE0F      		lsl r30
 4440 18ae FF1F      		rol r31
 4441 18b0 EE0F      		lsl r30
 4442 18b2 FF1F      		rol r31
 4443 18b4 E80F      		add r30,r24
 4444 18b6 F91F      		adc r31,r25
 4445 18b8 E050      		subi r30,lo8(-(hooks))
 4446 18ba F040      		sbci r31,hi8(-(hooks))
 4447 18bc 8181      		ldd r24,Z+1
 4448 18be 9281      		ldd r25,Z+2
 4449 18c0 8336      		cpi r24,99
 4450 18c2 9105      		cpc r25,__zero_reg__
 4451 18c4 04F4      		brge .L340
 4452 18c6 0196      		adiw r24,1
 4453 18c8 9283      		std Z+2,r25
 4454 18ca 8183      		std Z+1,r24
 4455 18cc 00C0      		rjmp .L340
 4456               	.L337:
 4457               	.LM423:
 4458 18ce 8330      		cpi r24,lo8(3)
 4459 18d0 01F4      		brne .L338
 4460               	.LM424:
 4461 18d2 8091 0000 		lds r24,hook_m_ptr
 4462 18d6 90E0      		ldi r25,lo8(0)
 4463 18d8 FC01      		movw r30,r24
 4464 18da EE0F      		lsl r30
 4465 18dc FF1F      		rol r31
 4466 18de EE0F      		lsl r30
 4467 18e0 FF1F      		rol r31
 4468 18e2 E80F      		add r30,r24
 4469 18e4 F91F      		adc r31,r25
 4470 18e6 E050      		subi r30,lo8(-(hooks))
 4471 18e8 F040      		sbci r31,hi8(-(hooks))
 4472 18ea 8381      		ldd r24,Z+3
 4473 18ec 8230      		cpi r24,lo8(2)
 4474 18ee 00F4      		brsh .L340
 4475 18f0 8F5F      		subi r24,lo8(-(1))
 4476 18f2 8383      		std Z+3,r24
 4477 18f4 00C0      		rjmp .L340
 4478               	.L338:
 4479               	.LM425:
 4480 18f6 8430      		cpi r24,lo8(4)
 4481 18f8 01F4      		brne .L340
 4482               	.LM426:
 4483 18fa 8091 0000 		lds r24,hook_m_ptr
 4484 18fe 90E0      		ldi r25,lo8(0)
 4485 1900 FC01      		movw r30,r24
 4486 1902 EE0F      		lsl r30
 4487 1904 FF1F      		rol r31
 4488 1906 EE0F      		lsl r30
 4489 1908 FF1F      		rol r31
 4490 190a E80F      		add r30,r24
 4491 190c F91F      		adc r31,r25
 4492 190e E050      		subi r30,lo8(-(hooks))
 4493 1910 F040      		sbci r31,hi8(-(hooks))
 4494 1912 8481      		ldd r24,Z+4
 4495 1914 8730      		cpi r24,lo8(7)
 4496 1916 00F4      		brsh .L340
 4497 1918 8F5F      		subi r24,lo8(-(1))
 4498 191a 8483      		std Z+4,r24
 4499               	.L340:
 4500               	.LM427:
 4501 191c 7093 0000 		sts debounce_a,r23
 4502 1920 A093 0000 		sts debounce_a+1,r26
 4503 1924 B093 0000 		sts debounce_a+2,r27
 4504 1928 1093 0000 		sts debounce_a+3,r17
 4505 192c 0093 0000 		sts debounce_a+4,r16
 4506 1930 F092 0000 		sts debounce_a+5,r15
 4507 1934 E092 0000 		sts debounce_a+6,r14
 4508 1938 9092 0000 		sts debounce_a+7,r9
 4509               	.LVL257:
 4510               	.L321:
 4511               	.LM428:
 4512 193c 999B      		sbis 51-32,1
 4513 193e 00C0      		rjmp .L341
 4514               	.LBB278:
 4515               	.LBB279:
 4516               	.LM429:
 4517 1940 7091 0000 		lds r23,__clock__
 4518 1944 A091 0000 		lds r26,__clock__+1
 4519 1948 B091 0000 		lds r27,__clock__+2
 4520 194c 1091 0000 		lds r17,__clock__+3
 4521 1950 0091 0000 		lds r16,__clock__+4
 4522               	.LVL258:
 4523 1954 F090 0000 		lds r15,__clock__+5
 4524 1958 E090 0000 		lds r14,__clock__+6
 4525 195c 9090 0000 		lds r9,__clock__+7
 4526               	.LBE279:
 4527               	.LBE278:
 4528               	.LM430:
 4529 1960 8091 0000 		lds r24,debounce_b
 4530 1964 2091 0000 		lds r18,debounce_b+1
 4531 1968 3091 0000 		lds r19,debounce_b+2
 4532 196c 4091 0000 		lds r20,debounce_b+3
 4533 1970 5091 0000 		lds r21,debounce_b+4
 4534 1974 D090 0000 		lds r13,debounce_b+5
 4535 1978 B090 0000 		lds r11,debounce_b+6
 4536 197c A090 0000 		lds r10,debounce_b+7
 4537 1980 C72E      		mov r12,r23
 4538 1982 C81A      		sub r12,r24
 4539 1984 91E0      		ldi r25,lo8(1)
 4540 1986 7C15      		cp r23,r12
 4541 1988 00F0      		brlo .L342
 4542 198a 90E0      		ldi r25,lo8(0)
 4543               	.L342:
 4544 198c 8A2F      		mov r24,r26
 4545 198e 821B      		sub r24,r18
 4546 1990 21E0      		ldi r18,lo8(1)
 4547 1992 A817      		cp r26,r24
 4548 1994 00F0      		brlo .L343
 4549 1996 20E0      		ldi r18,lo8(0)
 4550               	.L343:
 4551 1998 F82F      		mov r31,r24
 4552 199a F91B      		sub r31,r25
 4553 199c 91E0      		ldi r25,lo8(1)
 4554 199e 8F17      		cp r24,r31
 4555 19a0 00F0      		brlo .L344
 4556 19a2 90E0      		ldi r25,lo8(0)
 4557               	.L344:
 4558 19a4 292B      		or r18,r25
 4559 19a6 8B2F      		mov r24,r27
 4560 19a8 831B      		sub r24,r19
 4561 19aa 31E0      		ldi r19,lo8(1)
 4562 19ac B817      		cp r27,r24
 4563 19ae 00F0      		brlo .L345
 4564 19b0 30E0      		ldi r19,lo8(0)
 4565               	.L345:
 4566 19b2 E82F      		mov r30,r24
 4567 19b4 E21B      		sub r30,r18
 4568 19b6 91E0      		ldi r25,lo8(1)
 4569 19b8 8E17      		cp r24,r30
 4570 19ba 00F0      		brlo .L346
 4571 19bc 90E0      		ldi r25,lo8(0)
 4572               	.L346:
 4573 19be 392B      		or r19,r25
 4574 19c0 812F      		mov r24,r17
 4575 19c2 841B      		sub r24,r20
 4576 19c4 21E0      		ldi r18,lo8(1)
 4577 19c6 1817      		cp r17,r24
 4578 19c8 00F0      		brlo .L347
 4579 19ca 20E0      		ldi r18,lo8(0)
 4580               	.L347:
 4581 19cc 682F      		mov r22,r24
 4582 19ce 631B      		sub r22,r19
 4583 19d0 91E0      		ldi r25,lo8(1)
 4584 19d2 8617      		cp r24,r22
 4585 19d4 00F0      		brlo .L348
 4586 19d6 90E0      		ldi r25,lo8(0)
 4587               	.L348:
 4588 19d8 292B      		or r18,r25
 4589 19da 802F      		mov r24,r16
 4590 19dc 851B      		sub r24,r21
 4591 19de 31E0      		ldi r19,lo8(1)
 4592 19e0 0817      		cp r16,r24
 4593 19e2 00F0      		brlo .L349
 4594 19e4 30E0      		ldi r19,lo8(0)
 4595               	.L349:
 4596 19e6 582F      		mov r21,r24
 4597 19e8 521B      		sub r21,r18
 4598 19ea 91E0      		ldi r25,lo8(1)
 4599 19ec 8517      		cp r24,r21
 4600 19ee 00F0      		brlo .L350
 4601 19f0 90E0      		ldi r25,lo8(0)
 4602               	.L350:
 4603 19f2 392B      		or r19,r25
 4604 19f4 8F2D      		mov r24,r15
 4605 19f6 8D19      		sub r24,r13
 4606 19f8 21E0      		ldi r18,lo8(1)
 4607 19fa F816      		cp r15,r24
 4608 19fc 00F0      		brlo .L351
 4609 19fe 20E0      		ldi r18,lo8(0)
 4610               	.L351:
 4611 1a00 482F      		mov r20,r24
 4612 1a02 431B      		sub r20,r19
 4613 1a04 91E0      		ldi r25,lo8(1)
 4614 1a06 8417      		cp r24,r20
 4615 1a08 00F0      		brlo .L352
 4616 1a0a 90E0      		ldi r25,lo8(0)
 4617               	.L352:
 4618 1a0c 292B      		or r18,r25
 4619 1a0e 8E2D      		mov r24,r14
 4620 1a10 8B19      		sub r24,r11
 4621 1a12 91E0      		ldi r25,lo8(1)
 4622 1a14 E816      		cp r14,r24
 4623 1a16 00F0      		brlo .L353
 4624 1a18 90E0      		ldi r25,lo8(0)
 4625               	.L353:
 4626 1a1a 382F      		mov r19,r24
 4627 1a1c 321B      		sub r19,r18
 4628 1a1e 21E0      		ldi r18,lo8(1)
 4629 1a20 8317      		cp r24,r19
 4630 1a22 00F0      		brlo .L354
 4631 1a24 20E0      		ldi r18,lo8(0)
 4632               	.L354:
 4633 1a26 922B      		or r25,r18
 4634 1a28 892D      		mov r24,r9
 4635 1a2a 8A19      		sub r24,r10
 4636 1a2c 8917      		cp r24,r25
 4637 1a2e 01F4      		brne .L386
 4638 1a30 3323      		tst r19
 4639 1a32 01F4      		brne .L386
 4640 1a34 4423      		tst r20
 4641 1a36 01F4      		brne .L386
 4642 1a38 5523      		tst r21
 4643 1a3a 01F4      		brne .L386
 4644 1a3c 6623      		tst r22
 4645 1a3e 01F4      		brne .L386
 4646 1a40 EE23      		tst r30
 4647 1a42 01F4      		brne .L386
 4648 1a44 FF23      		tst r31
 4649 1a46 01F4      		brne .L386
 4650 1a48 3AEF      		ldi r19,lo8(-6)
 4651 1a4a 3C15      		cp r19,r12
 4652 1a4c 00F0      		brlo .+2
 4653 1a4e 00C0      		rjmp .L341
 4654               	.L386:
 4655               	.LM431:
 4656 1a50 8091 0000 		lds r24,hook_edit_stage
 4657 1a54 8823      		tst r24
 4658 1a56 01F4      		brne .L356
 4659               	.LM432:
 4660 1a58 8091 0000 		lds r24,hook_m_ptr
 4661 1a5c 8330      		cpi r24,lo8(3)
 4662 1a5e 00F0      		brlo .+2
 4663 1a60 00C0      		rjmp .L360
 4664 1a62 8F5F      		subi r24,lo8(-(1))
 4665 1a64 8093 0000 		sts hook_m_ptr,r24
 4666 1a68 00C0      		rjmp .L360
 4667               	.L356:
 4668               	.LM433:
 4669 1a6a 8130      		cpi r24,lo8(1)
 4670 1a6c 01F4      		brne .L359
 4671               	.LM434:
 4672 1a6e 8091 0000 		lds r24,hook_m_ptr
 4673 1a72 90E0      		ldi r25,lo8(0)
 4674 1a74 FC01      		movw r30,r24
 4675 1a76 EE0F      		lsl r30
 4676 1a78 FF1F      		rol r31
 4677 1a7a EE0F      		lsl r30
 4678 1a7c FF1F      		rol r31
 4679 1a7e E80F      		add r30,r24
 4680 1a80 F91F      		adc r31,r25
 4681 1a82 E050      		subi r30,lo8(-(hooks))
 4682 1a84 F040      		sbci r31,hi8(-(hooks))
 4683 1a86 8081      		ld r24,Z
 4684 1a88 8823      		tst r24
 4685 1a8a 01F4      		brne .+2
 4686 1a8c 00C0      		rjmp .L360
 4687 1a8e 8150      		subi r24,lo8(-(-1))
 4688 1a90 8083      		st Z,r24
 4689 1a92 00C0      		rjmp .L360
 4690               	.L359:
 4691               	.LM435:
 4692 1a94 8230      		cpi r24,lo8(2)
 4693 1a96 01F4      		brne .L357
 4694               	.LM436:
 4695 1a98 8091 0000 		lds r24,hook_m_ptr
 4696 1a9c 90E0      		ldi r25,lo8(0)
 4697 1a9e FC01      		movw r30,r24
 4698 1aa0 EE0F      		lsl r30
 4699 1aa2 FF1F      		rol r31
 4700 1aa4 EE0F      		lsl r30
 4701 1aa6 FF1F      		rol r31
 4702 1aa8 E80F      		add r30,r24
 4703 1aaa F91F      		adc r31,r25
 4704 1aac E050      		subi r30,lo8(-(hooks))
 4705 1aae F040      		sbci r31,hi8(-(hooks))
 4706 1ab0 8181      		ldd r24,Z+1
 4707 1ab2 9281      		ldd r25,Z+2
 4708 1ab4 4FEF      		ldi r20,hi8(-54)
 4709 1ab6 8A3C      		cpi r24,lo8(-54)
 4710 1ab8 9407      		cpc r25,r20
 4711 1aba 04F0      		brlt .L360
 4712 1abc 0197      		sbiw r24,1
 4713 1abe 9283      		std Z+2,r25
 4714 1ac0 8183      		std Z+1,r24
 4715 1ac2 00C0      		rjmp .L360
 4716               	.L357:
 4717               	.LM437:
 4718 1ac4 8330      		cpi r24,lo8(3)
 4719 1ac6 01F4      		brne .L358
 4720               	.LM438:
 4721 1ac8 8091 0000 		lds r24,hook_m_ptr
 4722 1acc 90E0      		ldi r25,lo8(0)
 4723 1ace FC01      		movw r30,r24
 4724 1ad0 EE0F      		lsl r30
 4725 1ad2 FF1F      		rol r31
 4726 1ad4 EE0F      		lsl r30
 4727 1ad6 FF1F      		rol r31
 4728 1ad8 E80F      		add r30,r24
 4729 1ada F91F      		adc r31,r25
 4730 1adc E050      		subi r30,lo8(-(hooks))
 4731 1ade F040      		sbci r31,hi8(-(hooks))
 4732 1ae0 8381      		ldd r24,Z+3
 4733 1ae2 8823      		tst r24
 4734 1ae4 01F0      		breq .L360
 4735 1ae6 8150      		subi r24,lo8(-(-1))
 4736 1ae8 8383      		std Z+3,r24
 4737 1aea 00C0      		rjmp .L360
 4738               	.L358:
 4739               	.LM439:
 4740 1aec 8430      		cpi r24,lo8(4)
 4741 1aee 01F4      		brne .L360
 4742               	.LM440:
 4743 1af0 8091 0000 		lds r24,hook_m_ptr
 4744 1af4 90E0      		ldi r25,lo8(0)
 4745 1af6 FC01      		movw r30,r24
 4746 1af8 EE0F      		lsl r30
 4747 1afa FF1F      		rol r31
 4748 1afc EE0F      		lsl r30
 4749 1afe FF1F      		rol r31
 4750 1b00 E80F      		add r30,r24
 4751 1b02 F91F      		adc r31,r25
 4752 1b04 E050      		subi r30,lo8(-(hooks))
 4753 1b06 F040      		sbci r31,hi8(-(hooks))
 4754 1b08 8481      		ldd r24,Z+4
 4755 1b0a 8530      		cpi r24,lo8(5)
 4756 1b0c 00F0      		brlo .L360
 4757 1b0e 8150      		subi r24,lo8(-(-1))
 4758 1b10 8483      		std Z+4,r24
 4759               	.L360:
 4760               	.LM441:
 4761 1b12 7093 0000 		sts debounce_b,r23
 4762 1b16 A093 0000 		sts debounce_b+1,r26
 4763 1b1a B093 0000 		sts debounce_b+2,r27
 4764 1b1e 1093 0000 		sts debounce_b+3,r17
 4765 1b22 0093 0000 		sts debounce_b+4,r16
 4766 1b26 F092 0000 		sts debounce_b+5,r15
 4767 1b2a E092 0000 		sts debounce_b+6,r14
 4768 1b2e 9092 0000 		sts debounce_b+7,r9
 4769               	.LVL259:
 4770               	.L341:
 4771               	.LM442:
 4772 1b32 9A9B      		sbis 51-32,2
 4773 1b34 00C0      		rjmp .L361
 4774               	.LBB280:
 4775               	.LBB281:
 4776               	.LM443:
 4777 1b36 6091 0000 		lds r22,__clock__
 4778 1b3a 7091 0000 		lds r23,__clock__+1
 4779 1b3e A091 0000 		lds r26,__clock__+2
 4780 1b42 B091 0000 		lds r27,__clock__+3
 4781 1b46 1091 0000 		lds r17,__clock__+4
 4782 1b4a 0091 0000 		lds r16,__clock__+5
 4783               	.LVL260:
 4784 1b4e F090 0000 		lds r15,__clock__+6
 4785 1b52 9090 0000 		lds r9,__clock__+7
 4786               	.LBE281:
 4787               	.LBE280:
 4788               	.LM444:
 4789 1b56 8091 0000 		lds r24,debounce_c
 4790 1b5a 2091 0000 		lds r18,debounce_c+1
 4791 1b5e 3091 0000 		lds r19,debounce_c+2
 4792 1b62 4091 0000 		lds r20,debounce_c+3
 4793 1b66 5091 0000 		lds r21,debounce_c+4
 4794 1b6a D090 0000 		lds r13,debounce_c+5
 4795 1b6e B090 0000 		lds r11,debounce_c+6
 4796 1b72 A090 0000 		lds r10,debounce_c+7
 4797 1b76 C62E      		mov r12,r22
 4798 1b78 C81A      		sub r12,r24
 4799 1b7a 91E0      		ldi r25,lo8(1)
 4800 1b7c 6C15      		cp r22,r12
 4801 1b7e 00F0      		brlo .L362
 4802 1b80 90E0      		ldi r25,lo8(0)
 4803               	.L362:
 4804 1b82 872F      		mov r24,r23
 4805 1b84 821B      		sub r24,r18
 4806 1b86 21E0      		ldi r18,lo8(1)
 4807 1b88 7817      		cp r23,r24
 4808 1b8a 00F0      		brlo .L363
 4809 1b8c 20E0      		ldi r18,lo8(0)
 4810               	.L363:
 4811 1b8e E82E      		mov r14,r24
 4812 1b90 E91A      		sub r14,r25
 4813 1b92 91E0      		ldi r25,lo8(1)
 4814 1b94 8E15      		cp r24,r14
 4815 1b96 00F0      		brlo .L364
 4816 1b98 90E0      		ldi r25,lo8(0)
 4817               	.L364:
 4818 1b9a 292B      		or r18,r25
 4819 1b9c 8A2F      		mov r24,r26
 4820 1b9e 831B      		sub r24,r19
 4821 1ba0 31E0      		ldi r19,lo8(1)
 4822 1ba2 A817      		cp r26,r24
 4823 1ba4 00F0      		brlo .L365
 4824 1ba6 30E0      		ldi r19,lo8(0)
 4825               	.L365:
 4826 1ba8 F82F      		mov r31,r24
 4827 1baa F21B      		sub r31,r18
 4828 1bac 91E0      		ldi r25,lo8(1)
 4829 1bae 8F17      		cp r24,r31
 4830 1bb0 00F0      		brlo .L366
 4831 1bb2 90E0      		ldi r25,lo8(0)
 4832               	.L366:
 4833 1bb4 392B      		or r19,r25
 4834 1bb6 8B2F      		mov r24,r27
 4835 1bb8 841B      		sub r24,r20
 4836 1bba 21E0      		ldi r18,lo8(1)
 4837 1bbc B817      		cp r27,r24
 4838 1bbe 00F0      		brlo .L367
 4839 1bc0 20E0      		ldi r18,lo8(0)
 4840               	.L367:
 4841 1bc2 E82F      		mov r30,r24
 4842 1bc4 E31B      		sub r30,r19
 4843 1bc6 91E0      		ldi r25,lo8(1)
 4844 1bc8 8E17      		cp r24,r30
 4845 1bca 00F0      		brlo .L368
 4846 1bcc 90E0      		ldi r25,lo8(0)
 4847               	.L368:
 4848 1bce 292B      		or r18,r25
 4849 1bd0 812F      		mov r24,r17
 4850 1bd2 851B      		sub r24,r21
 4851 1bd4 31E0      		ldi r19,lo8(1)
 4852 1bd6 1817      		cp r17,r24
 4853 1bd8 00F0      		brlo .L369
 4854 1bda 30E0      		ldi r19,lo8(0)
 4855               	.L369:
 4856 1bdc 582F      		mov r21,r24
 4857 1bde 521B      		sub r21,r18
 4858 1be0 91E0      		ldi r25,lo8(1)
 4859 1be2 8517      		cp r24,r21
 4860 1be4 00F0      		brlo .L370
 4861 1be6 90E0      		ldi r25,lo8(0)
 4862               	.L370:
 4863 1be8 392B      		or r19,r25
 4864 1bea 802F      		mov r24,r16
 4865 1bec 8D19      		sub r24,r13
 4866 1bee 21E0      		ldi r18,lo8(1)
 4867 1bf0 0817      		cp r16,r24
 4868 1bf2 00F0      		brlo .L371
 4869 1bf4 20E0      		ldi r18,lo8(0)
 4870               	.L371:
 4871 1bf6 482F      		mov r20,r24
 4872 1bf8 431B      		sub r20,r19
 4873 1bfa 91E0      		ldi r25,lo8(1)
 4874 1bfc 8417      		cp r24,r20
 4875 1bfe 00F0      		brlo .L372
 4876 1c00 90E0      		ldi r25,lo8(0)
 4877               	.L372:
 4878 1c02 292B      		or r18,r25
 4879 1c04 8F2D      		mov r24,r15
 4880 1c06 8B19      		sub r24,r11
 4881 1c08 91E0      		ldi r25,lo8(1)
 4882 1c0a F816      		cp r15,r24
 4883 1c0c 00F0      		brlo .L373
 4884 1c0e 90E0      		ldi r25,lo8(0)
 4885               	.L373:
 4886 1c10 382F      		mov r19,r24
 4887 1c12 321B      		sub r19,r18
 4888 1c14 21E0      		ldi r18,lo8(1)
 4889 1c16 8317      		cp r24,r19
 4890 1c18 00F0      		brlo .L374
 4891 1c1a 20E0      		ldi r18,lo8(0)
 4892               	.L374:
 4893 1c1c 922B      		or r25,r18
 4894 1c1e 892D      		mov r24,r9
 4895 1c20 8A19      		sub r24,r10
 4896 1c22 8917      		cp r24,r25
 4897 1c24 01F4      		brne .L387
 4898 1c26 3323      		tst r19
 4899 1c28 01F4      		brne .L387
 4900 1c2a 4423      		tst r20
 4901 1c2c 01F4      		brne .L387
 4902 1c2e 5523      		tst r21
 4903 1c30 01F4      		brne .L387
 4904 1c32 EE23      		tst r30
 4905 1c34 01F4      		brne .L387
 4906 1c36 FF23      		tst r31
 4907 1c38 01F4      		brne .L387
 4908 1c3a EE20      		tst r14
 4909 1c3c 01F4      		brne .L387
 4910 1c3e 5AEF      		ldi r21,lo8(-6)
 4911 1c40 5C15      		cp r21,r12
 4912 1c42 00F4      		brsh .L361
 4913               	.L387:
 4914               	.LM445:
 4915 1c44 2091 0000 		lds r18,hook_edit_stage
 4916 1c48 2F5F      		subi r18,lo8(-(1))
 4917 1c4a 2093 0000 		sts hook_edit_stage,r18
 4918               	.LM446:
 4919 1c4e 2430      		cpi r18,lo8(4)
 4920 1c50 00F0      		brlo .L376
 4921 1c52 8091 0000 		lds r24,hook_m_ptr
 4922 1c56 90E0      		ldi r25,lo8(0)
 4923 1c58 FC01      		movw r30,r24
 4924 1c5a EE0F      		lsl r30
 4925 1c5c FF1F      		rol r31
 4926 1c5e EE0F      		lsl r30
 4927 1c60 FF1F      		rol r31
 4928 1c62 E80F      		add r30,r24
 4929 1c64 F91F      		adc r31,r25
 4930 1c66 E050      		subi r30,lo8(-(hooks))
 4931 1c68 F040      		sbci r31,hi8(-(hooks))
 4932 1c6a 8381      		ldd r24,Z+3
 4933 1c6c 8823      		tst r24
 4934 1c6e 01F0      		breq .L377
 4935 1c70 2530      		cpi r18,lo8(5)
 4936 1c72 00F0      		brlo .L376
 4937               	.L377:
 4938 1c74 1092 0000 		sts hook_edit_stage,__zero_reg__
 4939               	.L376:
 4940               	.LM447:
 4941 1c78 6093 0000 		sts debounce_c,r22
 4942 1c7c 7093 0000 		sts debounce_c+1,r23
 4943 1c80 A093 0000 		sts debounce_c+2,r26
 4944 1c84 B093 0000 		sts debounce_c+3,r27
 4945 1c88 1093 0000 		sts debounce_c+4,r17
 4946 1c8c 0093 0000 		sts debounce_c+5,r16
 4947 1c90 F092 0000 		sts debounce_c+6,r15
 4948 1c94 9092 0000 		sts debounce_c+7,r9
 4949               	.LVL261:
 4950               	.L361:
 4951               	.LM448:
 4952 1c98 8091 0000 		lds r24,hook_m_ptr
 4953 1c9c 8F5F      		subi r24,lo8(-(1))
 4954 1c9e 6091 0000 		lds r22,hook_edit_stage
 4955 1ca2 00D0      		rcall draw_hook_ptr
 4956               	.L319:
 4957               	.LM449:
 4958 1ca4 00D0      		rcall lcd_update
 4959 1ca6 00C0      		rjmp .L378
 4960               	.LFE47:
 4962               	.global	CHARS_TABLE
 4963               		.section	.eeprom,"a",@progbits
 4966               	CHARS_TABLE:
 4967 0000 00        		.byte	0
 4968 0001 00        		.byte	0
 4969 0002 00        		.byte	0
 4970 0003 00        		.byte	0
 4971 0004 00        		.byte	0
 4972 0005 00        		.byte	0
 4973 0006 00        		.byte	0
 4974 0007 5F        		.byte	95
 4975 0008 00        		.byte	0
 4976 0009 00        		.byte	0
 4977 000a 00        		.byte	0
 4978 000b 07        		.byte	7
 4979 000c 00        		.byte	0
 4980 000d 07        		.byte	7
 4981 000e 00        		.byte	0
 4982 000f 14        		.byte	20
 4983 0010 7F        		.byte	127
 4984 0011 14        		.byte	20
 4985 0012 7F        		.byte	127
 4986 0013 14        		.byte	20
 4987 0014 24        		.byte	36
 4988 0015 2A        		.byte	42
 4989 0016 7F        		.byte	127
 4990 0017 2A        		.byte	42
 4991 0018 12        		.byte	18
 4992 0019 23        		.byte	35
 4993 001a 13        		.byte	19
 4994 001b 08        		.byte	8
 4995 001c 64        		.byte	100
 4996 001d 62        		.byte	98
 4997 001e 36        		.byte	54
 4998 001f 49        		.byte	73
 4999 0020 55        		.byte	85
 5000 0021 22        		.byte	34
 5001 0022 50        		.byte	80
 5002 0023 00        		.byte	0
 5003 0024 05        		.byte	5
 5004 0025 03        		.byte	3
 5005 0026 00        		.byte	0
 5006 0027 00        		.byte	0
 5007 0028 00        		.byte	0
 5008 0029 1C        		.byte	28
 5009 002a 22        		.byte	34
 5010 002b 41        		.byte	65
 5011 002c 00        		.byte	0
 5012 002d 00        		.byte	0
 5013 002e 41        		.byte	65
 5014 002f 22        		.byte	34
 5015 0030 1C        		.byte	28
 5016 0031 00        		.byte	0
 5017 0032 08        		.byte	8
 5018 0033 2A        		.byte	42
 5019 0034 1C        		.byte	28
 5020 0035 2A        		.byte	42
 5021 0036 08        		.byte	8
 5022 0037 08        		.byte	8
 5023 0038 08        		.byte	8
 5024 0039 3E        		.byte	62
 5025 003a 08        		.byte	8
 5026 003b 08        		.byte	8
 5027 003c 00        		.byte	0
 5028 003d 50        		.byte	80
 5029 003e 30        		.byte	48
 5030 003f 00        		.byte	0
 5031 0040 00        		.byte	0
 5032 0041 08        		.byte	8
 5033 0042 08        		.byte	8
 5034 0043 08        		.byte	8
 5035 0044 08        		.byte	8
 5036 0045 08        		.byte	8
 5037 0046 00        		.byte	0
 5038 0047 60        		.byte	96
 5039 0048 60        		.byte	96
 5040 0049 00        		.byte	0
 5041 004a 00        		.byte	0
 5042 004b 20        		.byte	32
 5043 004c 10        		.byte	16
 5044 004d 08        		.byte	8
 5045 004e 04        		.byte	4
 5046 004f 02        		.byte	2
 5047 0050 3E        		.byte	62
 5048 0051 51        		.byte	81
 5049 0052 49        		.byte	73
 5050 0053 45        		.byte	69
 5051 0054 3E        		.byte	62
 5052 0055 00        		.byte	0
 5053 0056 42        		.byte	66
 5054 0057 7F        		.byte	127
 5055 0058 40        		.byte	64
 5056 0059 00        		.byte	0
 5057 005a 42        		.byte	66
 5058 005b 61        		.byte	97
 5059 005c 51        		.byte	81
 5060 005d 49        		.byte	73
 5061 005e 46        		.byte	70
 5062 005f 21        		.byte	33
 5063 0060 41        		.byte	65
 5064 0061 45        		.byte	69
 5065 0062 4B        		.byte	75
 5066 0063 31        		.byte	49
 5067 0064 18        		.byte	24
 5068 0065 14        		.byte	20
 5069 0066 12        		.byte	18
 5070 0067 7F        		.byte	127
 5071 0068 10        		.byte	16
 5072 0069 27        		.byte	39
 5073 006a 45        		.byte	69
 5074 006b 45        		.byte	69
 5075 006c 45        		.byte	69
 5076 006d 39        		.byte	57
 5077 006e 3C        		.byte	60
 5078 006f 4A        		.byte	74
 5079 0070 49        		.byte	73
 5080 0071 49        		.byte	73
 5081 0072 30        		.byte	48
 5082 0073 01        		.byte	1
 5083 0074 71        		.byte	113
 5084 0075 09        		.byte	9
 5085 0076 05        		.byte	5
 5086 0077 03        		.byte	3
 5087 0078 36        		.byte	54
 5088 0079 49        		.byte	73
 5089 007a 49        		.byte	73
 5090 007b 49        		.byte	73
 5091 007c 36        		.byte	54
 5092 007d 06        		.byte	6
 5093 007e 49        		.byte	73
 5094 007f 49        		.byte	73
 5095 0080 29        		.byte	41
 5096 0081 1E        		.byte	30
 5097 0082 00        		.byte	0
 5098 0083 36        		.byte	54
 5099 0084 36        		.byte	54
 5100 0085 00        		.byte	0
 5101 0086 00        		.byte	0
 5102 0087 00        		.byte	0
 5103 0088 56        		.byte	86
 5104 0089 36        		.byte	54
 5105 008a 00        		.byte	0
 5106 008b 00        		.byte	0
 5107 008c 00        		.byte	0
 5108 008d 08        		.byte	8
 5109 008e 14        		.byte	20
 5110 008f 22        		.byte	34
 5111 0090 41        		.byte	65
 5112 0091 14        		.byte	20
 5113 0092 14        		.byte	20
 5114 0093 14        		.byte	20
 5115 0094 14        		.byte	20
 5116 0095 14        		.byte	20
 5117 0096 41        		.byte	65
 5118 0097 22        		.byte	34
 5119 0098 14        		.byte	20
 5120 0099 08        		.byte	8
 5121 009a 00        		.byte	0
 5122 009b 02        		.byte	2
 5123 009c 01        		.byte	1
 5124 009d 51        		.byte	81
 5125 009e 09        		.byte	9
 5126 009f 06        		.byte	6
 5127 00a0 32        		.byte	50
 5128 00a1 49        		.byte	73
 5129 00a2 79        		.byte	121
 5130 00a3 41        		.byte	65
 5131 00a4 3E        		.byte	62
 5132 00a5 7E        		.byte	126
 5133 00a6 11        		.byte	17
 5134 00a7 11        		.byte	17
 5135 00a8 11        		.byte	17
 5136 00a9 7E        		.byte	126
 5137 00aa 7F        		.byte	127
 5138 00ab 49        		.byte	73
 5139 00ac 49        		.byte	73
 5140 00ad 49        		.byte	73
 5141 00ae 36        		.byte	54
 5142 00af 3E        		.byte	62
 5143 00b0 41        		.byte	65
 5144 00b1 41        		.byte	65
 5145 00b2 41        		.byte	65
 5146 00b3 22        		.byte	34
 5147 00b4 7F        		.byte	127
 5148 00b5 41        		.byte	65
 5149 00b6 41        		.byte	65
 5150 00b7 22        		.byte	34
 5151 00b8 1C        		.byte	28
 5152 00b9 7F        		.byte	127
 5153 00ba 49        		.byte	73
 5154 00bb 49        		.byte	73
 5155 00bc 49        		.byte	73
 5156 00bd 41        		.byte	65
 5157 00be 7F        		.byte	127
 5158 00bf 09        		.byte	9
 5159 00c0 09        		.byte	9
 5160 00c1 01        		.byte	1
 5161 00c2 01        		.byte	1
 5162 00c3 3E        		.byte	62
 5163 00c4 41        		.byte	65
 5164 00c5 41        		.byte	65
 5165 00c6 51        		.byte	81
 5166 00c7 32        		.byte	50
 5167 00c8 7F        		.byte	127
 5168 00c9 08        		.byte	8
 5169 00ca 08        		.byte	8
 5170 00cb 08        		.byte	8
 5171 00cc 7F        		.byte	127
 5172 00cd 00        		.byte	0
 5173 00ce 41        		.byte	65
 5174 00cf 7F        		.byte	127
 5175 00d0 41        		.byte	65
 5176 00d1 00        		.byte	0
 5177 00d2 20        		.byte	32
 5178 00d3 40        		.byte	64
 5179 00d4 41        		.byte	65
 5180 00d5 3F        		.byte	63
 5181 00d6 01        		.byte	1
 5182 00d7 7F        		.byte	127
 5183 00d8 08        		.byte	8
 5184 00d9 14        		.byte	20
 5185 00da 22        		.byte	34
 5186 00db 41        		.byte	65
 5187 00dc 7F        		.byte	127
 5188 00dd 40        		.byte	64
 5189 00de 40        		.byte	64
 5190 00df 40        		.byte	64
 5191 00e0 40        		.byte	64
 5192 00e1 7F        		.byte	127
 5193 00e2 02        		.byte	2
 5194 00e3 04        		.byte	4
 5195 00e4 02        		.byte	2
 5196 00e5 7F        		.byte	127
 5197 00e6 7F        		.byte	127
 5198 00e7 04        		.byte	4
 5199 00e8 08        		.byte	8
 5200 00e9 10        		.byte	16
 5201 00ea 7F        		.byte	127
 5202 00eb 3E        		.byte	62
 5203 00ec 41        		.byte	65
 5204 00ed 41        		.byte	65
 5205 00ee 41        		.byte	65
 5206 00ef 3E        		.byte	62
 5207 00f0 7F        		.byte	127
 5208 00f1 09        		.byte	9
 5209 00f2 09        		.byte	9
 5210 00f3 09        		.byte	9
 5211 00f4 06        		.byte	6
 5212 00f5 3E        		.byte	62
 5213 00f6 41        		.byte	65
 5214 00f7 51        		.byte	81
 5215 00f8 21        		.byte	33
 5216 00f9 5E        		.byte	94
 5217 00fa 7F        		.byte	127
 5218 00fb 09        		.byte	9
 5219 00fc 19        		.byte	25
 5220 00fd 29        		.byte	41
 5221 00fe 46        		.byte	70
 5222 00ff 46        		.byte	70
 5223 0100 49        		.byte	73
 5224 0101 49        		.byte	73
 5225 0102 49        		.byte	73
 5226 0103 31        		.byte	49
 5227 0104 01        		.byte	1
 5228 0105 01        		.byte	1
 5229 0106 7F        		.byte	127
 5230 0107 01        		.byte	1
 5231 0108 01        		.byte	1
 5232 0109 3F        		.byte	63
 5233 010a 40        		.byte	64
 5234 010b 40        		.byte	64
 5235 010c 40        		.byte	64
 5236 010d 3F        		.byte	63
 5237 010e 1F        		.byte	31
 5238 010f 20        		.byte	32
 5239 0110 40        		.byte	64
 5240 0111 20        		.byte	32
 5241 0112 1F        		.byte	31
 5242 0113 7F        		.byte	127
 5243 0114 20        		.byte	32
 5244 0115 18        		.byte	24
 5245 0116 20        		.byte	32
 5246 0117 7F        		.byte	127
 5247 0118 63        		.byte	99
 5248 0119 14        		.byte	20
 5249 011a 08        		.byte	8
 5250 011b 14        		.byte	20
 5251 011c 63        		.byte	99
 5252 011d 03        		.byte	3
 5253 011e 04        		.byte	4
 5254 011f 78        		.byte	120
 5255 0120 04        		.byte	4
 5256 0121 03        		.byte	3
 5257 0122 61        		.byte	97
 5258 0123 51        		.byte	81
 5259 0124 49        		.byte	73
 5260 0125 45        		.byte	69
 5261 0126 43        		.byte	67
 5262 0127 00        		.byte	0
 5263 0128 00        		.byte	0
 5264 0129 7F        		.byte	127
 5265 012a 41        		.byte	65
 5266 012b 41        		.byte	65
 5267 012c 02        		.byte	2
 5268 012d 04        		.byte	4
 5269 012e 08        		.byte	8
 5270 012f 10        		.byte	16
 5271 0130 20        		.byte	32
 5272 0131 41        		.byte	65
 5273 0132 41        		.byte	65
 5274 0133 7F        		.byte	127
 5275 0134 00        		.byte	0
 5276 0135 00        		.byte	0
 5277 0136 04        		.byte	4
 5278 0137 02        		.byte	2
 5279 0138 01        		.byte	1
 5280 0139 02        		.byte	2
 5281 013a 04        		.byte	4
 5282 013b 40        		.byte	64
 5283 013c 40        		.byte	64
 5284 013d 40        		.byte	64
 5285 013e 40        		.byte	64
 5286 013f 40        		.byte	64
 5287 0140 00        		.byte	0
 5288 0141 01        		.byte	1
 5289 0142 02        		.byte	2
 5290 0143 04        		.byte	4
 5291 0144 00        		.byte	0
 5292 0145 20        		.byte	32
 5293 0146 54        		.byte	84
 5294 0147 54        		.byte	84
 5295 0148 54        		.byte	84
 5296 0149 78        		.byte	120
 5297 014a 7F        		.byte	127
 5298 014b 48        		.byte	72
 5299 014c 44        		.byte	68
 5300 014d 44        		.byte	68
 5301 014e 38        		.byte	56
 5302 014f 38        		.byte	56
 5303 0150 44        		.byte	68
 5304 0151 44        		.byte	68
 5305 0152 44        		.byte	68
 5306 0153 20        		.byte	32
 5307 0154 38        		.byte	56
 5308 0155 44        		.byte	68
 5309 0156 44        		.byte	68
 5310 0157 48        		.byte	72
 5311 0158 7F        		.byte	127
 5312 0159 38        		.byte	56
 5313 015a 54        		.byte	84
 5314 015b 54        		.byte	84
 5315 015c 54        		.byte	84
 5316 015d 18        		.byte	24
 5317 015e 08        		.byte	8
 5318 015f 7E        		.byte	126
 5319 0160 09        		.byte	9
 5320 0161 01        		.byte	1
 5321 0162 02        		.byte	2
 5322 0163 08        		.byte	8
 5323 0164 14        		.byte	20
 5324 0165 54        		.byte	84
 5325 0166 54        		.byte	84
 5326 0167 3C        		.byte	60
 5327 0168 7F        		.byte	127
 5328 0169 08        		.byte	8
 5329 016a 04        		.byte	4
 5330 016b 04        		.byte	4
 5331 016c 78        		.byte	120
 5332 016d 00        		.byte	0
 5333 016e 44        		.byte	68
 5334 016f 7D        		.byte	125
 5335 0170 40        		.byte	64
 5336 0171 00        		.byte	0
 5337 0172 20        		.byte	32
 5338 0173 40        		.byte	64
 5339 0174 44        		.byte	68
 5340 0175 3D        		.byte	61
 5341 0176 00        		.byte	0
 5342 0177 00        		.byte	0
 5343 0178 7F        		.byte	127
 5344 0179 10        		.byte	16
 5345 017a 28        		.byte	40
 5346 017b 44        		.byte	68
 5347 017c 00        		.byte	0
 5348 017d 41        		.byte	65
 5349 017e 7F        		.byte	127
 5350 017f 40        		.byte	64
 5351 0180 00        		.byte	0
 5352 0181 7C        		.byte	124
 5353 0182 04        		.byte	4
 5354 0183 18        		.byte	24
 5355 0184 04        		.byte	4
 5356 0185 78        		.byte	120
 5357 0186 7C        		.byte	124
 5358 0187 08        		.byte	8
 5359 0188 04        		.byte	4
 5360 0189 04        		.byte	4
 5361 018a 78        		.byte	120
 5362 018b 38        		.byte	56
 5363 018c 44        		.byte	68
 5364 018d 44        		.byte	68
 5365 018e 44        		.byte	68
 5366 018f 38        		.byte	56
 5367 0190 7C        		.byte	124
 5368 0191 14        		.byte	20
 5369 0192 14        		.byte	20
 5370 0193 14        		.byte	20
 5371 0194 08        		.byte	8
 5372 0195 08        		.byte	8
 5373 0196 14        		.byte	20
 5374 0197 14        		.byte	20
 5375 0198 18        		.byte	24
 5376 0199 7C        		.byte	124
 5377 019a 7C        		.byte	124
 5378 019b 08        		.byte	8
 5379 019c 04        		.byte	4
 5380 019d 04        		.byte	4
 5381 019e 08        		.byte	8
 5382 019f 48        		.byte	72
 5383 01a0 54        		.byte	84
 5384 01a1 54        		.byte	84
 5385 01a2 54        		.byte	84
 5386 01a3 20        		.byte	32
 5387 01a4 04        		.byte	4
 5388 01a5 3F        		.byte	63
 5389 01a6 44        		.byte	68
 5390 01a7 40        		.byte	64
 5391 01a8 20        		.byte	32
 5392 01a9 3C        		.byte	60
 5393 01aa 40        		.byte	64
 5394 01ab 40        		.byte	64
 5395 01ac 20        		.byte	32
 5396 01ad 7C        		.byte	124
 5397 01ae 1C        		.byte	28
 5398 01af 20        		.byte	32
 5399 01b0 40        		.byte	64
 5400 01b1 20        		.byte	32
 5401 01b2 1C        		.byte	28
 5402 01b3 3C        		.byte	60
 5403 01b4 40        		.byte	64
 5404 01b5 30        		.byte	48
 5405 01b6 40        		.byte	64
 5406 01b7 3C        		.byte	60
 5407 01b8 44        		.byte	68
 5408 01b9 28        		.byte	40
 5409 01ba 10        		.byte	16
 5410 01bb 28        		.byte	40
 5411 01bc 44        		.byte	68
 5412 01bd 0C        		.byte	12
 5413 01be 50        		.byte	80
 5414 01bf 50        		.byte	80
 5415 01c0 50        		.byte	80
 5416 01c1 3C        		.byte	60
 5417 01c2 44        		.byte	68
 5418 01c3 64        		.byte	100
 5419 01c4 54        		.byte	84
 5420 01c5 4C        		.byte	76
 5421 01c6 44        		.byte	68
 5422 01c7 00        		.byte	0
 5423 01c8 08        		.byte	8
 5424 01c9 36        		.byte	54
 5425 01ca 41        		.byte	65
 5426 01cb 00        		.byte	0
 5427 01cc 00        		.byte	0
 5428 01cd 00        		.byte	0
 5429 01ce 7F        		.byte	127
 5430 01cf 00        		.byte	0
 5431 01d0 00        		.byte	0
 5432 01d1 00        		.byte	0
 5433 01d2 41        		.byte	65
 5434 01d3 36        		.byte	54
 5435 01d4 08        		.byte	8
 5436 01d5 00        		.byte	0
 5437               	.global	small_zero
 5440               	small_zero:
 5441 01d6 96        		.byte	-106
 5442 01d7 99        		.byte	-103
 5443 01d8 06        		.byte	6
 5444               	.global	small_two
 5447               	small_two:
 5448 01d9 E7        		.byte	-25
 5449 01da 73        		.byte	115
 5450               	.global	small_four
 5453               	small_four:
 5454 01db ED        		.byte	-19
 5455 01dc 49        		.byte	73
 5456               	.global	small_one
 5459               	small_one:
 5460 01dd AE        		.byte	-82
 5461 01de 02        		.byte	2
 5462               	.global	small_eight
 5465               	small_eight:
 5466 01df EF        		.byte	-17
 5467 01e0 7B        		.byte	123
 5468               	.global	small_s
 5471               	small_s:
 5472 01e1 CF        		.byte	-49
 5473 01e2 79        		.byte	121
 5474               	.global	small_p
 5477               	small_p:
 5478 01e3 EF        		.byte	-17
 5479 01e4 13        		.byte	19
 5480               	.global	ball
 5483               	ball:
 5484 01e5 3C        		.byte	60
 5485 01e6 7E        		.byte	126
 5486 01e7 FF        		.byte	-1
 5487 01e8 BF        		.byte	-65
 5488 01e9 BF        		.byte	-65
 5489 01ea DF        		.byte	-33
 5490 01eb 7E        		.byte	126
 5491 01ec 3C        		.byte	60
 5492               	.global	deg_char
 5495               	deg_char:
 5496 01ed 4E        		.byte	78
 5497 01ee 39        		.byte	57
 5498               	.global	__clock__
 5499               	.global	__clock__
 5500               		.section .bss
 5503               	__clock__:
 5504 0000 0000 0000 		.skip 8,0
 5504      0000 0000 
 5505               	.global	debounce_a
 5506               	.global	debounce_a
 5509               	debounce_a:
 5510 0008 0000 0000 		.skip 8,0
 5510      0000 0000 
 5511               	.global	debounce_b
 5512               	.global	debounce_b
 5515               	debounce_b:
 5516 0010 0000 0000 		.skip 8,0
 5516      0000 0000 
 5517               	.global	debounce_c
 5518               	.global	debounce_c
 5521               	debounce_c:
 5522 0018 0000 0000 		.skip 8,0
 5522      0000 0000 
 5523               	.global	debounce_d
 5524               	.global	debounce_d
 5527               	debounce_d:
 5528 0020 0000 0000 		.skip 8,0
 5528      0000 0000 
 5529               	.global	usp
 5530               		.data
 5533               	usp:
 5534 0008 0100      		.word	1
 5535               	.global	ltp
 5538               	ltp:
 5539 000a 28        		.byte	40
 5540               	.global	conversion_start
 5541               	.global	conversion_start
 5542               		.section .bss
 5545               	conversion_start:
 5546 0028 0000 0000 		.skip 8,0
 5546      0000 0000 
 5547               	.global	conversion
 5548               	.global	conversion
 5551               	conversion:
 5552 0030 00        		.skip 1,0
 5553               	.global	ovf_flag
 5554               	.global	ovf_flag
 5557               	ovf_flag:
 5558 0031 00        		.skip 1,0
 5559               	.global	actual_t
 5560               	.global	actual_t
 5563               	actual_t:
 5564 0032 0000      		.skip 2,0
 5565               	.global	shown_value
 5566               	.global	shown_value
 5569               	shown_value:
 5570 0034 0000      		.skip 2,0
 5571               	.global	last_upd
 5572               	.global	last_upd
 5575               	last_upd:
 5576 0036 0000 0000 		.skip 8,0
 5576      0000 0000 
 5577               	.global	vm
 5578               	.global	vm
 5581               	vm:
 5582 003e 00        		.skip 1,0
 5583               	.global	hook_m_ptr
 5584               	.global	hook_m_ptr
 5587               	hook_m_ptr:
 5588 003f 00        		.skip 1,0
 5589               	.global	hook_edit_stage
 5590               	.global	hook_edit_stage
 5593               	hook_edit_stage:
 5594 0040 00        		.skip 1,0
 5595               	.global	port_status
 5596               	.global	port_status
 5599               	port_status:
 5600 0041 0000 0000 		.skip 4,0
 5601               	.global	edit_stages
 5602               		.data
 5605               	edit_stages:
 5606 000b 0000      		.word	0
 5607 000d 5300      		.word	83
 5608 000f 0000      		.word	0
 5609 0011 0D00      		.word	13
 5610 0013 1100      		.word	17
 5611 0015 2400      		.word	36
 5612 0017 2900      		.word	41
 5613 0019 3C00      		.word	60
 5614 001b 4300      		.word	67
 5615 001d 4900      		.word	73
 5616               	.global	cmps
 5617               	.LC2:
 5618 001f 3D00      		.string	"="
 5619               	.LC3:
 5620 0021 3C00      		.string	"<"
 5621               	.LC4:
 5622 0023 3E00      		.string	">"
 5623               	.LC5:
 5624 0025 3C3D 00   		.string	"<="
 5625               	.LC6:
 5626 0028 3E3D 00   		.string	">="
 5629               	cmps:
 5630 002b 0000      		.word	.LC2
 5631 002d 0000      		.word	.LC3
 5632 002f 0000      		.word	.LC4
 5633 0031 0000      		.word	.LC5
 5634 0033 0000      		.word	.LC6
 5635               	.global	acts
 5636               	.LC7:
 5637 0035 6E6F 7000 		.string	"nop"
 5638               	.LC8:
 5639 0039 7365 7400 		.string	"set"
 5640               	.LC9:
 5641 003d 7265 7300 		.string	"res"
 5644               	acts:
 5645 0041 0000      		.word	.LC7
 5646 0043 0000      		.word	.LC8
 5647 0045 0000      		.word	.LC9
 5648               	.global	ports
 5649               	.LC10:
 5650 0047 5A00      		.string	"Z"
 5651               	.LC11:
 5652 0049 5900      		.string	"Y"
 5653               	.LC12:
 5654 004b 5800      		.string	"X"
 5655               	.LC13:
 5656 004d 5700      		.string	"W"
 5659               	ports:
 5660 004f 0000      		.word	.LC10
 5661 0051 0000      		.word	.LC11
 5662 0053 0000      		.word	.LC12
 5663 0055 0000      		.word	.LC13
 5664               		.comm LCD_CACHE,504,1
 5665               		.comm LWM,2,1
 5666               		.comm HWM,2,1
 5667               		.comm values_for_chart,114,1
 5668               		.comm hooks,20,1
 6085               	.Letext0:
DEFINED SYMBOLS
                            *ABS*:00000000 main.c
C:\Users\vivanov\AppData\Local\Temp/ccEzCmm2.s:2      *ABS*:0000003f __SREG__
C:\Users\vivanov\AppData\Local\Temp/ccEzCmm2.s:3      *ABS*:0000003e __SP_H__
C:\Users\vivanov\AppData\Local\Temp/ccEzCmm2.s:4      *ABS*:0000003d __SP_L__
C:\Users\vivanov\AppData\Local\Temp/ccEzCmm2.s:5      *ABS*:00000034 __CCP__
C:\Users\vivanov\AppData\Local\Temp/ccEzCmm2.s:6      *ABS*:00000000 __tmp_reg__
C:\Users\vivanov\AppData\Local\Temp/ccEzCmm2.s:7      *ABS*:00000001 __zero_reg__
C:\Users\vivanov\AppData\Local\Temp/ccEzCmm2.s:18     .text:00000000 wait
C:\Users\vivanov\AppData\Local\Temp/ccEzCmm2.s:30     .text:00000002 lcd_send_data
C:\Users\vivanov\AppData\Local\Temp/ccEzCmm2.s:55     .text:00000010 lcd_send_cmd
C:\Users\vivanov\AppData\Local\Temp/ccEzCmm2.s:80     .text:0000001e lcd_update
                            *COM*:00000002 LWM
                            *COM*:00000002 HWM
                            *COM*:000001f8 LCD_CACHE
C:\Users\vivanov\AppData\Local\Temp/ccEzCmm2.s:184    .text:000000e2 lcd_pixel
C:\Users\vivanov\AppData\Local\Temp/ccEzCmm2.s:304    .text:0000019c min
C:\Users\vivanov\AppData\Local\Temp/ccEzCmm2.s:329    .text:000001ac max
C:\Users\vivanov\AppData\Local\Temp/ccEzCmm2.s:354    .text:000001bc lcd_h_line
C:\Users\vivanov\AppData\Local\Temp/ccEzCmm2.s:435    .text:00000214 lcd_v_line
C:\Users\vivanov\AppData\Local\Temp/ccEzCmm2.s:517    .text:0000026c lcd_line
C:\Users\vivanov\AppData\Local\Temp/ccEzCmm2.s:757    .text:0000038a dt_test
C:\Users\vivanov\AppData\Local\Temp/ccEzCmm2.s:851    .text:000003b4 dt_rx
C:\Users\vivanov\AppData\Local\Temp/ccEzCmm2.s:938    .text:000003de dt_rx8
C:\Users\vivanov\AppData\Local\Temp/ccEzCmm2.s:980    .text:0000040e dt_tx
C:\Users\vivanov\AppData\Local\Temp/ccEzCmm2.s:1046   .text:0000042a dt_tx8
C:\Users\vivanov\AppData\Local\Temp/ccEzCmm2.s:1112   .text:0000047c dt_convert
C:\Users\vivanov\AppData\Local\Temp/ccEzCmm2.s:1133   .text:0000048c dt_read
C:\Users\vivanov\AppData\Local\Temp/ccEzCmm2.s:1178   .text:000004ba t_integer_part
C:\Users\vivanov\AppData\Local\Temp/ccEzCmm2.s:1208   .text:000004da t_sign
C:\Users\vivanov\AppData\Local\Temp/ccEzCmm2.s:1226   .text:000004e4 io_init
C:\Users\vivanov\AppData\Local\Temp/ccEzCmm2.s:1243   .text:000004ec io_write
C:\Users\vivanov\AppData\Local\Temp/ccEzCmm2.s:1285   .text:00000520 io_read
C:\Users\vivanov\AppData\Local\Temp/ccEzCmm2.s:1310   .text:00000536 __vector_9
C:\Users\vivanov\AppData\Local\Temp/ccEzCmm2.s:5503   .bss:00000000 __clock__
C:\Users\vivanov\AppData\Local\Temp/ccEzCmm2.s:1424   .text:00000614 clock_init
C:\Users\vivanov\AppData\Local\Temp/ccEzCmm2.s:1449   .text:00000622 clock
C:\Users\vivanov\AppData\Local\Temp/ccEzCmm2.s:1470   .text:00000644 change_upd_speed
C:\Users\vivanov\AppData\Local\Temp/ccEzCmm2.s:5533   .data:00000008 usp
C:\Users\vivanov\AppData\Local\Temp/ccEzCmm2.s:1513   .text:00000680 change_line_type
C:\Users\vivanov\AppData\Local\Temp/ccEzCmm2.s:5538   .data:0000000a ltp
C:\Users\vivanov\AppData\Local\Temp/ccEzCmm2.s:1547   .text:000006a4 change_view_mode
C:\Users\vivanov\AppData\Local\Temp/ccEzCmm2.s:5581   .bss:0000003e vm
C:\Users\vivanov\AppData\Local\Temp/ccEzCmm2.s:1572   .text:000006be hooks_init
                            *COM*:00000014 hooks
C:\Users\vivanov\AppData\Local\Temp/ccEzCmm2.s:1592   .text:000006d2 clear_port
C:\Users\vivanov\AppData\Local\Temp/ccEzCmm2.s:5599   .bss:00000041 port_status
C:\Users\vivanov\AppData\Local\Temp/ccEzCmm2.s:1611   .text:000006e4 apply_port
C:\Users\vivanov\AppData\Local\Temp/ccEzCmm2.s:1648   .text:0000070a do_action
C:\Users\vivanov\AppData\Local\Temp/ccEzCmm2.s:1684   .text:0000072a handle_hooks
C:\Users\vivanov\AppData\Local\Temp/ccEzCmm2.s:1840   .text:00000800 draw_hook_ptr
C:\Users\vivanov\AppData\Local\Temp/ccEzCmm2.s:5605   .data:0000000b edit_stages
C:\Users\vivanov\AppData\Local\Temp/ccEzCmm2.s:1918   .text:00000872 sc_top
C:\Users\vivanov\AppData\Local\Temp/ccEzCmm2.s:5557   .bss:00000031 ovf_flag
C:\Users\vivanov\AppData\Local\Temp/ccEzCmm2.s:2030   .text:00000916 draw_chart
                            *COM*:00000072 values_for_chart
C:\Users\vivanov\AppData\Local\Temp/ccEzCmm2.s:2088   .text:00000962 add_new_chart_value
C:\Users\vivanov\AppData\Local\Temp/ccEzCmm2.s:2122   .text:0000097e clear_chart
C:\Users\vivanov\AppData\Local\Temp/ccEzCmm2.s:2148   .text:00000990 draw_bar
C:\Users\vivanov\AppData\Local\Temp/ccEzCmm2.s:2182   .text:000009b4 draw_update_speed_indicator
C:\Users\vivanov\AppData\Local\Temp/ccEzCmm2.s:2250   .text:00000a0e lcd_draw
C:\Users\vivanov\AppData\Local\Temp/ccEzCmm2.s:2400   .text:00000ac4 draw_interface
C:\Users\vivanov\AppData\Local\Temp/ccEzCmm2.s:5440   .eeprom:000001d6 small_zero
C:\Users\vivanov\AppData\Local\Temp/ccEzCmm2.s:5483   .eeprom:000001e5 ball
C:\Users\vivanov\AppData\Local\Temp/ccEzCmm2.s:5471   .eeprom:000001e1 small_s
C:\Users\vivanov\AppData\Local\Temp/ccEzCmm2.s:5477   .eeprom:000001e3 small_p
C:\Users\vivanov\AppData\Local\Temp/ccEzCmm2.s:2597   .text:00000be6 draw_values_line
C:\Users\vivanov\AppData\Local\Temp/ccEzCmm2.s:5447   .eeprom:000001d9 small_two
C:\Users\vivanov\AppData\Local\Temp/ccEzCmm2.s:5459   .eeprom:000001dd small_one
C:\Users\vivanov\AppData\Local\Temp/ccEzCmm2.s:5465   .eeprom:000001df small_eight
C:\Users\vivanov\AppData\Local\Temp/ccEzCmm2.s:5453   .eeprom:000001db small_four
C:\Users\vivanov\AppData\Local\Temp/ccEzCmm2.s:2699   .text:00000c72 lcd_put_char
C:\Users\vivanov\AppData\Local\Temp/ccEzCmm2.s:4966   .eeprom:00000000 CHARS_TABLE
C:\Users\vivanov\AppData\Local\Temp/ccEzCmm2.s:2807   .text:00000d02 lcd_put_string
C:\Users\vivanov\AppData\Local\Temp/ccEzCmm2.s:2890   .text:00000d64 draw_current_value
C:\Users\vivanov\AppData\Local\Temp/ccEzCmm2.s:5495   .eeprom:000001ed deg_char
C:\Users\vivanov\AppData\Local\Temp/ccEzCmm2.s:3030   .text:00000e30 print_hook
C:\Users\vivanov\AppData\Local\Temp/ccEzCmm2.s:5629   .data:0000002b cmps
C:\Users\vivanov\AppData\Local\Temp/ccEzCmm2.s:5644   .data:00000041 acts
C:\Users\vivanov\AppData\Local\Temp/ccEzCmm2.s:5659   .data:0000004f ports
C:\Users\vivanov\AppData\Local\Temp/ccEzCmm2.s:3161   .text:00000f08 lcd_clear
C:\Users\vivanov\AppData\Local\Temp/ccEzCmm2.s:3192   .text:00000f32 lcd_init
C:\Users\vivanov\AppData\Local\Temp/ccEzCmm2.s:3245   .text:00000f62 main
C:\Users\vivanov\AppData\Local\Temp/ccEzCmm2.s:5569   .bss:00000034 shown_value
C:\Users\vivanov\AppData\Local\Temp/ccEzCmm2.s:5551   .bss:00000030 conversion
C:\Users\vivanov\AppData\Local\Temp/ccEzCmm2.s:5545   .bss:00000028 conversion_start
C:\Users\vivanov\AppData\Local\Temp/ccEzCmm2.s:5563   .bss:00000032 actual_t
C:\Users\vivanov\AppData\Local\Temp/ccEzCmm2.s:5575   .bss:00000036 last_upd
C:\Users\vivanov\AppData\Local\Temp/ccEzCmm2.s:5527   .bss:00000020 debounce_d
C:\Users\vivanov\AppData\Local\Temp/ccEzCmm2.s:5509   .bss:00000008 debounce_a
C:\Users\vivanov\AppData\Local\Temp/ccEzCmm2.s:5515   .bss:00000010 debounce_b
C:\Users\vivanov\AppData\Local\Temp/ccEzCmm2.s:5593   .bss:00000040 hook_edit_stage
C:\Users\vivanov\AppData\Local\Temp/ccEzCmm2.s:5587   .bss:0000003f hook_m_ptr
C:\Users\vivanov\AppData\Local\Temp/ccEzCmm2.s:5521   .bss:00000018 debounce_c

UNDEFINED SYMBOLS
__divmodhi4
__eerd_byte_m8
itoa
__do_copy_data
__do_clear_bss
